ARM GAS  /var/folders/83/vwtnzcdn1v99b_lf0k0gsjzr0000gn/T//ccKcGgHc.s 			page 1


   1              		.cpu cortex-m7
   2              		.arch armv7e-m
   3              		.fpu fpv5-d16
   4              		.eabi_attribute 28, 1
   5              		.eabi_attribute 20, 1
   6              		.eabi_attribute 21, 1
   7              		.eabi_attribute 23, 3
   8              		.eabi_attribute 24, 1
   9              		.eabi_attribute 25, 1
  10              		.eabi_attribute 26, 1
  11              		.eabi_attribute 30, 2
  12              		.eabi_attribute 34, 1
  13              		.eabi_attribute 18, 4
  14              		.file	"Pedal.cpp"
  15              		.text
  16              	.Ltext0:
  17              		.cfi_sections	.debug_frame
  18              		.section	.text._ZN3amc5Pedal5DelayEj,"ax",%progbits
  19              		.align	1
  20              		.p2align 2,,3
  21              		.global	_ZN3amc5Pedal5DelayEj
  22              		.syntax unified
  23              		.thumb
  24              		.thumb_func
  26              	_ZN3amc5Pedal5DelayEj:
  27              	.LVL0:
  28              	.LFB5662:
  29              		.file 1 "../src/Pedal.cpp"
   1:../src/Pedal.cpp **** #include "Pedal.h"
   2:../src/Pedal.cpp **** 
   3:../src/Pedal.cpp **** using namespace daisy;
   4:../src/Pedal.cpp **** using namespace amc;
   5:../src/Pedal.cpp **** 
   6:../src/Pedal.cpp **** void Pedal::Init(bool boost)
   7:../src/Pedal.cpp **** {
   8:../src/Pedal.cpp **** 	seed.Init(boost);
   9:../src/Pedal.cpp **** 
  10:../src/Pedal.cpp **** 	InitAnalogControls();
  11:../src/Pedal.cpp **** 	InitEncoders();
  12:../src/Pedal.cpp **** 	InitSwitches();
  13:../src/Pedal.cpp **** 	InitLeds();
  14:../src/Pedal.cpp **** 	InitMidi();
  15:../src/Pedal.cpp **** 
  16:../src/Pedal.cpp **** 	switch (SR)
  17:../src/Pedal.cpp **** 	{
  18:../src/Pedal.cpp **** 	case 8000:
  19:../src/Pedal.cpp **** 		SetAudioRate(daisy::SaiHandle::Config::SampleRate::SAI_8KHZ);
  20:../src/Pedal.cpp **** 		break;
  21:../src/Pedal.cpp **** 	case 16000:
  22:../src/Pedal.cpp **** 		SetAudioRate(daisy::SaiHandle::Config::SampleRate::SAI_16KHZ);
  23:../src/Pedal.cpp **** 		break;
  24:../src/Pedal.cpp **** 	case 32000:
  25:../src/Pedal.cpp **** 		SetAudioRate(daisy::SaiHandle::Config::SampleRate::SAI_32KHZ);
  26:../src/Pedal.cpp **** 		break;
  27:../src/Pedal.cpp **** 	case 96000:
  28:../src/Pedal.cpp **** 		SetAudioRate(daisy::SaiHandle::Config::SampleRate::SAI_96KHZ);
  29:../src/Pedal.cpp **** 		break;
ARM GAS  /var/folders/83/vwtnzcdn1v99b_lf0k0gsjzr0000gn/T//ccKcGgHc.s 			page 2


  30:../src/Pedal.cpp **** 	default:
  31:../src/Pedal.cpp **** 		SetAudioRate(daisy::SaiHandle::Config::SampleRate::SAI_48KHZ);
  32:../src/Pedal.cpp **** 		break;
  33:../src/Pedal.cpp **** 	}
  34:../src/Pedal.cpp **** 
  35:../src/Pedal.cpp **** 	SetBlockSize(16);
  36:../src/Pedal.cpp **** 
  37:../src/Pedal.cpp **** 	// attach GPIO objects to appropriate pins for later writing (switching relays)
  38:../src/Pedal.cpp **** 	audioBypassTrigger.Init(daisy::seed::D1, GPIO::Mode::OUTPUT);
  39:../src/Pedal.cpp **** 	audioMuteTrigger.Init(daisy::seed::D12, GPIO::Mode::OUTPUT);
  40:../src/Pedal.cpp **** 	SetBypass(true);
  41:../src/Pedal.cpp **** 	SetMute(false);
  42:../src/Pedal.cpp **** 
  43:../src/Pedal.cpp **** 	// configure display
  44:../src/Pedal.cpp **** 	Oled::Config config;
  45:../src/Pedal.cpp **** 	config.driver_config.transport_config.pin_config.dc = seed.GetPin(DISPLAY_DC_PIN);
  46:../src/Pedal.cpp **** 	config.driver_config.transport_config.pin_config.reset = seed.GetPin(DISPLAY_RESET_PIN);
  47:../src/Pedal.cpp **** 	display.Init(config);
  48:../src/Pedal.cpp **** }
  49:../src/Pedal.cpp **** 
  50:../src/Pedal.cpp **** void Pedal::Delay(size_t milliseconds)
  51:../src/Pedal.cpp **** {
  30              		.loc 1 51 1 view -0
  31              		.cfi_startproc
  32              		@ args = 0, pretend = 0, frame = 0
  33              		@ frame_needed = 0, uses_anonymous_args = 0
  34              		@ link register save eliminated.
  52:../src/Pedal.cpp **** 	seed.DelayMs(milliseconds);
  35              		.loc 1 52 2 view .LVU1
  36              		.loc 1 52 14 is_stmt 0 view .LVU2
  37 0000 FFF7FEBF 		b	_ZN5daisy9DaisySeed7DelayMsEj
  38              	.LVL1:
  39              		.loc 1 52 14 view .LVU3
  40              		.cfi_endproc
  41              	.LFE5662:
  43              		.section	.text._ZN3amc5Pedal10StartAudioEPFvPKfPfjE,"ax",%progbits
  44              		.align	1
  45              		.p2align 2,,3
  46              		.global	_ZN3amc5Pedal10StartAudioEPFvPKfPfjE
  47              		.syntax unified
  48              		.thumb
  49              		.thumb_func
  51              	_ZN3amc5Pedal10StartAudioEPFvPKfPfjE:
  52              	.LVL2:
  53              	.LFB5663:
  53:../src/Pedal.cpp **** }
  54:../src/Pedal.cpp **** 
  55:../src/Pedal.cpp **** void Pedal::StartAudio(AudioHandle::InterleavingAudioCallback cb)
  56:../src/Pedal.cpp **** {
  54              		.loc 1 56 1 is_stmt 1 view -0
  55              		.cfi_startproc
  56              		@ args = 0, pretend = 0, frame = 0
  57              		@ frame_needed = 0, uses_anonymous_args = 0
  58              		@ link register save eliminated.
  57:../src/Pedal.cpp **** 	seed.StartAudio(cb);
  59              		.loc 1 57 2 view .LVU5
  60              		.loc 1 57 17 is_stmt 0 view .LVU6
ARM GAS  /var/folders/83/vwtnzcdn1v99b_lf0k0gsjzr0000gn/T//ccKcGgHc.s 			page 3


  61 0000 FFF7FEBF 		b	_ZN5daisy9DaisySeed10StartAudioEPFvPKfPfjE
  62              	.LVL3:
  63              		.loc 1 57 17 view .LVU7
  64              		.cfi_endproc
  65              	.LFE5663:
  67              		.section	.text._ZN3amc5Pedal10StartAudioEPFvPKPKfPPfjE,"ax",%progbits
  68              		.align	1
  69              		.p2align 2,,3
  70              		.global	_ZN3amc5Pedal10StartAudioEPFvPKPKfPPfjE
  71              		.syntax unified
  72              		.thumb
  73              		.thumb_func
  75              	_ZN3amc5Pedal10StartAudioEPFvPKPKfPPfjE:
  76              	.LVL4:
  77              	.LFB5664:
  58:../src/Pedal.cpp **** }
  59:../src/Pedal.cpp **** 
  60:../src/Pedal.cpp **** void Pedal::StartAudio(AudioHandle::AudioCallback cb)
  61:../src/Pedal.cpp **** {
  78              		.loc 1 61 1 is_stmt 1 view -0
  79              		.cfi_startproc
  80              		@ args = 0, pretend = 0, frame = 0
  81              		@ frame_needed = 0, uses_anonymous_args = 0
  82              		@ link register save eliminated.
  62:../src/Pedal.cpp **** 	seed.StartAudio(cb);
  83              		.loc 1 62 2 view .LVU9
  84              		.loc 1 62 17 is_stmt 0 view .LVU10
  85 0000 FFF7FEBF 		b	_ZN5daisy9DaisySeed10StartAudioEPFvPKPKfPPfjE
  86              	.LVL5:
  87              		.loc 1 62 17 view .LVU11
  88              		.cfi_endproc
  89              	.LFE5664:
  91              		.section	.text._ZN3amc5Pedal11ChangeAudioEPFvPKfPfjE,"ax",%progbits
  92              		.align	1
  93              		.p2align 2,,3
  94              		.global	_ZN3amc5Pedal11ChangeAudioEPFvPKfPfjE
  95              		.syntax unified
  96              		.thumb
  97              		.thumb_func
  99              	_ZN3amc5Pedal11ChangeAudioEPFvPKfPfjE:
 100              	.LVL6:
 101              	.LFB5665:
  63:../src/Pedal.cpp **** }
  64:../src/Pedal.cpp **** 
  65:../src/Pedal.cpp **** void Pedal::ChangeAudio(AudioHandle::InterleavingAudioCallback cb)
  66:../src/Pedal.cpp **** {
 102              		.loc 1 66 1 is_stmt 1 view -0
 103              		.cfi_startproc
 104              		@ args = 0, pretend = 0, frame = 0
 105              		@ frame_needed = 0, uses_anonymous_args = 0
 106              		@ link register save eliminated.
  67:../src/Pedal.cpp **** 	seed.ChangeAudioCallback(cb);
 107              		.loc 1 67 2 view .LVU13
 108              		.loc 1 67 26 is_stmt 0 view .LVU14
 109 0000 FFF7FEBF 		b	_ZN5daisy9DaisySeed19ChangeAudioCallbackEPFvPKfPfjE
 110              	.LVL7:
 111              		.loc 1 67 26 view .LVU15
ARM GAS  /var/folders/83/vwtnzcdn1v99b_lf0k0gsjzr0000gn/T//ccKcGgHc.s 			page 4


 112              		.cfi_endproc
 113              	.LFE5665:
 115              		.section	.text._ZN3amc5Pedal11ChangeAudioEPFvPKPKfPPfjE,"ax",%progbits
 116              		.align	1
 117              		.p2align 2,,3
 118              		.global	_ZN3amc5Pedal11ChangeAudioEPFvPKPKfPPfjE
 119              		.syntax unified
 120              		.thumb
 121              		.thumb_func
 123              	_ZN3amc5Pedal11ChangeAudioEPFvPKPKfPPfjE:
 124              	.LVL8:
 125              	.LFB5666:
  68:../src/Pedal.cpp **** }
  69:../src/Pedal.cpp **** 
  70:../src/Pedal.cpp **** void Pedal::ChangeAudio(AudioHandle::AudioCallback cb)
  71:../src/Pedal.cpp **** {
 126              		.loc 1 71 1 is_stmt 1 view -0
 127              		.cfi_startproc
 128              		@ args = 0, pretend = 0, frame = 0
 129              		@ frame_needed = 0, uses_anonymous_args = 0
 130              		@ link register save eliminated.
  72:../src/Pedal.cpp **** 	seed.ChangeAudioCallback(cb);
 131              		.loc 1 72 2 view .LVU17
 132              		.loc 1 72 26 is_stmt 0 view .LVU18
 133 0000 FFF7FEBF 		b	_ZN5daisy9DaisySeed19ChangeAudioCallbackEPFvPKPKfPPfjE
 134              	.LVL9:
 135              		.loc 1 72 26 view .LVU19
 136              		.cfi_endproc
 137              	.LFE5666:
 139              		.section	.text._ZN3amc5Pedal9StopAudioEv,"ax",%progbits
 140              		.align	1
 141              		.p2align 2,,3
 142              		.global	_ZN3amc5Pedal9StopAudioEv
 143              		.syntax unified
 144              		.thumb
 145              		.thumb_func
 147              	_ZN3amc5Pedal9StopAudioEv:
 148              	.LVL10:
 149              	.LFB5667:
  73:../src/Pedal.cpp **** }
  74:../src/Pedal.cpp **** 
  75:../src/Pedal.cpp **** void Pedal::StopAudio()
  76:../src/Pedal.cpp **** {
 150              		.loc 1 76 1 is_stmt 1 view -0
 151              		.cfi_startproc
 152              		@ args = 0, pretend = 0, frame = 0
 153              		@ frame_needed = 0, uses_anonymous_args = 0
 154              		@ link register save eliminated.
  77:../src/Pedal.cpp **** 	seed.StopAudio();
 155              		.loc 1 77 2 view .LVU21
 156              		.loc 1 77 16 is_stmt 0 view .LVU22
 157 0000 FFF7FEBF 		b	_ZN5daisy9DaisySeed9StopAudioEv
 158              	.LVL11:
 159              		.loc 1 77 16 view .LVU23
 160              		.cfi_endproc
 161              	.LFE5667:
 163              		.section	.text._ZN3amc5Pedal12SetAudioRateEN5daisy9SaiHandle6Config10SampleRateE,"ax",%progbits
ARM GAS  /var/folders/83/vwtnzcdn1v99b_lf0k0gsjzr0000gn/T//ccKcGgHc.s 			page 5


 164              		.align	1
 165              		.p2align 2,,3
 166              		.global	_ZN3amc5Pedal12SetAudioRateEN5daisy9SaiHandle6Config10SampleRateE
 167              		.syntax unified
 168              		.thumb
 169              		.thumb_func
 171              	_ZN3amc5Pedal12SetAudioRateEN5daisy9SaiHandle6Config10SampleRateE:
 172              	.LVL12:
 173              	.LFB5668:
  78:../src/Pedal.cpp **** }
  79:../src/Pedal.cpp **** 
  80:../src/Pedal.cpp **** void Pedal::SetAudioRate(SaiHandle::Config::SampleRate samplerate)
  81:../src/Pedal.cpp **** {
 174              		.loc 1 81 1 is_stmt 1 view -0
 175              		.cfi_startproc
 176              		@ args = 0, pretend = 0, frame = 0
 177              		@ frame_needed = 0, uses_anonymous_args = 0
  82:../src/Pedal.cpp **** 	seed.SetAudioSampleRate(samplerate);
 178              		.loc 1 82 2 view .LVU25
  81:../src/Pedal.cpp **** 	seed.SetAudioSampleRate(samplerate);
 179              		.loc 1 81 1 is_stmt 0 view .LVU26
 180 0000 70B5     		push	{r4, r5, r6, lr}
 181              		.cfi_def_cfa_offset 16
 182              		.cfi_offset 4, -16
 183              		.cfi_offset 5, -12
 184              		.cfi_offset 6, -8
 185              		.cfi_offset 14, -4
  81:../src/Pedal.cpp **** 	seed.SetAudioSampleRate(samplerate);
 186              		.loc 1 81 1 view .LVU27
 187 0002 0546     		mov	r5, r0
 188              		.loc 1 82 25 view .LVU28
 189 0004 FFF7FEFF 		bl	_ZN5daisy9DaisySeed18SetAudioSampleRateENS_9SaiHandle6Config10SampleRateE
 190              	.LVL13:
  83:../src/Pedal.cpp **** 	SetHidUpdateRates();
 191              		.loc 1 83 2 is_stmt 1 view .LVU29
 192              	.LBB91:
 193              	.LBI91:
  84:../src/Pedal.cpp **** }
  85:../src/Pedal.cpp **** 
  86:../src/Pedal.cpp **** float Pedal::AudioRate()
  87:../src/Pedal.cpp **** {
  88:../src/Pedal.cpp **** 	return seed.AudioSampleRate();
  89:../src/Pedal.cpp **** }
  90:../src/Pedal.cpp **** 
  91:../src/Pedal.cpp **** void Pedal::SetBlockSize(size_t size)
  92:../src/Pedal.cpp **** {
  93:../src/Pedal.cpp **** 	seed.SetAudioBlockSize(size);
  94:../src/Pedal.cpp **** 	SetHidUpdateRates();
  95:../src/Pedal.cpp **** }
  96:../src/Pedal.cpp **** 
  97:../src/Pedal.cpp **** size_t Pedal::BlockSize()
  98:../src/Pedal.cpp **** {
  99:../src/Pedal.cpp **** 	return seed.AudioBlockSize();
 100:../src/Pedal.cpp **** }
 101:../src/Pedal.cpp **** 
 102:../src/Pedal.cpp **** float Pedal::CallbackRate()
 103:../src/Pedal.cpp **** {
ARM GAS  /var/folders/83/vwtnzcdn1v99b_lf0k0gsjzr0000gn/T//ccKcGgHc.s 			page 6


 104:../src/Pedal.cpp **** 	return seed.AudioCallbackRate();
 105:../src/Pedal.cpp **** }
 106:../src/Pedal.cpp **** 
 107:../src/Pedal.cpp **** void Pedal::StartAdc() { seed.adc.Start(); } // start analog-digital conversion
 108:../src/Pedal.cpp **** void Pedal::StopAdc() { seed.adc.Stop(); } // stop transfering data
 109:../src/Pedal.cpp **** 
 110:../src/Pedal.cpp **** void Pedal::ProcessAnalog()
 111:../src/Pedal.cpp **** {
 112:../src/Pedal.cpp **** 	for (size_t i = 0; i < KnobI::KN; i++)
 113:../src/Pedal.cpp **** 		knobs[i].Process();
 114:../src/Pedal.cpp **** }
 115:../src/Pedal.cpp **** 
 116:../src/Pedal.cpp **** void Pedal::ProcessDigital()
 117:../src/Pedal.cpp **** {
 118:../src/Pedal.cpp **** 	for (size_t i = 0; i < SwitchI::SN; i++)
 119:../src/Pedal.cpp **** 		switches[i].Debounce();
 120:../src/Pedal.cpp **** 
 121:../src/Pedal.cpp **** 	for (size_t i = 0; i < EncoderI::EN; i++)
 122:../src/Pedal.cpp **** 		encoders[i].Debounce();
 123:../src/Pedal.cpp **** }
 124:../src/Pedal.cpp **** 
 125:../src/Pedal.cpp **** float Pedal::GetKnob(KnobI k)
 126:../src/Pedal.cpp **** {
 127:../src/Pedal.cpp **** 	size_t id = k < KnobI::KN ? k : 0;
 128:../src/Pedal.cpp **** 	return knobs[id].Value();
 129:../src/Pedal.cpp **** }
 130:../src/Pedal.cpp **** 
 131:../src/Pedal.cpp **** void Pedal::SetBypass(bool enabled)
 132:../src/Pedal.cpp **** {
 133:../src/Pedal.cpp **** 	audioBypass = enabled;
 134:../src/Pedal.cpp **** 	audioBypassTrigger.Write(!audioBypass);
 135:../src/Pedal.cpp **** }
 136:../src/Pedal.cpp **** 
 137:../src/Pedal.cpp **** void Pedal::SetMute(bool enabled)
 138:../src/Pedal.cpp **** {
 139:../src/Pedal.cpp **** 	audioMute = enabled;
 140:../src/Pedal.cpp **** 	audioMuteTrigger.Write(audioMute);
 141:../src/Pedal.cpp **** }
 142:../src/Pedal.cpp **** 
 143:../src/Pedal.cpp **** void Pedal::ClearLeds()
 144:../src/Pedal.cpp **** {
 145:../src/Pedal.cpp **** 	for (size_t i = 0; i < LedI::LN; i++)
 146:../src/Pedal.cpp **** 		SetLed(static_cast<LedI>(i), 0.0f);
 147:../src/Pedal.cpp **** }
 148:../src/Pedal.cpp **** 
 149:../src/Pedal.cpp **** void Pedal::SetLed(LedI l, float brightness)
 150:../src/Pedal.cpp **** {
 151:../src/Pedal.cpp **** 	size_t id = l < LedI::LN ? l : 0;
 152:../src/Pedal.cpp **** 	leds[id].Set(brightness);
 153:../src/Pedal.cpp **** }
 154:../src/Pedal.cpp **** 
 155:../src/Pedal.cpp **** void Pedal::UpdateLeds()
 156:../src/Pedal.cpp **** {
 157:../src/Pedal.cpp **** 	for (size_t i = 0; i < LedI::LN; i++)
 158:../src/Pedal.cpp **** 		leds[i].Update();
 159:../src/Pedal.cpp **** }
 160:../src/Pedal.cpp **** 
ARM GAS  /var/folders/83/vwtnzcdn1v99b_lf0k0gsjzr0000gn/T//ccKcGgHc.s 			page 7


 161:../src/Pedal.cpp **** void Pedal::InitAnalogControls()
 162:../src/Pedal.cpp **** {
 163:../src/Pedal.cpp **** 	AdcChannelConfig configs[KnobI::KN]; // one config per knob
 164:../src/Pedal.cpp **** 
 165:../src/Pedal.cpp **** 	configs[KnobI::K1].InitSingle(seed.GetPin(KNOB_PIN_1));
 166:../src/Pedal.cpp **** 	configs[KnobI::K2].InitSingle(seed.GetPin(KNOB_PIN_2));
 167:../src/Pedal.cpp **** 	configs[KnobI::K3].InitSingle(seed.GetPin(KNOB_PIN_3));
 168:../src/Pedal.cpp **** 	configs[KnobI::K4].InitSingle(seed.GetPin(KNOB_PIN_4));
 169:../src/Pedal.cpp **** 	configs[KnobI::K5].InitSingle(seed.GetPin(KNOB_PIN_5));
 170:../src/Pedal.cpp **** 	configs[KnobI::K6].InitSingle(seed.GetPin(KNOB_PIN_6));
 171:../src/Pedal.cpp **** 
 172:../src/Pedal.cpp **** 	seed.adc.Init(configs, KnobI::KN);
 173:../src/Pedal.cpp **** 	
 174:../src/Pedal.cpp **** 	for (int i = 0; i < KnobI::KN; i++) // attach pointers to knobs object
 175:../src/Pedal.cpp **** 		knobs[i].Init(seed.adc.GetPtr(i), CallbackRate());
 176:../src/Pedal.cpp **** }
 177:../src/Pedal.cpp **** 
 178:../src/Pedal.cpp **** void Pedal::InitEncoders()
 179:../src/Pedal.cpp **** {
 180:../src/Pedal.cpp **** 	encoders[EncoderI::E1].Init(seed.GetPin(ENCODER_1_A_PIN),
 181:../src/Pedal.cpp **** 		seed.GetPin(ENCODER_1_B_PIN),
 182:../src/Pedal.cpp **** 		seed.GetPin(ENCODER_1_BUTTON_PIN));
 183:../src/Pedal.cpp **** }
 184:../src/Pedal.cpp **** 
 185:../src/Pedal.cpp **** void Pedal::InitSwitches()
 186:../src/Pedal.cpp **** {
 187:../src/Pedal.cpp **** 	switches[SwitchI::S1].Init(seed.GetPin(SWITCH_1_PIN));
 188:../src/Pedal.cpp **** 	switches[SwitchI::S2].Init(seed.GetPin(SWITCH_2_PIN));
 189:../src/Pedal.cpp **** }
 190:../src/Pedal.cpp **** 
 191:../src/Pedal.cpp **** void Pedal::InitLeds()
 192:../src/Pedal.cpp **** {
 193:../src/Pedal.cpp **** 	leds[LedI::L1].Init(seed.GetPin(LED_1_PIN), false);
 194:../src/Pedal.cpp **** 	leds[LedI::L2].Init(seed.GetPin(LED_2_PIN), false);
 195:../src/Pedal.cpp **** }
 196:../src/Pedal.cpp **** 
 197:../src/Pedal.cpp **** void Pedal::InitMidi()
 198:../src/Pedal.cpp **** {
 199:../src/Pedal.cpp **** 	MidiUartHandler::Config config;
 200:../src/Pedal.cpp **** 	config.transport_config.rx = seed.GetPin(MIDI_RX_PIN);
 201:../src/Pedal.cpp **** 	config.transport_config.tx = seed.GetPin(MIDI_TX_PIN);
 202:../src/Pedal.cpp **** 	midi.Init(config);
 203:../src/Pedal.cpp **** }
 204:../src/Pedal.cpp **** 
 205:../src/Pedal.cpp **** void Pedal::SetHidUpdateRates()
 194              		.loc 1 205 6 view .LVU30
 195              	.LBE91:
 206:../src/Pedal.cpp **** {
 207:../src/Pedal.cpp **** 	for (size_t i = 0; i < KnobI::KN; i++)
 196              		.loc 1 207 2 view .LVU31
 197              	.LBB108:
 198              	.LBB92:
 199              		.loc 1 207 23 view .LVU32
 200 0008 05F25444 		addw	r4, r5, #1108
 201 000c 05F21456 		addw	r6, r5, #1300
 202              	.LVL14:
 203              	.L9:
ARM GAS  /var/folders/83/vwtnzcdn1v99b_lf0k0gsjzr0000gn/T//ccKcGgHc.s 			page 8


 208:../src/Pedal.cpp **** 		knobs[i].SetSampleRate(CallbackRate());
 204              		.loc 1 208 3 view .LVU33
 205              	.LBB93:
 206              	.LBI93:
 102:../src/Pedal.cpp **** {
 207              		.loc 1 102 7 view .LVU34
 208              	.LBB94:
 104:../src/Pedal.cpp **** }
 209              		.loc 1 104 2 view .LVU35
 104:../src/Pedal.cpp **** }
 210              		.loc 1 104 31 is_stmt 0 view .LVU36
 211 0010 2846     		mov	r0, r5
 212 0012 FFF7FEFF 		bl	_ZNK5daisy9DaisySeed17AudioCallbackRateEv
 213              	.LVL15:
 104:../src/Pedal.cpp **** }
 214              		.loc 1 104 31 view .LVU37
 215              	.LBE94:
 216              	.LBE93:
 217              		.loc 1 208 25 view .LVU38
 218 0016 2046     		mov	r0, r4
 207:../src/Pedal.cpp **** 		knobs[i].SetSampleRate(CallbackRate());
 219              		.loc 1 207 23 view .LVU39
 220 0018 2034     		adds	r4, r4, #32
 221              		.loc 1 208 25 view .LVU40
 222 001a FFF7FEFF 		bl	_ZN5daisy13AnalogControl13SetSampleRateEf
 223              	.LVL16:
 207:../src/Pedal.cpp **** 		knobs[i].SetSampleRate(CallbackRate());
 224              		.loc 1 207 2 is_stmt 1 view .LVU41
 207:../src/Pedal.cpp **** 		knobs[i].SetSampleRate(CallbackRate());
 225              		.loc 1 207 23 view .LVU42
 226 001e A642     		cmp	r6, r4
 227 0020 F6D1     		bne	.L9
 228              	.LVL17:
 207:../src/Pedal.cpp **** 		knobs[i].SetSampleRate(CallbackRate());
 229              		.loc 1 207 23 is_stmt 0 view .LVU43
 230              	.LBE92:
 231              	.LBB95:
 209:../src/Pedal.cpp **** 
 210:../src/Pedal.cpp **** 	for (size_t i = 0; i < LedI::LN; i++)
 232              		.loc 1 210 23 is_stmt 1 view .LVU44
 211:../src/Pedal.cpp **** 		leds[i].SetSampleRate(CallbackRate());
 233              		.loc 1 211 3 view .LVU45
 234              	.LBB96:
 235              	.LBI96:
 102:../src/Pedal.cpp **** {
 236              		.loc 1 102 7 view .LVU46
 237              	.LBB97:
 104:../src/Pedal.cpp **** }
 238              		.loc 1 104 2 view .LVU47
 104:../src/Pedal.cpp **** }
 239              		.loc 1 104 31 is_stmt 0 view .LVU48
 240 0022 2846     		mov	r0, r5
 241 0024 FFF7FEFF 		bl	_ZNK5daisy9DaisySeed17AudioCallbackRateEv
 242              	.LVL18:
 104:../src/Pedal.cpp **** }
 243              		.loc 1 104 31 view .LVU49
 244              	.LBE97:
ARM GAS  /var/folders/83/vwtnzcdn1v99b_lf0k0gsjzr0000gn/T//ccKcGgHc.s 			page 9


 245              	.LBE96:
 246              	.LBB100:
 247              	.LBI100:
 248              		.file 2 "/Users/amc/git/libDaisy/src/hid/led.h"
   1:/Users/amc/git/libDaisy/src/hid/led.h **** 
   2:/Users/amc/git/libDaisy/src/hid/led.h **** #pragma once
   3:/Users/amc/git/libDaisy/src/hid/led.h **** #ifndef DSY_LED_H
   4:/Users/amc/git/libDaisy/src/hid/led.h **** #define DSY_LED_H
   5:/Users/amc/git/libDaisy/src/hid/led.h **** #include "daisy_core.h"
   6:/Users/amc/git/libDaisy/src/hid/led.h **** #include "per/gpio.h"
   7:/Users/amc/git/libDaisy/src/hid/led.h **** 
   8:/Users/amc/git/libDaisy/src/hid/led.h **** /* TODO - Get this set up to work with the dev_leddriver stuff as well
   9:/Users/amc/git/libDaisy/src/hid/led.h **** - Setup Hardware PWM for pins that have it
  10:/Users/amc/git/libDaisy/src/hid/led.h **** */
  11:/Users/amc/git/libDaisy/src/hid/led.h **** 
  12:/Users/amc/git/libDaisy/src/hid/led.h **** namespace daisy
  13:/Users/amc/git/libDaisy/src/hid/led.h **** {
  14:/Users/amc/git/libDaisy/src/hid/led.h **** /**
  15:/Users/amc/git/libDaisy/src/hid/led.h ****     @brief LED Class providing simple Software PWM ability, etc \n 
  16:/Users/amc/git/libDaisy/src/hid/led.h ****     Eventually this will work with hardware PWM, and external LED Driver devices as well.
  17:/Users/amc/git/libDaisy/src/hid/led.h ****     @author shensley
  18:/Users/amc/git/libDaisy/src/hid/led.h ****     @date March 2020
  19:/Users/amc/git/libDaisy/src/hid/led.h ****     @ingroup feedback
  20:/Users/amc/git/libDaisy/src/hid/led.h **** */
  21:/Users/amc/git/libDaisy/src/hid/led.h **** class Led
  22:/Users/amc/git/libDaisy/src/hid/led.h **** {
  23:/Users/amc/git/libDaisy/src/hid/led.h ****   public:
  24:/Users/amc/git/libDaisy/src/hid/led.h ****     Led() {}
  25:/Users/amc/git/libDaisy/src/hid/led.h ****     ~Led() {}
  26:/Users/amc/git/libDaisy/src/hid/led.h **** 
  27:/Users/amc/git/libDaisy/src/hid/led.h ****     /** 
  28:/Users/amc/git/libDaisy/src/hid/led.h ****     Initializes an LED using the specified hardware pin.
  29:/Users/amc/git/libDaisy/src/hid/led.h ****     \param pin chooses LED pin
  30:/Users/amc/git/libDaisy/src/hid/led.h ****     \param invert will set whether to internally invert the brightness due to hardware config.
  31:/Users/amc/git/libDaisy/src/hid/led.h ****         \param samplerate sets the rate at which 'Update()' will be called (used for software PWM)
  32:/Users/amc/git/libDaisy/src/hid/led.h ****     */
  33:/Users/amc/git/libDaisy/src/hid/led.h ****     void Init(dsy_gpio_pin pin, bool invert, float samplerate = 1000.0f);
  34:/Users/amc/git/libDaisy/src/hid/led.h **** 
  35:/Users/amc/git/libDaisy/src/hid/led.h ****     /** 
  36:/Users/amc/git/libDaisy/src/hid/led.h ****     Sets the brightness of the Led.
  37:/Users/amc/git/libDaisy/src/hid/led.h ****     \param val will be cubed for gamma correction, and then quantized to 8-bit values for Software 
  38:/Users/amc/git/libDaisy/src/hid/led.h ****     8-bit is for more flexible update rate options, as 12-bit or more would require faster update r
  39:/Users/amc/git/libDaisy/src/hid/led.h ****     */
  40:/Users/amc/git/libDaisy/src/hid/led.h ****     void Set(float val);
  41:/Users/amc/git/libDaisy/src/hid/led.h **** 
  42:/Users/amc/git/libDaisy/src/hid/led.h ****     /** 
  43:/Users/amc/git/libDaisy/src/hid/led.h ****     This processes the pwm of the LED
  44:/Users/amc/git/libDaisy/src/hid/led.h ****     sets the hardware accordingly.
  45:/Users/amc/git/libDaisy/src/hid/led.h ****     */
  46:/Users/amc/git/libDaisy/src/hid/led.h ****     void Update();
  47:/Users/amc/git/libDaisy/src/hid/led.h **** 
  48:/Users/amc/git/libDaisy/src/hid/led.h ****     /** Set the rate at which you'll update the leds without reiniting the led
  49:/Users/amc/git/libDaisy/src/hid/led.h ****      *  \param sample_rate New update rate in hz.
  50:/Users/amc/git/libDaisy/src/hid/led.h ****     */
  51:/Users/amc/git/libDaisy/src/hid/led.h ****     inline void SetSampleRate(float sample_rate) { samplerate_ = sample_rate; }
 249              		.loc 2 51 17 is_stmt 1 view .LVU50
 250              	.LBB101:
ARM GAS  /var/folders/83/vwtnzcdn1v99b_lf0k0gsjzr0000gn/T//ccKcGgHc.s 			page 10


 251              		.loc 2 51 52 view .LVU51
 252              		.loc 2 51 64 is_stmt 0 view .LVU52
 253 0028 05F26C53 		addw	r3, r5, #1388
 254              	.LBE101:
 255              	.LBE100:
 256              	.LBB104:
 257              	.LBB98:
 104:../src/Pedal.cpp **** }
 258              		.loc 1 104 31 view .LVU53
 259 002c 2846     		mov	r0, r5
 260              	.LBE98:
 261              	.LBE104:
 262              	.LBB105:
 263              	.LBB102:
 264              		.loc 2 51 64 view .LVU54
 265 002e 05F5B165 		add	r5, r5, #1416
 266              	.LVL19:
 267              		.loc 2 51 64 view .LVU55
 268 0032 83ED000A 		vstr.32	s0, [r3]
 269              	.LVL20:
 270              		.loc 2 51 64 view .LVU56
 271              	.LBE102:
 272              	.LBE105:
 210:../src/Pedal.cpp **** 		leds[i].SetSampleRate(CallbackRate());
 273              		.loc 1 210 2 is_stmt 1 view .LVU57
 210:../src/Pedal.cpp **** 		leds[i].SetSampleRate(CallbackRate());
 274              		.loc 1 210 23 view .LVU58
 275              		.loc 1 211 3 view .LVU59
 276              	.LBB106:
 102:../src/Pedal.cpp **** {
 277              		.loc 1 102 7 view .LVU60
 278              	.LBB99:
 104:../src/Pedal.cpp **** }
 279              		.loc 1 104 2 view .LVU61
 104:../src/Pedal.cpp **** }
 280              		.loc 1 104 31 is_stmt 0 view .LVU62
 281 0036 FFF7FEFF 		bl	_ZNK5daisy9DaisySeed17AudioCallbackRateEv
 282              	.LVL21:
 104:../src/Pedal.cpp **** }
 283              		.loc 1 104 31 view .LVU63
 284              	.LBE99:
 285              	.LBE106:
 286              	.LBB107:
 287              		.loc 2 51 17 is_stmt 1 view .LVU64
 288              	.LBB103:
 289              		.loc 2 51 52 view .LVU65
 290              		.loc 2 51 64 is_stmt 0 view .LVU66
 291 003a 85ED000A 		vstr.32	s0, [r5]
 292              	.LVL22:
 293              		.loc 2 51 64 view .LVU67
 294              	.LBE103:
 295              	.LBE107:
 210:../src/Pedal.cpp **** 		leds[i].SetSampleRate(CallbackRate());
 296              		.loc 1 210 2 is_stmt 1 view .LVU68
 210:../src/Pedal.cpp **** 		leds[i].SetSampleRate(CallbackRate());
 297              		.loc 1 210 23 view .LVU69
 210:../src/Pedal.cpp **** 		leds[i].SetSampleRate(CallbackRate());
ARM GAS  /var/folders/83/vwtnzcdn1v99b_lf0k0gsjzr0000gn/T//ccKcGgHc.s 			page 11


 298              		.loc 1 210 23 is_stmt 0 view .LVU70
 299              	.LBE95:
 300              	.LBE108:
  84:../src/Pedal.cpp **** 
 301              		.loc 1 84 1 view .LVU71
 302 003e 70BD     		pop	{r4, r5, r6, pc}
  84:../src/Pedal.cpp **** 
 303              		.loc 1 84 1 view .LVU72
 304              		.cfi_endproc
 305              	.LFE5668:
 307              		.section	.text._ZN3amc5Pedal9AudioRateEv,"ax",%progbits
 308              		.align	1
 309              		.p2align 2,,3
 310              		.global	_ZN3amc5Pedal9AudioRateEv
 311              		.syntax unified
 312              		.thumb
 313              		.thumb_func
 315              	_ZN3amc5Pedal9AudioRateEv:
 316              	.LVL23:
 317              	.LFB5669:
  87:../src/Pedal.cpp **** 	return seed.AudioSampleRate();
 318              		.loc 1 87 1 is_stmt 1 view -0
 319              		.cfi_startproc
 320              		@ args = 0, pretend = 0, frame = 0
 321              		@ frame_needed = 0, uses_anonymous_args = 0
 322              		@ link register save eliminated.
  88:../src/Pedal.cpp **** }
 323              		.loc 1 88 2 view .LVU74
  88:../src/Pedal.cpp **** }
 324              		.loc 1 88 29 is_stmt 0 view .LVU75
 325 0000 FFF7FEBF 		b	_ZN5daisy9DaisySeed15AudioSampleRateEv
 326              	.LVL24:
  88:../src/Pedal.cpp **** }
 327              		.loc 1 88 29 view .LVU76
 328              		.cfi_endproc
 329              	.LFE5669:
 331              		.section	.text._ZN3amc5Pedal12SetBlockSizeEj,"ax",%progbits
 332              		.align	1
 333              		.p2align 2,,3
 334              		.global	_ZN3amc5Pedal12SetBlockSizeEj
 335              		.syntax unified
 336              		.thumb
 337              		.thumb_func
 339              	_ZN3amc5Pedal12SetBlockSizeEj:
 340              	.LVL25:
 341              	.LFB5670:
  92:../src/Pedal.cpp **** 	seed.SetAudioBlockSize(size);
 342              		.loc 1 92 1 is_stmt 1 view -0
 343              		.cfi_startproc
 344              		@ args = 0, pretend = 0, frame = 0
 345              		@ frame_needed = 0, uses_anonymous_args = 0
  93:../src/Pedal.cpp **** 	SetHidUpdateRates();
 346              		.loc 1 93 2 view .LVU78
  92:../src/Pedal.cpp **** 	seed.SetAudioBlockSize(size);
 347              		.loc 1 92 1 is_stmt 0 view .LVU79
 348 0000 70B5     		push	{r4, r5, r6, lr}
 349              		.cfi_def_cfa_offset 16
ARM GAS  /var/folders/83/vwtnzcdn1v99b_lf0k0gsjzr0000gn/T//ccKcGgHc.s 			page 12


 350              		.cfi_offset 4, -16
 351              		.cfi_offset 5, -12
 352              		.cfi_offset 6, -8
 353              		.cfi_offset 14, -4
  92:../src/Pedal.cpp **** 	seed.SetAudioBlockSize(size);
 354              		.loc 1 92 1 view .LVU80
 355 0002 0546     		mov	r5, r0
  93:../src/Pedal.cpp **** 	SetHidUpdateRates();
 356              		.loc 1 93 24 view .LVU81
 357 0004 FFF7FEFF 		bl	_ZN5daisy9DaisySeed17SetAudioBlockSizeEj
 358              	.LVL26:
  94:../src/Pedal.cpp **** }
 359              		.loc 1 94 2 is_stmt 1 view .LVU82
 360              	.LBB119:
 361              	.LBI119:
 205:../src/Pedal.cpp **** {
 362              		.loc 1 205 6 view .LVU83
 363              	.LBE119:
 207:../src/Pedal.cpp **** 		knobs[i].SetSampleRate(CallbackRate());
 364              		.loc 1 207 2 view .LVU84
 365              	.LBB136:
 366              	.LBB120:
 207:../src/Pedal.cpp **** 		knobs[i].SetSampleRate(CallbackRate());
 367              		.loc 1 207 23 view .LVU85
 368 0008 05F25444 		addw	r4, r5, #1108
 369 000c 05F21456 		addw	r6, r5, #1300
 370              	.LVL27:
 371              	.L15:
 208:../src/Pedal.cpp **** 
 372              		.loc 1 208 3 view .LVU86
 373              	.LBB121:
 374              	.LBI121:
 102:../src/Pedal.cpp **** {
 375              		.loc 1 102 7 view .LVU87
 376              	.LBB122:
 104:../src/Pedal.cpp **** }
 377              		.loc 1 104 2 view .LVU88
 104:../src/Pedal.cpp **** }
 378              		.loc 1 104 31 is_stmt 0 view .LVU89
 379 0010 2846     		mov	r0, r5
 380 0012 FFF7FEFF 		bl	_ZNK5daisy9DaisySeed17AudioCallbackRateEv
 381              	.LVL28:
 104:../src/Pedal.cpp **** }
 382              		.loc 1 104 31 view .LVU90
 383              	.LBE122:
 384              	.LBE121:
 208:../src/Pedal.cpp **** 
 385              		.loc 1 208 25 view .LVU91
 386 0016 2046     		mov	r0, r4
 207:../src/Pedal.cpp **** 		knobs[i].SetSampleRate(CallbackRate());
 387              		.loc 1 207 23 view .LVU92
 388 0018 2034     		adds	r4, r4, #32
 208:../src/Pedal.cpp **** 
 389              		.loc 1 208 25 view .LVU93
 390 001a FFF7FEFF 		bl	_ZN5daisy13AnalogControl13SetSampleRateEf
 391              	.LVL29:
 207:../src/Pedal.cpp **** 		knobs[i].SetSampleRate(CallbackRate());
ARM GAS  /var/folders/83/vwtnzcdn1v99b_lf0k0gsjzr0000gn/T//ccKcGgHc.s 			page 13


 392              		.loc 1 207 2 is_stmt 1 view .LVU94
 207:../src/Pedal.cpp **** 		knobs[i].SetSampleRate(CallbackRate());
 393              		.loc 1 207 23 view .LVU95
 394 001e A642     		cmp	r6, r4
 395 0020 F6D1     		bne	.L15
 396              	.LVL30:
 207:../src/Pedal.cpp **** 		knobs[i].SetSampleRate(CallbackRate());
 397              		.loc 1 207 23 is_stmt 0 view .LVU96
 398              	.LBE120:
 399              	.LBB123:
 210:../src/Pedal.cpp **** 		leds[i].SetSampleRate(CallbackRate());
 400              		.loc 1 210 23 is_stmt 1 view .LVU97
 401              		.loc 1 211 3 view .LVU98
 402              	.LBB124:
 403              	.LBI124:
 102:../src/Pedal.cpp **** {
 404              		.loc 1 102 7 view .LVU99
 405              	.LBB125:
 104:../src/Pedal.cpp **** }
 406              		.loc 1 104 2 view .LVU100
 104:../src/Pedal.cpp **** }
 407              		.loc 1 104 31 is_stmt 0 view .LVU101
 408 0022 2846     		mov	r0, r5
 409 0024 FFF7FEFF 		bl	_ZNK5daisy9DaisySeed17AudioCallbackRateEv
 410              	.LVL31:
 104:../src/Pedal.cpp **** }
 411              		.loc 1 104 31 view .LVU102
 412              	.LBE125:
 413              	.LBE124:
 414              	.LBB128:
 415              	.LBI128:
 416              		.loc 2 51 17 is_stmt 1 view .LVU103
 417              	.LBB129:
 418              		.loc 2 51 52 view .LVU104
 419              		.loc 2 51 64 is_stmt 0 view .LVU105
 420 0028 05F26C53 		addw	r3, r5, #1388
 421              	.LBE129:
 422              	.LBE128:
 423              	.LBB132:
 424              	.LBB126:
 104:../src/Pedal.cpp **** }
 425              		.loc 1 104 31 view .LVU106
 426 002c 2846     		mov	r0, r5
 427              	.LBE126:
 428              	.LBE132:
 429              	.LBB133:
 430              	.LBB130:
 431              		.loc 2 51 64 view .LVU107
 432 002e 05F5B165 		add	r5, r5, #1416
 433              	.LVL32:
 434              		.loc 2 51 64 view .LVU108
 435 0032 83ED000A 		vstr.32	s0, [r3]
 436              	.LVL33:
 437              		.loc 2 51 64 view .LVU109
 438              	.LBE130:
 439              	.LBE133:
 210:../src/Pedal.cpp **** 		leds[i].SetSampleRate(CallbackRate());
ARM GAS  /var/folders/83/vwtnzcdn1v99b_lf0k0gsjzr0000gn/T//ccKcGgHc.s 			page 14


 440              		.loc 1 210 2 is_stmt 1 view .LVU110
 210:../src/Pedal.cpp **** 		leds[i].SetSampleRate(CallbackRate());
 441              		.loc 1 210 23 view .LVU111
 442              		.loc 1 211 3 view .LVU112
 443              	.LBB134:
 102:../src/Pedal.cpp **** {
 444              		.loc 1 102 7 view .LVU113
 445              	.LBB127:
 104:../src/Pedal.cpp **** }
 446              		.loc 1 104 2 view .LVU114
 104:../src/Pedal.cpp **** }
 447              		.loc 1 104 31 is_stmt 0 view .LVU115
 448 0036 FFF7FEFF 		bl	_ZNK5daisy9DaisySeed17AudioCallbackRateEv
 449              	.LVL34:
 104:../src/Pedal.cpp **** }
 450              		.loc 1 104 31 view .LVU116
 451              	.LBE127:
 452              	.LBE134:
 453              	.LBB135:
 454              		.loc 2 51 17 is_stmt 1 view .LVU117
 455              	.LBB131:
 456              		.loc 2 51 52 view .LVU118
 457              		.loc 2 51 64 is_stmt 0 view .LVU119
 458 003a 85ED000A 		vstr.32	s0, [r5]
 459              	.LVL35:
 460              		.loc 2 51 64 view .LVU120
 461              	.LBE131:
 462              	.LBE135:
 210:../src/Pedal.cpp **** 		leds[i].SetSampleRate(CallbackRate());
 463              		.loc 1 210 2 is_stmt 1 view .LVU121
 210:../src/Pedal.cpp **** 		leds[i].SetSampleRate(CallbackRate());
 464              		.loc 1 210 23 view .LVU122
 210:../src/Pedal.cpp **** 		leds[i].SetSampleRate(CallbackRate());
 465              		.loc 1 210 23 is_stmt 0 view .LVU123
 466              	.LBE123:
 467              	.LBE136:
  95:../src/Pedal.cpp **** 
 468              		.loc 1 95 1 view .LVU124
 469 003e 70BD     		pop	{r4, r5, r6, pc}
  95:../src/Pedal.cpp **** 
 470              		.loc 1 95 1 view .LVU125
 471              		.cfi_endproc
 472              	.LFE5670:
 474              		.section	.text._ZN3amc5Pedal9BlockSizeEv,"ax",%progbits
 475              		.align	1
 476              		.p2align 2,,3
 477              		.global	_ZN3amc5Pedal9BlockSizeEv
 478              		.syntax unified
 479              		.thumb
 480              		.thumb_func
 482              	_ZN3amc5Pedal9BlockSizeEv:
 483              	.LVL36:
 484              	.LFB5671:
  98:../src/Pedal.cpp **** 	return seed.AudioBlockSize();
 485              		.loc 1 98 1 is_stmt 1 view -0
 486              		.cfi_startproc
 487              		@ args = 0, pretend = 0, frame = 0
ARM GAS  /var/folders/83/vwtnzcdn1v99b_lf0k0gsjzr0000gn/T//ccKcGgHc.s 			page 15


 488              		@ frame_needed = 0, uses_anonymous_args = 0
 489              		@ link register save eliminated.
  99:../src/Pedal.cpp **** }
 490              		.loc 1 99 2 view .LVU127
  99:../src/Pedal.cpp **** }
 491              		.loc 1 99 28 is_stmt 0 view .LVU128
 492 0000 FFF7FEBF 		b	_ZN5daisy9DaisySeed14AudioBlockSizeEv
 493              	.LVL37:
  99:../src/Pedal.cpp **** }
 494              		.loc 1 99 28 view .LVU129
 495              		.cfi_endproc
 496              	.LFE5671:
 498              		.section	.text._ZN3amc5Pedal12CallbackRateEv,"ax",%progbits
 499              		.align	1
 500              		.p2align 2,,3
 501              		.global	_ZN3amc5Pedal12CallbackRateEv
 502              		.syntax unified
 503              		.thumb
 504              		.thumb_func
 506              	_ZN3amc5Pedal12CallbackRateEv:
 507              	.LVL38:
 508              	.LFB5672:
 103:../src/Pedal.cpp **** 	return seed.AudioCallbackRate();
 509              		.loc 1 103 1 is_stmt 1 view -0
 510              		.cfi_startproc
 511              		@ args = 0, pretend = 0, frame = 0
 512              		@ frame_needed = 0, uses_anonymous_args = 0
 513              		@ link register save eliminated.
 104:../src/Pedal.cpp **** }
 514              		.loc 1 104 2 view .LVU131
 104:../src/Pedal.cpp **** }
 515              		.loc 1 104 31 is_stmt 0 view .LVU132
 516 0000 FFF7FEBF 		b	_ZNK5daisy9DaisySeed17AudioCallbackRateEv
 517              	.LVL39:
 104:../src/Pedal.cpp **** }
 518              		.loc 1 104 31 view .LVU133
 519              		.cfi_endproc
 520              	.LFE5672:
 522              		.section	.text._ZN3amc5Pedal8StartAdcEv,"ax",%progbits
 523              		.align	1
 524              		.p2align 2,,3
 525              		.global	_ZN3amc5Pedal8StartAdcEv
 526              		.syntax unified
 527              		.thumb
 528              		.thumb_func
 530              	_ZN3amc5Pedal8StartAdcEv:
 531              	.LVL40:
 532              	.LFB5673:
 107:../src/Pedal.cpp **** void Pedal::StopAdc() { seed.adc.Stop(); } // stop transfering data
 533              		.loc 1 107 24 is_stmt 1 view -0
 534              		.cfi_startproc
 535              		@ args = 0, pretend = 0, frame = 0
 536              		@ frame_needed = 0, uses_anonymous_args = 0
 537              		@ link register save eliminated.
 107:../src/Pedal.cpp **** void Pedal::StopAdc() { seed.adc.Stop(); } // stop transfering data
 538              		.loc 1 107 26 view .LVU135
 107:../src/Pedal.cpp **** void Pedal::StopAdc() { seed.adc.Stop(); } // stop transfering data
ARM GAS  /var/folders/83/vwtnzcdn1v99b_lf0k0gsjzr0000gn/T//ccKcGgHc.s 			page 16


 539              		.loc 1 107 40 is_stmt 0 view .LVU136
 540 0000 1830     		adds	r0, r0, #24
 541              	.LVL41:
 107:../src/Pedal.cpp **** void Pedal::StopAdc() { seed.adc.Stop(); } // stop transfering data
 542              		.loc 1 107 40 view .LVU137
 543 0002 FFF7FEBF 		b	_ZN5daisy9AdcHandle5StartEv
 544              	.LVL42:
 107:../src/Pedal.cpp **** void Pedal::StopAdc() { seed.adc.Stop(); } // stop transfering data
 545              		.loc 1 107 40 view .LVU138
 546              		.cfi_endproc
 547              	.LFE5673:
 549 0006 00BF     		.section	.text._ZN3amc5Pedal7StopAdcEv,"ax",%progbits
 550              		.align	1
 551              		.p2align 2,,3
 552              		.global	_ZN3amc5Pedal7StopAdcEv
 553              		.syntax unified
 554              		.thumb
 555              		.thumb_func
 557              	_ZN3amc5Pedal7StopAdcEv:
 558              	.LVL43:
 559              	.LFB5674:
 108:../src/Pedal.cpp **** 
 560              		.loc 1 108 23 is_stmt 1 view -0
 561              		.cfi_startproc
 562              		@ args = 0, pretend = 0, frame = 0
 563              		@ frame_needed = 0, uses_anonymous_args = 0
 564              		@ link register save eliminated.
 108:../src/Pedal.cpp **** 
 565              		.loc 1 108 25 view .LVU140
 108:../src/Pedal.cpp **** 
 566              		.loc 1 108 38 is_stmt 0 view .LVU141
 567 0000 1830     		adds	r0, r0, #24
 568              	.LVL44:
 108:../src/Pedal.cpp **** 
 569              		.loc 1 108 38 view .LVU142
 570 0002 FFF7FEBF 		b	_ZN5daisy9AdcHandle4StopEv
 571              	.LVL45:
 108:../src/Pedal.cpp **** 
 572              		.loc 1 108 38 view .LVU143
 573              		.cfi_endproc
 574              	.LFE5674:
 576 0006 00BF     		.section	.text._ZN3amc5Pedal13ProcessAnalogEv,"ax",%progbits
 577              		.align	1
 578              		.p2align 2,,3
 579              		.global	_ZN3amc5Pedal13ProcessAnalogEv
 580              		.syntax unified
 581              		.thumb
 582              		.thumb_func
 584              	_ZN3amc5Pedal13ProcessAnalogEv:
 585              	.LVL46:
 586              	.LFB5675:
 111:../src/Pedal.cpp **** 	for (size_t i = 0; i < KnobI::KN; i++)
 587              		.loc 1 111 1 is_stmt 1 view -0
 588              		.cfi_startproc
 589              		@ args = 0, pretend = 0, frame = 0
 590              		@ frame_needed = 0, uses_anonymous_args = 0
 112:../src/Pedal.cpp **** 		knobs[i].Process();
ARM GAS  /var/folders/83/vwtnzcdn1v99b_lf0k0gsjzr0000gn/T//ccKcGgHc.s 			page 17


 591              		.loc 1 112 2 view .LVU145
 592              	.LBB137:
 112:../src/Pedal.cpp **** 		knobs[i].Process();
 593              		.loc 1 112 23 view .LVU146
 594              	.LBE137:
 111:../src/Pedal.cpp **** 	for (size_t i = 0; i < KnobI::KN; i++)
 595              		.loc 1 111 1 is_stmt 0 view .LVU147
 596 0000 38B5     		push	{r3, r4, r5, lr}
 597              		.cfi_def_cfa_offset 16
 598              		.cfi_offset 3, -16
 599              		.cfi_offset 4, -12
 600              		.cfi_offset 5, -8
 601              		.cfi_offset 14, -4
 602 0002 00F25444 		addw	r4, r0, #1108
 603 0006 00F21455 		addw	r5, r0, #1300
 604              	.LVL47:
 605              	.L24:
 606              	.LBB138:
 113:../src/Pedal.cpp **** }
 607              		.loc 1 113 3 is_stmt 1 discriminator 2 view .LVU148
 113:../src/Pedal.cpp **** }
 608              		.loc 1 113 19 is_stmt 0 discriminator 2 view .LVU149
 609 000a 2046     		mov	r0, r4
 112:../src/Pedal.cpp **** 		knobs[i].Process();
 610              		.loc 1 112 23 discriminator 2 view .LVU150
 611 000c 2034     		adds	r4, r4, #32
 113:../src/Pedal.cpp **** }
 612              		.loc 1 113 19 discriminator 2 view .LVU151
 613 000e FFF7FEFF 		bl	_ZN5daisy13AnalogControl7ProcessEv
 614              	.LVL48:
 112:../src/Pedal.cpp **** 		knobs[i].Process();
 615              		.loc 1 112 2 is_stmt 1 discriminator 2 view .LVU152
 112:../src/Pedal.cpp **** 		knobs[i].Process();
 616              		.loc 1 112 23 discriminator 2 view .LVU153
 617 0012 AC42     		cmp	r4, r5
 618 0014 F9D1     		bne	.L24
 619              	.LBE138:
 114:../src/Pedal.cpp **** 
 620              		.loc 1 114 1 is_stmt 0 view .LVU154
 621 0016 38BD     		pop	{r3, r4, r5, pc}
 114:../src/Pedal.cpp **** 
 622              		.loc 1 114 1 view .LVU155
 623              		.cfi_endproc
 624              	.LFE5675:
 626              		.section	.text._ZN3amc5Pedal14ProcessDigitalEv,"ax",%progbits
 627              		.align	1
 628              		.p2align 2,,3
 629              		.global	_ZN3amc5Pedal14ProcessDigitalEv
 630              		.syntax unified
 631              		.thumb
 632              		.thumb_func
 634              	_ZN3amc5Pedal14ProcessDigitalEv:
 635              	.LVL49:
 636              	.LFB5676:
 117:../src/Pedal.cpp **** 	for (size_t i = 0; i < SwitchI::SN; i++)
 637              		.loc 1 117 1 is_stmt 1 view -0
 638              		.cfi_startproc
ARM GAS  /var/folders/83/vwtnzcdn1v99b_lf0k0gsjzr0000gn/T//ccKcGgHc.s 			page 18


 639              		@ args = 0, pretend = 0, frame = 0
 640              		@ frame_needed = 0, uses_anonymous_args = 0
 118:../src/Pedal.cpp **** 		switches[i].Debounce();
 641              		.loc 1 118 2 view .LVU157
 642              	.LBB139:
 118:../src/Pedal.cpp **** 		switches[i].Debounce();
 643              		.loc 1 118 23 view .LVU158
 119:../src/Pedal.cpp **** 
 644              		.loc 1 119 3 view .LVU159
 645              	.LBE139:
 117:../src/Pedal.cpp **** 	for (size_t i = 0; i < SwitchI::SN; i++)
 646              		.loc 1 117 1 is_stmt 0 view .LVU160
 647 0000 10B5     		push	{r4, lr}
 648              		.cfi_def_cfa_offset 8
 649              		.cfi_offset 4, -8
 650              		.cfi_offset 14, -4
 117:../src/Pedal.cpp **** 	for (size_t i = 0; i < SwitchI::SN; i++)
 651              		.loc 1 117 1 view .LVU161
 652 0002 0446     		mov	r4, r0
 653              	.LBB140:
 119:../src/Pedal.cpp **** 
 654              		.loc 1 119 23 view .LVU162
 655 0004 00F23C50 		addw	r0, r0, #1340
 656              	.LVL50:
 119:../src/Pedal.cpp **** 
 657              		.loc 1 119 23 view .LVU163
 658 0008 FFF7FEFF 		bl	_ZN5daisy6Switch8DebounceEv
 659              	.LVL51:
 118:../src/Pedal.cpp **** 		switches[i].Debounce();
 660              		.loc 1 118 2 is_stmt 1 view .LVU164
 118:../src/Pedal.cpp **** 		switches[i].Debounce();
 661              		.loc 1 118 23 view .LVU165
 119:../src/Pedal.cpp **** 
 662              		.loc 1 119 3 view .LVU166
 119:../src/Pedal.cpp **** 
 663              		.loc 1 119 23 is_stmt 0 view .LVU167
 664 000c 04F24C50 		addw	r0, r4, #1356
 665 0010 FFF7FEFF 		bl	_ZN5daisy6Switch8DebounceEv
 666              	.LVL52:
 118:../src/Pedal.cpp **** 		switches[i].Debounce();
 667              		.loc 1 118 2 is_stmt 1 view .LVU168
 118:../src/Pedal.cpp **** 		switches[i].Debounce();
 668              		.loc 1 118 23 view .LVU169
 118:../src/Pedal.cpp **** 		switches[i].Debounce();
 669              		.loc 1 118 23 is_stmt 0 view .LVU170
 670              	.LBE140:
 671              	.LBB141:
 121:../src/Pedal.cpp **** 		encoders[i].Debounce();
 672              		.loc 1 121 23 is_stmt 1 view .LVU171
 122:../src/Pedal.cpp **** }
 673              		.loc 1 122 3 view .LVU172
 122:../src/Pedal.cpp **** }
 674              		.loc 1 122 23 is_stmt 0 view .LVU173
 675 0014 04F21450 		addw	r0, r4, #1300
 676              	.LBE141:
 123:../src/Pedal.cpp **** 
 677              		.loc 1 123 1 view .LVU174
ARM GAS  /var/folders/83/vwtnzcdn1v99b_lf0k0gsjzr0000gn/T//ccKcGgHc.s 			page 19


 678 0018 BDE81040 		pop	{r4, lr}
 679              		.cfi_restore 14
 680              		.cfi_restore 4
 681              		.cfi_def_cfa_offset 0
 682              	.LVL53:
 683              	.LBB142:
 122:../src/Pedal.cpp **** }
 684              		.loc 1 122 23 view .LVU175
 685 001c FFF7FEBF 		b	_ZN5daisy7Encoder8DebounceEv
 686              	.LVL54:
 122:../src/Pedal.cpp **** }
 687              		.loc 1 122 23 view .LVU176
 688              	.LBE142:
 689              		.cfi_endproc
 690              	.LFE5676:
 692              		.section	.text._ZN3amc5Pedal7GetKnobENS0_5KnobIE,"ax",%progbits
 693              		.align	1
 694              		.p2align 2,,3
 695              		.global	_ZN3amc5Pedal7GetKnobENS0_5KnobIE
 696              		.syntax unified
 697              		.thumb
 698              		.thumb_func
 700              	_ZN3amc5Pedal7GetKnobENS0_5KnobIE:
 701              	.LVL55:
 702              	.LFB5677:
 126:../src/Pedal.cpp **** 	size_t id = k < KnobI::KN ? k : 0;
 703              		.loc 1 126 1 is_stmt 1 view -0
 704              		.cfi_startproc
 705              		@ args = 0, pretend = 0, frame = 0
 706              		@ frame_needed = 0, uses_anonymous_args = 0
 707              		@ link register save eliminated.
 127:../src/Pedal.cpp **** 	return knobs[id].Value();
 708              		.loc 1 127 2 view .LVU178
 127:../src/Pedal.cpp **** 	return knobs[id].Value();
 709              		.loc 1 127 28 is_stmt 0 view .LVU179
 710 0000 0629     		cmp	r1, #6
 711 0002 28BF     		it	cs
 712 0004 0021     		movcs	r1, #0
 713              	.LVL56:
 128:../src/Pedal.cpp **** }
 714              		.loc 1 128 2 is_stmt 1 view .LVU180
 715              	.LBB143:
 716              	.LBI143:
 717              		.file 3 "/Users/amc/git/libDaisy/src/hid/ctrl.h"
   1:/Users/amc/git/libDaisy/src/hid/ctrl.h **** #pragma once
   2:/Users/amc/git/libDaisy/src/hid/ctrl.h **** #ifndef DSY_KNOB_H
   3:/Users/amc/git/libDaisy/src/hid/ctrl.h **** #define DSY_KNOB_H /**< & */
   4:/Users/amc/git/libDaisy/src/hid/ctrl.h **** #include <stdint.h>
   5:/Users/amc/git/libDaisy/src/hid/ctrl.h **** 
   6:/Users/amc/git/libDaisy/src/hid/ctrl.h **** #ifdef __cplusplus
   7:/Users/amc/git/libDaisy/src/hid/ctrl.h **** namespace daisy
   8:/Users/amc/git/libDaisy/src/hid/ctrl.h **** {
   9:/Users/amc/git/libDaisy/src/hid/ctrl.h **** /**
  10:/Users/amc/git/libDaisy/src/hid/ctrl.h ****     @brief Hardware Interface for control inputs \n 
  11:/Users/amc/git/libDaisy/src/hid/ctrl.h ****     Primarily designed for ADC input controls such as \n 
  12:/Users/amc/git/libDaisy/src/hid/ctrl.h ****     potentiometers, and control voltage. \n 
  13:/Users/amc/git/libDaisy/src/hid/ctrl.h ****     @author Stephen Hensley
ARM GAS  /var/folders/83/vwtnzcdn1v99b_lf0k0gsjzr0000gn/T//ccKcGgHc.s 			page 20


  14:/Users/amc/git/libDaisy/src/hid/ctrl.h ****     @date November 2019
  15:/Users/amc/git/libDaisy/src/hid/ctrl.h ****     @ingroup controls
  16:/Users/amc/git/libDaisy/src/hid/ctrl.h **** */
  17:/Users/amc/git/libDaisy/src/hid/ctrl.h **** class AnalogControl
  18:/Users/amc/git/libDaisy/src/hid/ctrl.h **** {
  19:/Users/amc/git/libDaisy/src/hid/ctrl.h ****   public:
  20:/Users/amc/git/libDaisy/src/hid/ctrl.h ****     /** Constructor */
  21:/Users/amc/git/libDaisy/src/hid/ctrl.h ****     AnalogControl() {}
  22:/Users/amc/git/libDaisy/src/hid/ctrl.h ****     /** destructor */
  23:/Users/amc/git/libDaisy/src/hid/ctrl.h ****     ~AnalogControl() {}
  24:/Users/amc/git/libDaisy/src/hid/ctrl.h **** 
  25:/Users/amc/git/libDaisy/src/hid/ctrl.h ****     /** 
  26:/Users/amc/git/libDaisy/src/hid/ctrl.h ****     Initializes the control
  27:/Users/amc/git/libDaisy/src/hid/ctrl.h ****     \param *adcptr is a pointer to the raw adc read value -- This can be acquired with dsy_adc_get_
  28:/Users/amc/git/libDaisy/src/hid/ctrl.h ****     \param sr is the samplerate in Hz that the Process function will be called at.
  29:/Users/amc/git/libDaisy/src/hid/ctrl.h ****     \param flip determines whether the input is flipped (i.e. 1.f - input) or not before being proc
  30:/Users/amc/git/libDaisy/src/hid/ctrl.h ****     \param invert determines whether the input is inverted (i.e. -1.f * input) or note before being
  31:/Users/amc/git/libDaisy/src/hid/ctrl.h ****     \param slew_seconds is the slew time in seconds that it takes for the control to change to a ne
  32:/Users/amc/git/libDaisy/src/hid/ctrl.h ****     */
  33:/Users/amc/git/libDaisy/src/hid/ctrl.h ****     void Init(uint16_t *adcptr,
  34:/Users/amc/git/libDaisy/src/hid/ctrl.h ****               float     sr,
  35:/Users/amc/git/libDaisy/src/hid/ctrl.h ****               bool      flip         = false,
  36:/Users/amc/git/libDaisy/src/hid/ctrl.h ****               bool      invert       = false,
  37:/Users/amc/git/libDaisy/src/hid/ctrl.h ****               float     slew_seconds = 0.002f);
  38:/Users/amc/git/libDaisy/src/hid/ctrl.h **** 
  39:/Users/amc/git/libDaisy/src/hid/ctrl.h ****     /** 
  40:/Users/amc/git/libDaisy/src/hid/ctrl.h ****     This Initializes the AnalogControl for a -5V to 5V inverted input
  41:/Users/amc/git/libDaisy/src/hid/ctrl.h ****     All of the Init details are the same otherwise
  42:/Users/amc/git/libDaisy/src/hid/ctrl.h ****     \param *adcptr Pointer to analog digital converter
  43:/Users/amc/git/libDaisy/src/hid/ctrl.h ****     \param sr Audio engine sample rate
  44:/Users/amc/git/libDaisy/src/hid/ctrl.h ****     */
  45:/Users/amc/git/libDaisy/src/hid/ctrl.h ****     void InitBipolarCv(uint16_t *adcptr, float sr);
  46:/Users/amc/git/libDaisy/src/hid/ctrl.h **** 
  47:/Users/amc/git/libDaisy/src/hid/ctrl.h ****     /** 
  48:/Users/amc/git/libDaisy/src/hid/ctrl.h ****     Filters, and transforms a raw ADC read into a normalized range.
  49:/Users/amc/git/libDaisy/src/hid/ctrl.h ****     this should be called at the rate of specified by samplerate at Init time.   
  50:/Users/amc/git/libDaisy/src/hid/ctrl.h ****     Default Initializations will return 0.0 -> 1.0
  51:/Users/amc/git/libDaisy/src/hid/ctrl.h ****     Bi-polar CV inputs will return -1.0 -> 1.0
  52:/Users/amc/git/libDaisy/src/hid/ctrl.h ****     */
  53:/Users/amc/git/libDaisy/src/hid/ctrl.h ****     float Process();
  54:/Users/amc/git/libDaisy/src/hid/ctrl.h **** 
  55:/Users/amc/git/libDaisy/src/hid/ctrl.h ****     /** Returns the current stored value, without reprocessing */
  56:/Users/amc/git/libDaisy/src/hid/ctrl.h ****     inline float Value() const { return val_; }
 718              		.loc 3 56 18 view .LVU181
 719              	.LBB144:
 720              		.loc 3 56 34 view .LVU182
 721              		.loc 3 56 41 is_stmt 0 view .LVU183
 722 0006 00EB4111 		add	r1, r0, r1, lsl #5
 723 000a 01F58C61 		add	r1, r1, #1120
 724              	.LBE144:
 725              	.LBE143:
 129:../src/Pedal.cpp **** 
 726              		.loc 1 129 1 view .LVU184
 727 000e 91ED000A 		vldr.32	s0, [r1]
 728 0012 7047     		bx	lr
 729              		.cfi_endproc
 730              	.LFE5677:
ARM GAS  /var/folders/83/vwtnzcdn1v99b_lf0k0gsjzr0000gn/T//ccKcGgHc.s 			page 21


 732              		.section	.text._ZN3amc5Pedal9SetBypassEb,"ax",%progbits
 733              		.align	1
 734              		.p2align 2,,3
 735              		.global	_ZN3amc5Pedal9SetBypassEb
 736              		.syntax unified
 737              		.thumb
 738              		.thumb_func
 740              	_ZN3amc5Pedal9SetBypassEb:
 741              	.LVL57:
 742              	.LFB5678:
 132:../src/Pedal.cpp **** 	audioBypass = enabled;
 743              		.loc 1 132 1 is_stmt 1 view -0
 744              		.cfi_startproc
 745              		@ args = 0, pretend = 0, frame = 0
 746              		@ frame_needed = 0, uses_anonymous_args = 0
 747              		@ link register save eliminated.
 133:../src/Pedal.cpp **** 	audioBypassTrigger.Write(!audioBypass);
 748              		.loc 1 133 2 view .LVU186
 132:../src/Pedal.cpp **** 	audioBypass = enabled;
 749              		.loc 1 132 1 is_stmt 0 view .LVU187
 750 0000 0246     		mov	r2, r0
 751 0002 0B46     		mov	r3, r1
 134:../src/Pedal.cpp **** }
 752              		.loc 1 134 26 view .LVU188
 753 0004 49F2F460 		movw	r0, #38644
 754              	.LVL58:
 134:../src/Pedal.cpp **** }
 755              		.loc 1 134 26 view .LVU189
 756 0008 81F00101 		eor	r1, r1, #1
 757              	.LVL59:
 133:../src/Pedal.cpp **** 	audioBypassTrigger.Write(!audioBypass);
 758              		.loc 1 133 14 view .LVU190
 759 000c 02F5104C 		add	ip, r2, #36864
 134:../src/Pedal.cpp **** }
 760              		.loc 1 134 26 view .LVU191
 761 0010 1044     		add	r0, r0, r2
 133:../src/Pedal.cpp **** 	audioBypassTrigger.Write(!audioBypass);
 762              		.loc 1 133 14 view .LVU192
 763 0012 8CF80837 		strb	r3, [ip, #1800]
 134:../src/Pedal.cpp **** }
 764              		.loc 1 134 2 is_stmt 1 view .LVU193
 134:../src/Pedal.cpp **** }
 765              		.loc 1 134 26 is_stmt 0 view .LVU194
 766 0016 FFF7FEBF 		b	_ZN5daisy4GPIO5WriteEb
 767              	.LVL60:
 134:../src/Pedal.cpp **** }
 768              		.loc 1 134 26 view .LVU195
 769              		.cfi_endproc
 770              	.LFE5678:
 772 001a 00BF     		.section	.text._ZN3amc5Pedal7SetMuteEb,"ax",%progbits
 773              		.align	1
 774              		.p2align 2,,3
 775              		.global	_ZN3amc5Pedal7SetMuteEb
 776              		.syntax unified
 777              		.thumb
 778              		.thumb_func
 780              	_ZN3amc5Pedal7SetMuteEb:
ARM GAS  /var/folders/83/vwtnzcdn1v99b_lf0k0gsjzr0000gn/T//ccKcGgHc.s 			page 22


 781              	.LVL61:
 782              	.LFB5679:
 138:../src/Pedal.cpp **** 	audioMute = enabled;
 783              		.loc 1 138 1 is_stmt 1 view -0
 784              		.cfi_startproc
 785              		@ args = 0, pretend = 0, frame = 0
 786              		@ frame_needed = 0, uses_anonymous_args = 0
 787              		@ link register save eliminated.
 139:../src/Pedal.cpp **** 	audioMuteTrigger.Write(audioMute);
 788              		.loc 1 139 2 view .LVU197
 138:../src/Pedal.cpp **** 	audioMute = enabled;
 789              		.loc 1 138 1 is_stmt 0 view .LVU198
 790 0000 0346     		mov	r3, r0
 140:../src/Pedal.cpp **** }
 791              		.loc 1 140 24 view .LVU199
 792 0002 49F20C70 		movw	r0, #38668
 793              	.LVL62:
 139:../src/Pedal.cpp **** 	audioMuteTrigger.Write(audioMute);
 794              		.loc 1 139 12 view .LVU200
 795 0006 03F51042 		add	r2, r3, #36864
 140:../src/Pedal.cpp **** }
 796              		.loc 1 140 24 view .LVU201
 797 000a 1844     		add	r0, r0, r3
 139:../src/Pedal.cpp **** 	audioMuteTrigger.Write(audioMute);
 798              		.loc 1 139 12 view .LVU202
 799 000c 82F82017 		strb	r1, [r2, #1824]
 140:../src/Pedal.cpp **** }
 800              		.loc 1 140 2 is_stmt 1 view .LVU203
 140:../src/Pedal.cpp **** }
 801              		.loc 1 140 24 is_stmt 0 view .LVU204
 802 0010 FFF7FEBF 		b	_ZN5daisy4GPIO5WriteEb
 803              	.LVL63:
 140:../src/Pedal.cpp **** }
 804              		.loc 1 140 24 view .LVU205
 805              		.cfi_endproc
 806              	.LFE5679:
 808              		.section	.text._ZN3amc5Pedal9ClearLedsEv,"ax",%progbits
 809              		.align	1
 810              		.p2align 2,,3
 811              		.global	_ZN3amc5Pedal9ClearLedsEv
 812              		.syntax unified
 813              		.thumb
 814              		.thumb_func
 816              	_ZN3amc5Pedal9ClearLedsEv:
 817              	.LVL64:
 818              	.LFB5680:
 144:../src/Pedal.cpp **** 	for (size_t i = 0; i < LedI::LN; i++)
 819              		.loc 1 144 1 is_stmt 1 view -0
 820              		.cfi_startproc
 821              		@ args = 0, pretend = 0, frame = 8
 822              		@ frame_needed = 0, uses_anonymous_args = 0
 145:../src/Pedal.cpp **** 		SetLed(static_cast<LedI>(i), 0.0f);
 823              		.loc 1 145 2 view .LVU207
 824              	.LBB145:
 145:../src/Pedal.cpp **** 		SetLed(static_cast<LedI>(i), 0.0f);
 825              		.loc 1 145 23 view .LVU208
 146:../src/Pedal.cpp **** }
ARM GAS  /var/folders/83/vwtnzcdn1v99b_lf0k0gsjzr0000gn/T//ccKcGgHc.s 			page 23


 826              		.loc 1 146 3 view .LVU209
 827              	.LBE145:
 144:../src/Pedal.cpp **** 	for (size_t i = 0; i < LedI::LN; i++)
 828              		.loc 1 144 1 is_stmt 0 view .LVU210
 829 0000 10B5     		push	{r4, lr}
 830              		.cfi_def_cfa_offset 8
 831              		.cfi_offset 4, -8
 832              		.cfi_offset 14, -4
 833              	.LBB154:
 834              	.LBB146:
 835              	.LBB147:
 152:../src/Pedal.cpp **** }
 836              		.loc 1 152 14 view .LVU211
 837 0002 9FED090A 		vldr.32	s0, .L35
 838              	.LBE147:
 839              	.LBE146:
 840              	.LBE154:
 144:../src/Pedal.cpp **** 	for (size_t i = 0; i < LedI::LN; i++)
 841              		.loc 1 144 1 view .LVU212
 842 0006 82B0     		sub	sp, sp, #8
 843              		.cfi_def_cfa_offset 16
 144:../src/Pedal.cpp **** 	for (size_t i = 0; i < LedI::LN; i++)
 844              		.loc 1 144 1 view .LVU213
 845 0008 0446     		mov	r4, r0
 846              	.LVL65:
 847              	.LBB155:
 848              	.LBB151:
 849              	.LBI146:
 149:../src/Pedal.cpp **** {
 850              		.loc 1 149 6 is_stmt 1 view .LVU214
 851              	.LBB148:
 151:../src/Pedal.cpp **** 	leds[id].Set(brightness);
 852              		.loc 1 151 2 view .LVU215
 152:../src/Pedal.cpp **** }
 853              		.loc 1 152 2 view .LVU216
 152:../src/Pedal.cpp **** }
 854              		.loc 1 152 14 is_stmt 0 view .LVU217
 855 000a 00F25C50 		addw	r0, r0, #1372
 856              	.LVL66:
 152:../src/Pedal.cpp **** }
 857              		.loc 1 152 14 view .LVU218
 858 000e 8DED010A 		vstr.32	s0, [sp, #4]	@ int
 859 0012 FFF7FEFF 		bl	_ZN5daisy3Led3SetEf
 860              	.LVL67:
 152:../src/Pedal.cpp **** }
 861              		.loc 1 152 14 view .LVU219
 862              	.LBE148:
 863              	.LBE151:
 145:../src/Pedal.cpp **** 		SetLed(static_cast<LedI>(i), 0.0f);
 864              		.loc 1 145 2 is_stmt 1 view .LVU220
 145:../src/Pedal.cpp **** 		SetLed(static_cast<LedI>(i), 0.0f);
 865              		.loc 1 145 23 view .LVU221
 146:../src/Pedal.cpp **** }
 866              		.loc 1 146 3 view .LVU222
 867              	.LBB152:
 149:../src/Pedal.cpp **** {
 868              		.loc 1 149 6 view .LVU223
ARM GAS  /var/folders/83/vwtnzcdn1v99b_lf0k0gsjzr0000gn/T//ccKcGgHc.s 			page 24


 869              	.LBB149:
 151:../src/Pedal.cpp **** 	leds[id].Set(brightness);
 870              		.loc 1 151 2 view .LVU224
 152:../src/Pedal.cpp **** }
 871              		.loc 1 152 2 view .LVU225
 152:../src/Pedal.cpp **** }
 872              		.loc 1 152 14 is_stmt 0 view .LVU226
 873 0016 9DED010A 		vldr.32	s0, [sp, #4]	@ int
 874 001a 04F5AF60 		add	r0, r4, #1400
 875              	.LBE149:
 876              	.LBE152:
 877              	.LBE155:
 147:../src/Pedal.cpp **** 
 878              		.loc 1 147 1 view .LVU227
 879 001e 02B0     		add	sp, sp, #8
 880              		.cfi_def_cfa_offset 8
 881              		@ sp needed
 882 0020 BDE81040 		pop	{r4, lr}
 883              		.cfi_restore 14
 884              		.cfi_restore 4
 885              		.cfi_def_cfa_offset 0
 886              	.LVL68:
 887              	.LBB156:
 888              	.LBB153:
 889              	.LBB150:
 152:../src/Pedal.cpp **** }
 890              		.loc 1 152 14 view .LVU228
 891 0024 FFF7FEBF 		b	_ZN5daisy3Led3SetEf
 892              	.LVL69:
 893              	.L36:
 152:../src/Pedal.cpp **** }
 894              		.loc 1 152 14 view .LVU229
 895              		.align	2
 896              	.L35:
 897 0028 00000000 		.word	0
 898              	.LBE150:
 899              	.LBE153:
 900              	.LBE156:
 901              		.cfi_endproc
 902              	.LFE5680:
 904              		.section	.text._ZN3amc5Pedal6SetLedENS0_4LedIEf,"ax",%progbits
 905              		.align	1
 906              		.p2align 2,,3
 907              		.global	_ZN3amc5Pedal6SetLedENS0_4LedIEf
 908              		.syntax unified
 909              		.thumb
 910              		.thumb_func
 912              	_ZN3amc5Pedal6SetLedENS0_4LedIEf:
 913              	.LVL70:
 914              	.LFB5681:
 150:../src/Pedal.cpp **** 	size_t id = l < LedI::LN ? l : 0;
 915              		.loc 1 150 1 is_stmt 1 view -0
 916              		.cfi_startproc
 917              		@ args = 0, pretend = 0, frame = 0
 918              		@ frame_needed = 0, uses_anonymous_args = 0
 919              		@ link register save eliminated.
 151:../src/Pedal.cpp **** 	leds[id].Set(brightness);
ARM GAS  /var/folders/83/vwtnzcdn1v99b_lf0k0gsjzr0000gn/T//ccKcGgHc.s 			page 25


 920              		.loc 1 151 2 view .LVU231
 151:../src/Pedal.cpp **** 	leds[id].Set(brightness);
 921              		.loc 1 151 27 is_stmt 0 view .LVU232
 922 0000 0129     		cmp	r1, #1
 923 0002 04D9     		bls	.L40
 152:../src/Pedal.cpp **** }
 924              		.loc 1 152 2 is_stmt 1 view .LVU233
 925 0004 40F25C51 		movw	r1, #1372
 926              	.LVL71:
 152:../src/Pedal.cpp **** }
 927              		.loc 1 152 14 is_stmt 0 view .LVU234
 928 0008 0844     		add	r0, r0, r1
 929              	.LVL72:
 152:../src/Pedal.cpp **** }
 930              		.loc 1 152 14 view .LVU235
 931 000a FFF7FEBF 		b	_ZN5daisy3Led3SetEf
 932              	.LVL73:
 933              	.L40:
 152:../src/Pedal.cpp **** }
 934              		.loc 1 152 14 view .LVU236
 935 000e C1EBC101 		rsb	r1, r1, r1, lsl #3
 936              	.LVL74:
 152:../src/Pedal.cpp **** }
 937              		.loc 1 152 14 view .LVU237
 938 0012 8900     		lsls	r1, r1, #2
 939 0014 01F25C51 		addw	r1, r1, #1372
 152:../src/Pedal.cpp **** }
 940              		.loc 1 152 2 is_stmt 1 view .LVU238
 152:../src/Pedal.cpp **** }
 941              		.loc 1 152 14 is_stmt 0 view .LVU239
 942 0018 0844     		add	r0, r0, r1
 943              	.LVL75:
 152:../src/Pedal.cpp **** }
 944              		.loc 1 152 14 view .LVU240
 945 001a FFF7FEBF 		b	_ZN5daisy3Led3SetEf
 946              	.LVL76:
 152:../src/Pedal.cpp **** }
 947              		.loc 1 152 14 view .LVU241
 948              		.cfi_endproc
 949              	.LFE5681:
 951 001e 00BF     		.section	.text._ZN3amc5Pedal10UpdateLedsEv,"ax",%progbits
 952              		.align	1
 953              		.p2align 2,,3
 954              		.global	_ZN3amc5Pedal10UpdateLedsEv
 955              		.syntax unified
 956              		.thumb
 957              		.thumb_func
 959              	_ZN3amc5Pedal10UpdateLedsEv:
 960              	.LVL77:
 961              	.LFB5682:
 156:../src/Pedal.cpp **** 	for (size_t i = 0; i < LedI::LN; i++)
 962              		.loc 1 156 1 is_stmt 1 view -0
 963              		.cfi_startproc
 964              		@ args = 0, pretend = 0, frame = 0
 965              		@ frame_needed = 0, uses_anonymous_args = 0
 157:../src/Pedal.cpp **** 		leds[i].Update();
 966              		.loc 1 157 2 view .LVU243
ARM GAS  /var/folders/83/vwtnzcdn1v99b_lf0k0gsjzr0000gn/T//ccKcGgHc.s 			page 26


 967              	.LBB157:
 157:../src/Pedal.cpp **** 		leds[i].Update();
 968              		.loc 1 157 23 view .LVU244
 158:../src/Pedal.cpp **** }
 969              		.loc 1 158 3 view .LVU245
 970              	.LBE157:
 156:../src/Pedal.cpp **** 	for (size_t i = 0; i < LedI::LN; i++)
 971              		.loc 1 156 1 is_stmt 0 view .LVU246
 972 0000 10B5     		push	{r4, lr}
 973              		.cfi_def_cfa_offset 8
 974              		.cfi_offset 4, -8
 975              		.cfi_offset 14, -4
 156:../src/Pedal.cpp **** 	for (size_t i = 0; i < LedI::LN; i++)
 976              		.loc 1 156 1 view .LVU247
 977 0002 0446     		mov	r4, r0
 978              	.LBB158:
 158:../src/Pedal.cpp **** }
 979              		.loc 1 158 17 view .LVU248
 980 0004 00F25C50 		addw	r0, r0, #1372
 981              	.LVL78:
 158:../src/Pedal.cpp **** }
 982              		.loc 1 158 17 view .LVU249
 983 0008 FFF7FEFF 		bl	_ZN5daisy3Led6UpdateEv
 984              	.LVL79:
 157:../src/Pedal.cpp **** 		leds[i].Update();
 985              		.loc 1 157 2 is_stmt 1 view .LVU250
 157:../src/Pedal.cpp **** 		leds[i].Update();
 986              		.loc 1 157 23 view .LVU251
 158:../src/Pedal.cpp **** }
 987              		.loc 1 158 3 view .LVU252
 158:../src/Pedal.cpp **** }
 988              		.loc 1 158 17 is_stmt 0 view .LVU253
 989 000c 04F5AF60 		add	r0, r4, #1400
 990              	.LBE158:
 159:../src/Pedal.cpp **** 
 991              		.loc 1 159 1 view .LVU254
 992 0010 BDE81040 		pop	{r4, lr}
 993              		.cfi_restore 14
 994              		.cfi_restore 4
 995              		.cfi_def_cfa_offset 0
 996              	.LVL80:
 997              	.LBB159:
 158:../src/Pedal.cpp **** }
 998              		.loc 1 158 17 view .LVU255
 999 0014 FFF7FEBF 		b	_ZN5daisy3Led6UpdateEv
 1000              	.LVL81:
 158:../src/Pedal.cpp **** }
 1001              		.loc 1 158 17 view .LVU256
 1002              	.LBE159:
 1003              		.cfi_endproc
 1004              	.LFE5682:
 1006              		.section	.text._ZN3amc5Pedal18InitAnalogControlsEv,"ax",%progbits
 1007              		.align	1
 1008              		.p2align 2,,3
 1009              		.global	_ZN3amc5Pedal18InitAnalogControlsEv
 1010              		.syntax unified
 1011              		.thumb
ARM GAS  /var/folders/83/vwtnzcdn1v99b_lf0k0gsjzr0000gn/T//ccKcGgHc.s 			page 27


 1012              		.thumb_func
 1014              	_ZN3amc5Pedal18InitAnalogControlsEv:
 1015              	.LVL82:
 1016              	.LFB5683:
 162:../src/Pedal.cpp **** 	AdcChannelConfig configs[KnobI::KN]; // one config per knob
 1017              		.loc 1 162 1 is_stmt 1 view -0
 1018              		.cfi_startproc
 1019              		@ args = 0, pretend = 0, frame = 144
 1020              		@ frame_needed = 0, uses_anonymous_args = 0
 163:../src/Pedal.cpp **** 
 1021              		.loc 1 163 2 view .LVU258
 165:../src/Pedal.cpp **** 	configs[KnobI::K2].InitSingle(seed.GetPin(KNOB_PIN_2));
 1022              		.loc 1 165 2 view .LVU259
 162:../src/Pedal.cpp **** 	AdcChannelConfig configs[KnobI::KN]; // one config per knob
 1023              		.loc 1 162 1 is_stmt 0 view .LVU260
 1024 0000 F0B5     		push	{r4, r5, r6, r7, lr}
 1025              		.cfi_def_cfa_offset 20
 1026              		.cfi_offset 4, -20
 1027              		.cfi_offset 5, -16
 1028              		.cfi_offset 6, -12
 1029              		.cfi_offset 7, -8
 1030              		.cfi_offset 14, -4
 1031 0002 A5B0     		sub	sp, sp, #148
 1032              		.cfi_def_cfa_offset 168
 162:../src/Pedal.cpp **** 	AdcChannelConfig configs[KnobI::KN]; // one config per knob
 1033              		.loc 1 162 1 view .LVU261
 1034 0004 0646     		mov	r6, r0
 165:../src/Pedal.cpp **** 	configs[KnobI::K2].InitSingle(seed.GetPin(KNOB_PIN_2));
 1035              		.loc 1 165 31 view .LVU262
 1036 0006 0F20     		movs	r0, #15
 1037              	.LVL83:
 1038              	.LBB160:
 174:../src/Pedal.cpp **** 		knobs[i].Init(seed.adc.GetPtr(i), CallbackRate());
 1039              		.loc 1 174 11 view .LVU263
 1040 0008 0024     		movs	r4, #0
 1041              	.LBE160:
 165:../src/Pedal.cpp **** 	configs[KnobI::K2].InitSingle(seed.GetPin(KNOB_PIN_2));
 1042              		.loc 1 165 31 view .LVU264
 1043 000a FFF7FEFF 		bl	_ZN5daisy9DaisySeed6GetPinEh
 1044              	.LVL84:
 1045 000e ADF80C00 		strh	r0, [sp, #12]	@ movhi
 1046 0012 0222     		movs	r2, #2
 1047 0014 0399     		ldr	r1, [sp, #12]
 1048 0016 09A8     		add	r0, sp, #36
 172:../src/Pedal.cpp **** 	
 1049              		.loc 1 172 15 view .LVU265
 1050 0018 06F11807 		add	r7, r6, #24
 165:../src/Pedal.cpp **** 	configs[KnobI::K2].InitSingle(seed.GetPin(KNOB_PIN_2));
 1051              		.loc 1 165 31 view .LVU266
 1052 001c FFF7FEFF 		bl	_ZN5daisy16AdcChannelConfig10InitSingleE12dsy_gpio_pinNS0_15ConversionSpeedE
 1053              	.LVL85:
 166:../src/Pedal.cpp **** 	configs[KnobI::K3].InitSingle(seed.GetPin(KNOB_PIN_3));
 1054              		.loc 1 166 2 is_stmt 1 view .LVU267
 166:../src/Pedal.cpp **** 	configs[KnobI::K3].InitSingle(seed.GetPin(KNOB_PIN_3));
 1055              		.loc 1 166 31 is_stmt 0 view .LVU268
 1056 0020 1020     		movs	r0, #16
 1057 0022 FFF7FEFF 		bl	_ZN5daisy9DaisySeed6GetPinEh
ARM GAS  /var/folders/83/vwtnzcdn1v99b_lf0k0gsjzr0000gn/T//ccKcGgHc.s 			page 28


 1058              	.LVL86:
 1059 0026 ADF81000 		strh	r0, [sp, #16]	@ movhi
 1060 002a 0222     		movs	r2, #2
 1061 002c 0499     		ldr	r1, [sp, #16]
 1062 002e 0DF13600 		add	r0, sp, #54
 1063 0032 06F25445 		addw	r5, r6, #1108
 1064 0036 FFF7FEFF 		bl	_ZN5daisy16AdcChannelConfig10InitSingleE12dsy_gpio_pinNS0_15ConversionSpeedE
 1065              	.LVL87:
 167:../src/Pedal.cpp **** 	configs[KnobI::K4].InitSingle(seed.GetPin(KNOB_PIN_4));
 1066              		.loc 1 167 2 is_stmt 1 view .LVU269
 167:../src/Pedal.cpp **** 	configs[KnobI::K4].InitSingle(seed.GetPin(KNOB_PIN_4));
 1067              		.loc 1 167 31 is_stmt 0 view .LVU270
 1068 003a 1120     		movs	r0, #17
 1069 003c FFF7FEFF 		bl	_ZN5daisy9DaisySeed6GetPinEh
 1070              	.LVL88:
 1071 0040 ADF81400 		strh	r0, [sp, #20]	@ movhi
 1072 0044 0222     		movs	r2, #2
 1073 0046 0599     		ldr	r1, [sp, #20]
 1074 0048 12A8     		add	r0, sp, #72
 1075 004a FFF7FEFF 		bl	_ZN5daisy16AdcChannelConfig10InitSingleE12dsy_gpio_pinNS0_15ConversionSpeedE
 1076              	.LVL89:
 168:../src/Pedal.cpp **** 	configs[KnobI::K5].InitSingle(seed.GetPin(KNOB_PIN_5));
 1077              		.loc 1 168 2 is_stmt 1 view .LVU271
 168:../src/Pedal.cpp **** 	configs[KnobI::K5].InitSingle(seed.GetPin(KNOB_PIN_5));
 1078              		.loc 1 168 31 is_stmt 0 view .LVU272
 1079 004e 1220     		movs	r0, #18
 1080 0050 FFF7FEFF 		bl	_ZN5daisy9DaisySeed6GetPinEh
 1081              	.LVL90:
 1082 0054 ADF81800 		strh	r0, [sp, #24]	@ movhi
 1083 0058 0222     		movs	r2, #2
 1084 005a 0699     		ldr	r1, [sp, #24]
 1085 005c 0DF15A00 		add	r0, sp, #90
 1086 0060 FFF7FEFF 		bl	_ZN5daisy16AdcChannelConfig10InitSingleE12dsy_gpio_pinNS0_15ConversionSpeedE
 1087              	.LVL91:
 169:../src/Pedal.cpp **** 	configs[KnobI::K6].InitSingle(seed.GetPin(KNOB_PIN_6));
 1088              		.loc 1 169 2 is_stmt 1 view .LVU273
 169:../src/Pedal.cpp **** 	configs[KnobI::K6].InitSingle(seed.GetPin(KNOB_PIN_6));
 1089              		.loc 1 169 31 is_stmt 0 view .LVU274
 1090 0064 1320     		movs	r0, #19
 1091 0066 FFF7FEFF 		bl	_ZN5daisy9DaisySeed6GetPinEh
 1092              	.LVL92:
 1093 006a ADF81C00 		strh	r0, [sp, #28]	@ movhi
 1094 006e 0222     		movs	r2, #2
 1095 0070 0799     		ldr	r1, [sp, #28]
 1096 0072 1BA8     		add	r0, sp, #108
 1097 0074 FFF7FEFF 		bl	_ZN5daisy16AdcChannelConfig10InitSingleE12dsy_gpio_pinNS0_15ConversionSpeedE
 1098              	.LVL93:
 170:../src/Pedal.cpp **** 
 1099              		.loc 1 170 2 is_stmt 1 view .LVU275
 170:../src/Pedal.cpp **** 
 1100              		.loc 1 170 31 is_stmt 0 view .LVU276
 1101 0078 1420     		movs	r0, #20
 1102 007a FFF7FEFF 		bl	_ZN5daisy9DaisySeed6GetPinEh
 1103              	.LVL94:
 1104 007e ADF82000 		strh	r0, [sp, #32]	@ movhi
 1105 0082 0222     		movs	r2, #2
 1106 0084 0899     		ldr	r1, [sp, #32]
ARM GAS  /var/folders/83/vwtnzcdn1v99b_lf0k0gsjzr0000gn/T//ccKcGgHc.s 			page 29


 1107 0086 0DF17E00 		add	r0, sp, #126
 1108 008a FFF7FEFF 		bl	_ZN5daisy16AdcChannelConfig10InitSingleE12dsy_gpio_pinNS0_15ConversionSpeedE
 1109              	.LVL95:
 172:../src/Pedal.cpp **** 	
 1110              		.loc 1 172 2 is_stmt 1 view .LVU277
 172:../src/Pedal.cpp **** 	
 1111              		.loc 1 172 15 is_stmt 0 view .LVU278
 1112 008e 0423     		movs	r3, #4
 1113 0090 0622     		movs	r2, #6
 1114 0092 09A9     		add	r1, sp, #36
 1115 0094 3846     		mov	r0, r7
 1116 0096 FFF7FEFF 		bl	_ZN5daisy9AdcHandle4InitEPNS_16AdcChannelConfigEjNS0_12OverSamplingE
 1117              	.LVL96:
 174:../src/Pedal.cpp **** 		knobs[i].Init(seed.adc.GetPtr(i), CallbackRate());
 1118              		.loc 1 174 2 is_stmt 1 view .LVU279
 1119              	.LBB165:
 174:../src/Pedal.cpp **** 		knobs[i].Init(seed.adc.GetPtr(i), CallbackRate());
 1120              		.loc 1 174 20 view .LVU280
 1121              	.L44:
 175:../src/Pedal.cpp **** }
 1122              		.loc 1 175 3 discriminator 2 view .LVU281
 175:../src/Pedal.cpp **** }
 1123              		.loc 1 175 16 is_stmt 0 discriminator 2 view .LVU282
 1124 009a E1B2     		uxtb	r1, r4
 1125 009c 3846     		mov	r0, r7
 1126 009e FFF7FEFF 		bl	_ZNK5daisy9AdcHandle6GetPtrEh
 1127              	.LVL97:
 1128 00a2 0146     		mov	r1, r0
 1129              	.LBB161:
 1130              	.LBB162:
 104:../src/Pedal.cpp **** }
 1131              		.loc 1 104 31 discriminator 2 view .LVU283
 1132 00a4 3046     		mov	r0, r6
 1133              	.LBE162:
 1134              	.LBE161:
 174:../src/Pedal.cpp **** 		knobs[i].Init(seed.adc.GetPtr(i), CallbackRate());
 1135              		.loc 1 174 2 discriminator 2 view .LVU284
 1136 00a6 0134     		adds	r4, r4, #1
 1137              	.LVL98:
 175:../src/Pedal.cpp **** }
 1138              		.loc 1 175 16 discriminator 2 view .LVU285
 1139 00a8 0191     		str	r1, [sp, #4]
 1140              	.LVL99:
 1141              	.LBB164:
 1142              	.LBI161:
 102:../src/Pedal.cpp **** {
 1143              		.loc 1 102 7 is_stmt 1 discriminator 2 view .LVU286
 1144              	.LBB163:
 104:../src/Pedal.cpp **** }
 1145              		.loc 1 104 2 discriminator 2 view .LVU287
 104:../src/Pedal.cpp **** }
 1146              		.loc 1 104 31 is_stmt 0 discriminator 2 view .LVU288
 1147 00aa FFF7FEFF 		bl	_ZNK5daisy9DaisySeed17AudioCallbackRateEv
 1148              	.LVL100:
 104:../src/Pedal.cpp **** }
 1149              		.loc 1 104 31 discriminator 2 view .LVU289
 1150              	.LBE163:
ARM GAS  /var/folders/83/vwtnzcdn1v99b_lf0k0gsjzr0000gn/T//ccKcGgHc.s 			page 30


 1151              	.LBE164:
 175:../src/Pedal.cpp **** }
 1152              		.loc 1 175 16 discriminator 2 view .LVU290
 1153 00ae 0023     		movs	r3, #0
 1154 00b0 2846     		mov	r0, r5
 1155 00b2 DFED050A 		vldr.32	s1, .L47
 174:../src/Pedal.cpp **** 		knobs[i].Init(seed.adc.GetPtr(i), CallbackRate());
 1156              		.loc 1 174 20 discriminator 2 view .LVU291
 1157 00b6 2035     		adds	r5, r5, #32
 175:../src/Pedal.cpp **** }
 1158              		.loc 1 175 16 discriminator 2 view .LVU292
 1159 00b8 0199     		ldr	r1, [sp, #4]
 1160 00ba 1A46     		mov	r2, r3
 1161 00bc FFF7FEFF 		bl	_ZN5daisy13AnalogControl4InitEPtfbbf
 1162              	.LVL101:
 174:../src/Pedal.cpp **** 		knobs[i].Init(seed.adc.GetPtr(i), CallbackRate());
 1163              		.loc 1 174 2 is_stmt 1 discriminator 2 view .LVU293
 174:../src/Pedal.cpp **** 		knobs[i].Init(seed.adc.GetPtr(i), CallbackRate());
 1164              		.loc 1 174 20 discriminator 2 view .LVU294
 1165 00c0 062C     		cmp	r4, #6
 1166 00c2 EAD1     		bne	.L44
 1167              	.LBE165:
 176:../src/Pedal.cpp **** 
 1168              		.loc 1 176 1 is_stmt 0 view .LVU295
 1169 00c4 25B0     		add	sp, sp, #148
 1170              		.cfi_def_cfa_offset 20
 1171              		@ sp needed
 1172 00c6 F0BD     		pop	{r4, r5, r6, r7, pc}
 1173              	.LVL102:
 1174              	.L48:
 176:../src/Pedal.cpp **** 
 1175              		.loc 1 176 1 view .LVU296
 1176              		.align	2
 1177              	.L47:
 1178 00c8 6F12033B 		.word	990057071
 1179              		.cfi_endproc
 1180              	.LFE5683:
 1182              		.section	.text._ZN3amc5Pedal12InitEncodersEv,"ax",%progbits
 1183              		.align	1
 1184              		.p2align 2,,3
 1185              		.global	_ZN3amc5Pedal12InitEncodersEv
 1186              		.syntax unified
 1187              		.thumb
 1188              		.thumb_func
 1190              	_ZN3amc5Pedal12InitEncodersEv:
 1191              	.LVL103:
 1192              	.LFB5684:
 179:../src/Pedal.cpp **** 	encoders[EncoderI::E1].Init(seed.GetPin(ENCODER_1_A_PIN),
 1193              		.loc 1 179 1 is_stmt 1 view -0
 1194              		.cfi_startproc
 1195              		@ args = 0, pretend = 0, frame = 16
 1196              		@ frame_needed = 0, uses_anonymous_args = 0
 180:../src/Pedal.cpp **** 		seed.GetPin(ENCODER_1_B_PIN),
 1197              		.loc 1 180 2 view .LVU298
 179:../src/Pedal.cpp **** 	encoders[EncoderI::E1].Init(seed.GetPin(ENCODER_1_A_PIN),
 1198              		.loc 1 179 1 is_stmt 0 view .LVU299
 1199 0000 10B5     		push	{r4, lr}
ARM GAS  /var/folders/83/vwtnzcdn1v99b_lf0k0gsjzr0000gn/T//ccKcGgHc.s 			page 31


 1200              		.cfi_def_cfa_offset 8
 1201              		.cfi_offset 4, -8
 1202              		.cfi_offset 14, -4
 1203 0002 0446     		mov	r4, r0
 1204 0004 84B0     		sub	sp, sp, #16
 1205              		.cfi_def_cfa_offset 24
 180:../src/Pedal.cpp **** 		seed.GetPin(ENCODER_1_B_PIN),
 1206              		.loc 1 180 29 view .LVU300
 1207 0006 0320     		movs	r0, #3
 1208              	.LVL104:
 180:../src/Pedal.cpp **** 		seed.GetPin(ENCODER_1_B_PIN),
 1209              		.loc 1 180 29 view .LVU301
 1210 0008 FFF7FEFF 		bl	_ZN5daisy9DaisySeed6GetPinEh
 1211              	.LVL105:
 1212 000c 0346     		mov	r3, r0	@ movhi
 1213 000e 0220     		movs	r0, #2
 1214 0010 ADF80430 		strh	r3, [sp, #4]	@ movhi
 1215 0014 FFF7FEFF 		bl	_ZN5daisy9DaisySeed6GetPinEh
 1216              	.LVL106:
 1217 0018 0346     		mov	r3, r0	@ movhi
 1218 001a 0420     		movs	r0, #4
 1219 001c ADF80830 		strh	r3, [sp, #8]	@ movhi
 1220 0020 FFF7FEFF 		bl	_ZN5daisy9DaisySeed6GetPinEh
 1221              	.LVL107:
 1222 0024 ADF80C00 		strh	r0, [sp, #12]	@ movhi
 1223 0028 04F21450 		addw	r0, r4, #1300
 1224 002c 9FED040A 		vldr.32	s0, .L51
 1225 0030 039B     		ldr	r3, [sp, #12]
 1226 0032 DDE90112 		ldrd	r1, r2, [sp, #4]
 183:../src/Pedal.cpp **** 
 1227              		.loc 1 183 1 view .LVU302
 1228 0036 04B0     		add	sp, sp, #16
 1229              		.cfi_def_cfa_offset 8
 1230              		@ sp needed
 1231 0038 BDE81040 		pop	{r4, lr}
 1232              		.cfi_restore 14
 1233              		.cfi_restore 4
 1234              		.cfi_def_cfa_offset 0
 1235              	.LVL108:
 180:../src/Pedal.cpp **** 		seed.GetPin(ENCODER_1_B_PIN),
 1236              		.loc 1 180 29 view .LVU303
 1237 003c FFF7FEBF 		b	_ZN5daisy7Encoder4InitE12dsy_gpio_pinS1_S1_f
 1238              	.LVL109:
 1239              	.L52:
 180:../src/Pedal.cpp **** 		seed.GetPin(ENCODER_1_B_PIN),
 1240              		.loc 1 180 29 view .LVU304
 1241              		.align	2
 1242              	.L51:
 1243 0040 00000000 		.word	0
 1244              		.cfi_endproc
 1245              	.LFE5684:
 1247              		.section	.text._ZN3amc5Pedal12InitSwitchesEv,"ax",%progbits
 1248              		.align	1
 1249              		.p2align 2,,3
 1250              		.global	_ZN3amc5Pedal12InitSwitchesEv
 1251              		.syntax unified
 1252              		.thumb
ARM GAS  /var/folders/83/vwtnzcdn1v99b_lf0k0gsjzr0000gn/T//ccKcGgHc.s 			page 32


 1253              		.thumb_func
 1255              	_ZN3amc5Pedal12InitSwitchesEv:
 1256              	.LVL110:
 1257              	.LFB5685:
 186:../src/Pedal.cpp **** 	switches[SwitchI::S1].Init(seed.GetPin(SWITCH_1_PIN));
 1258              		.loc 1 186 1 is_stmt 1 view -0
 1259              		.cfi_startproc
 1260              		@ args = 0, pretend = 0, frame = 16
 1261              		@ frame_needed = 0, uses_anonymous_args = 0
 187:../src/Pedal.cpp **** 	switches[SwitchI::S2].Init(seed.GetPin(SWITCH_2_PIN));
 1262              		.loc 1 187 2 view .LVU306
 186:../src/Pedal.cpp **** 	switches[SwitchI::S1].Init(seed.GetPin(SWITCH_1_PIN));
 1263              		.loc 1 186 1 is_stmt 0 view .LVU307
 1264 0000 10B5     		push	{r4, lr}
 1265              		.cfi_def_cfa_offset 8
 1266              		.cfi_offset 4, -8
 1267              		.cfi_offset 14, -4
 187:../src/Pedal.cpp **** 	switches[SwitchI::S2].Init(seed.GetPin(SWITCH_2_PIN));
 1268              		.loc 1 187 28 view .LVU308
 1269 0002 9FED110A 		vldr.32	s0, .L55
 186:../src/Pedal.cpp **** 	switches[SwitchI::S1].Init(seed.GetPin(SWITCH_1_PIN));
 1270              		.loc 1 186 1 view .LVU309
 1271 0006 84B0     		sub	sp, sp, #16
 1272              		.cfi_def_cfa_offset 24
 186:../src/Pedal.cpp **** 	switches[SwitchI::S1].Init(seed.GetPin(SWITCH_1_PIN));
 1273              		.loc 1 186 1 view .LVU310
 1274 0008 0446     		mov	r4, r0
 187:../src/Pedal.cpp **** 	switches[SwitchI::S2].Init(seed.GetPin(SWITCH_2_PIN));
 1275              		.loc 1 187 28 view .LVU311
 1276 000a 0620     		movs	r0, #6
 1277              	.LVL111:
 187:../src/Pedal.cpp **** 	switches[SwitchI::S2].Init(seed.GetPin(SWITCH_2_PIN));
 1278              		.loc 1 187 28 view .LVU312
 1279 000c 8DED010A 		vstr.32	s0, [sp, #4]	@ int
 1280 0010 FFF7FEFF 		bl	_ZN5daisy9DaisySeed6GetPinEh
 1281              	.LVL112:
 1282 0014 0346     		mov	r3, r0	@ movhi
 1283 0016 9DED010A 		vldr.32	s0, [sp, #4]	@ int
 1284 001a 04F23C50 		addw	r0, r4, #1340
 1285 001e ADF80830 		strh	r3, [sp, #8]	@ movhi
 1286 0022 0299     		ldr	r1, [sp, #8]
 1287 0024 FFF7FEFF 		bl	_ZN5daisy6Switch4InitE12dsy_gpio_pinf
 1288              	.LVL113:
 188:../src/Pedal.cpp **** }
 1289              		.loc 1 188 2 is_stmt 1 view .LVU313
 188:../src/Pedal.cpp **** }
 1290              		.loc 1 188 28 is_stmt 0 view .LVU314
 1291 0028 0520     		movs	r0, #5
 1292 002a FFF7FEFF 		bl	_ZN5daisy9DaisySeed6GetPinEh
 1293              	.LVL114:
 1294 002e 0346     		mov	r3, r0	@ movhi
 1295 0030 9DED010A 		vldr.32	s0, [sp, #4]	@ int
 1296 0034 04F24C50 		addw	r0, r4, #1356
 1297 0038 ADF80C30 		strh	r3, [sp, #12]	@ movhi
 1298 003c 0399     		ldr	r1, [sp, #12]
 189:../src/Pedal.cpp **** 
 1299              		.loc 1 189 1 view .LVU315
ARM GAS  /var/folders/83/vwtnzcdn1v99b_lf0k0gsjzr0000gn/T//ccKcGgHc.s 			page 33


 1300 003e 04B0     		add	sp, sp, #16
 1301              		.cfi_def_cfa_offset 8
 1302              		@ sp needed
 1303 0040 BDE81040 		pop	{r4, lr}
 1304              		.cfi_restore 14
 1305              		.cfi_restore 4
 1306              		.cfi_def_cfa_offset 0
 1307              	.LVL115:
 188:../src/Pedal.cpp **** }
 1308              		.loc 1 188 28 view .LVU316
 1309 0044 FFF7FEBF 		b	_ZN5daisy6Switch4InitE12dsy_gpio_pinf
 1310              	.LVL116:
 1311              	.L56:
 188:../src/Pedal.cpp **** }
 1312              		.loc 1 188 28 view .LVU317
 1313              		.align	2
 1314              	.L55:
 1315 0048 00000000 		.word	0
 1316              		.cfi_endproc
 1317              	.LFE5685:
 1319              		.section	.text._ZN3amc5Pedal8InitLedsEv,"ax",%progbits
 1320              		.align	1
 1321              		.p2align 2,,3
 1322              		.global	_ZN3amc5Pedal8InitLedsEv
 1323              		.syntax unified
 1324              		.thumb
 1325              		.thumb_func
 1327              	_ZN3amc5Pedal8InitLedsEv:
 1328              	.LVL117:
 1329              	.LFB5686:
 192:../src/Pedal.cpp **** 	leds[LedI::L1].Init(seed.GetPin(LED_1_PIN), false);
 1330              		.loc 1 192 1 is_stmt 1 view -0
 1331              		.cfi_startproc
 1332              		@ args = 0, pretend = 0, frame = 16
 1333              		@ frame_needed = 0, uses_anonymous_args = 0
 193:../src/Pedal.cpp **** 	leds[LedI::L2].Init(seed.GetPin(LED_2_PIN), false);
 1334              		.loc 1 193 2 view .LVU319
 192:../src/Pedal.cpp **** 	leds[LedI::L1].Init(seed.GetPin(LED_1_PIN), false);
 1335              		.loc 1 192 1 is_stmt 0 view .LVU320
 1336 0000 10B5     		push	{r4, lr}
 1337              		.cfi_def_cfa_offset 8
 1338              		.cfi_offset 4, -8
 1339              		.cfi_offset 14, -4
 193:../src/Pedal.cpp **** 	leds[LedI::L2].Init(seed.GetPin(LED_2_PIN), false);
 1340              		.loc 1 193 21 view .LVU321
 1341 0002 9FED110A 		vldr.32	s0, .L59
 192:../src/Pedal.cpp **** 	leds[LedI::L1].Init(seed.GetPin(LED_1_PIN), false);
 1342              		.loc 1 192 1 view .LVU322
 1343 0006 84B0     		sub	sp, sp, #16
 1344              		.cfi_def_cfa_offset 24
 192:../src/Pedal.cpp **** 	leds[LedI::L1].Init(seed.GetPin(LED_1_PIN), false);
 1345              		.loc 1 192 1 view .LVU323
 1346 0008 0446     		mov	r4, r0
 193:../src/Pedal.cpp **** 	leds[LedI::L2].Init(seed.GetPin(LED_2_PIN), false);
 1347              		.loc 1 193 21 view .LVU324
 1348 000a 1620     		movs	r0, #22
 1349              	.LVL118:
ARM GAS  /var/folders/83/vwtnzcdn1v99b_lf0k0gsjzr0000gn/T//ccKcGgHc.s 			page 34


 193:../src/Pedal.cpp **** 	leds[LedI::L2].Init(seed.GetPin(LED_2_PIN), false);
 1350              		.loc 1 193 21 view .LVU325
 1351 000c 8DED010A 		vstr.32	s0, [sp, #4]	@ int
 1352 0010 FFF7FEFF 		bl	_ZN5daisy9DaisySeed6GetPinEh
 1353              	.LVL119:
 1354 0014 ADF80800 		strh	r0, [sp, #8]	@ movhi
 1355 0018 0022     		movs	r2, #0
 1356 001a 9DED010A 		vldr.32	s0, [sp, #4]	@ int
 1357 001e 04F25C50 		addw	r0, r4, #1372
 1358 0022 0299     		ldr	r1, [sp, #8]
 1359 0024 FFF7FEFF 		bl	_ZN5daisy3Led4InitE12dsy_gpio_pinbf
 1360              	.LVL120:
 194:../src/Pedal.cpp **** }
 1361              		.loc 1 194 2 is_stmt 1 view .LVU326
 194:../src/Pedal.cpp **** }
 1362              		.loc 1 194 21 is_stmt 0 view .LVU327
 1363 0028 1720     		movs	r0, #23
 1364 002a FFF7FEFF 		bl	_ZN5daisy9DaisySeed6GetPinEh
 1365              	.LVL121:
 1366 002e ADF80C00 		strh	r0, [sp, #12]	@ movhi
 1367 0032 9DED010A 		vldr.32	s0, [sp, #4]	@ int
 1368 0036 0022     		movs	r2, #0
 1369 0038 04F5AF60 		add	r0, r4, #1400
 1370 003c 0399     		ldr	r1, [sp, #12]
 195:../src/Pedal.cpp **** 
 1371              		.loc 1 195 1 view .LVU328
 1372 003e 04B0     		add	sp, sp, #16
 1373              		.cfi_def_cfa_offset 8
 1374              		@ sp needed
 1375 0040 BDE81040 		pop	{r4, lr}
 1376              		.cfi_restore 14
 1377              		.cfi_restore 4
 1378              		.cfi_def_cfa_offset 0
 1379              	.LVL122:
 194:../src/Pedal.cpp **** }
 1380              		.loc 1 194 21 view .LVU329
 1381 0044 FFF7FEBF 		b	_ZN5daisy3Led4InitE12dsy_gpio_pinbf
 1382              	.LVL123:
 1383              	.L60:
 194:../src/Pedal.cpp **** }
 1384              		.loc 1 194 21 view .LVU330
 1385              		.align	2
 1386              	.L59:
 1387 0048 00007A44 		.word	1148846080
 1388              		.cfi_endproc
 1389              	.LFE5686:
 1391              		.section	.text._ZN3amc5Pedal8InitMidiEv,"ax",%progbits
 1392              		.align	1
 1393              		.p2align 2,,3
 1394              		.global	_ZN3amc5Pedal8InitMidiEv
 1395              		.syntax unified
 1396              		.thumb
 1397              		.thumb_func
 1399              	_ZN3amc5Pedal8InitMidiEv:
 1400              	.LVL124:
 1401              	.LFB5687:
 198:../src/Pedal.cpp **** 	MidiUartHandler::Config config;
ARM GAS  /var/folders/83/vwtnzcdn1v99b_lf0k0gsjzr0000gn/T//ccKcGgHc.s 			page 35


 1402              		.loc 1 198 1 is_stmt 1 view -0
 1403              		.cfi_startproc
 1404              		@ args = 0, pretend = 0, frame = 80
 1405              		@ frame_needed = 0, uses_anonymous_args = 0
 199:../src/Pedal.cpp **** 	config.transport_config.rx = seed.GetPin(MIDI_RX_PIN);
 1406              		.loc 1 199 2 view .LVU332
 198:../src/Pedal.cpp **** 	MidiUartHandler::Config config;
 1407              		.loc 1 198 1 is_stmt 0 view .LVU333
 1408 0000 2DE9F043 		push	{r4, r5, r6, r7, r8, r9, lr}
 1409              		.cfi_def_cfa_offset 28
 1410              		.cfi_offset 4, -28
 1411              		.cfi_offset 5, -24
 1412              		.cfi_offset 6, -20
 1413              		.cfi_offset 7, -16
 1414              		.cfi_offset 8, -12
 1415              		.cfi_offset 9, -8
 1416              		.cfi_offset 14, -4
 1417 0004 95B0     		sub	sp, sp, #84
 1418              		.cfi_def_cfa_offset 112
 1419              	.LVL125:
 1420              	.LBB181:
 1421              	.LBI181:
 1422              		.file 4 "/Users/amc/git/libDaisy/src/hid/midi.h"
   1:/Users/amc/git/libDaisy/src/hid/midi.h **** #pragma once
   2:/Users/amc/git/libDaisy/src/hid/midi.h **** #ifndef DSY_MIDI_H
   3:/Users/amc/git/libDaisy/src/hid/midi.h **** #define DSY_MIDI_H
   4:/Users/amc/git/libDaisy/src/hid/midi.h **** 
   5:/Users/amc/git/libDaisy/src/hid/midi.h **** #include <stdint.h>
   6:/Users/amc/git/libDaisy/src/hid/midi.h **** #include <stdlib.h>
   7:/Users/amc/git/libDaisy/src/hid/midi.h **** #include <algorithm>
   8:/Users/amc/git/libDaisy/src/hid/midi.h **** #include "per/uart.h"
   9:/Users/amc/git/libDaisy/src/hid/midi.h **** #include "util/ringbuffer.h"
  10:/Users/amc/git/libDaisy/src/hid/midi.h **** #include "util/FIFO.h"
  11:/Users/amc/git/libDaisy/src/hid/midi.h **** #include "hid/midi_parser.h"
  12:/Users/amc/git/libDaisy/src/hid/midi.h **** #include "hid/usb_midi.h"
  13:/Users/amc/git/libDaisy/src/hid/midi.h **** #include "sys/dma.h"
  14:/Users/amc/git/libDaisy/src/hid/midi.h **** #include "sys/system.h"
  15:/Users/amc/git/libDaisy/src/hid/midi.h **** 
  16:/Users/amc/git/libDaisy/src/hid/midi.h **** namespace daisy
  17:/Users/amc/git/libDaisy/src/hid/midi.h **** {
  18:/Users/amc/git/libDaisy/src/hid/midi.h **** /** @brief   Transport layer for sending and receiving MIDI data over UART
  19:/Users/amc/git/libDaisy/src/hid/midi.h ****  *  @details This is the mode of communication used for TRS and DIN MIDI
  20:/Users/amc/git/libDaisy/src/hid/midi.h ****  *           There is an additional 2kB of RAM data used within this class
  21:/Users/amc/git/libDaisy/src/hid/midi.h ****  *           for processing bulk data from the UART peripheral
  22:/Users/amc/git/libDaisy/src/hid/midi.h ****  *  @ingroup midi
  23:/Users/amc/git/libDaisy/src/hid/midi.h **** */
  24:/Users/amc/git/libDaisy/src/hid/midi.h **** class MidiUartTransport
  25:/Users/amc/git/libDaisy/src/hid/midi.h **** {
  26:/Users/amc/git/libDaisy/src/hid/midi.h ****   public:
  27:/Users/amc/git/libDaisy/src/hid/midi.h ****     typedef void (*MidiRxParseCallback)(uint8_t* data,
  28:/Users/amc/git/libDaisy/src/hid/midi.h ****                                         size_t   size,
  29:/Users/amc/git/libDaisy/src/hid/midi.h ****                                         void*    context);
  30:/Users/amc/git/libDaisy/src/hid/midi.h **** 
  31:/Users/amc/git/libDaisy/src/hid/midi.h ****     MidiUartTransport() {}
  32:/Users/amc/git/libDaisy/src/hid/midi.h ****     ~MidiUartTransport() {}
  33:/Users/amc/git/libDaisy/src/hid/midi.h **** 
  34:/Users/amc/git/libDaisy/src/hid/midi.h ****     /** @brief Configuration structure for UART MIDI */
ARM GAS  /var/folders/83/vwtnzcdn1v99b_lf0k0gsjzr0000gn/T//ccKcGgHc.s 			page 36


  35:/Users/amc/git/libDaisy/src/hid/midi.h ****     struct Config
  36:/Users/amc/git/libDaisy/src/hid/midi.h ****     {
  37:/Users/amc/git/libDaisy/src/hid/midi.h ****         UartHandler::Config::Peripheral periph;
  38:/Users/amc/git/libDaisy/src/hid/midi.h ****         dsy_gpio_pin                    rx;
  39:/Users/amc/git/libDaisy/src/hid/midi.h ****         dsy_gpio_pin                    tx;
  40:/Users/amc/git/libDaisy/src/hid/midi.h **** 
  41:/Users/amc/git/libDaisy/src/hid/midi.h ****         /** Pointer to buffer for DMA UART rx byte transfer in background.
  42:/Users/amc/git/libDaisy/src/hid/midi.h ****          *
  43:/Users/amc/git/libDaisy/src/hid/midi.h ****          *  @details By default this uses a shared buffer in DMA_BUFFER_MEM_SECTION,
  44:/Users/amc/git/libDaisy/src/hid/midi.h ****          *           which can only be utilized for a single UART peripheral. To
  45:/Users/amc/git/libDaisy/src/hid/midi.h ****          *           use MIDI with multiple UART peripherals, you must provide your own
  46:/Users/amc/git/libDaisy/src/hid/midi.h ****          *           buffer, allocated to a DMA-capable memory section.
  47:/Users/amc/git/libDaisy/src/hid/midi.h ****          */
  48:/Users/amc/git/libDaisy/src/hid/midi.h ****         uint8_t* rx_buffer;
  49:/Users/amc/git/libDaisy/src/hid/midi.h **** 
  50:/Users/amc/git/libDaisy/src/hid/midi.h ****         /** Size in bytes of rx_buffer.
  51:/Users/amc/git/libDaisy/src/hid/midi.h ****          *
  52:/Users/amc/git/libDaisy/src/hid/midi.h ****          *  @details This size determines the maximum Rx bytes readable by the UART in the backgrou
  53:/Users/amc/git/libDaisy/src/hid/midi.h ****          *           By default it's set to the size of the default shared rx_buffer (256 bytes).
  54:/Users/amc/git/libDaisy/src/hid/midi.h ****          *           While much smaller sizes can be used, data can get missed if the buffer is too
  55:/Users/amc/git/libDaisy/src/hid/midi.h ****          */
  56:/Users/amc/git/libDaisy/src/hid/midi.h ****         size_t rx_buffer_size;
  57:/Users/amc/git/libDaisy/src/hid/midi.h **** 
  58:/Users/amc/git/libDaisy/src/hid/midi.h ****         Config();
  59:/Users/amc/git/libDaisy/src/hid/midi.h ****     };
  60:/Users/amc/git/libDaisy/src/hid/midi.h **** 
  61:/Users/amc/git/libDaisy/src/hid/midi.h ****     /** @brief Initialization of UART using config struct */
  62:/Users/amc/git/libDaisy/src/hid/midi.h ****     inline void Init(Config config)
  63:/Users/amc/git/libDaisy/src/hid/midi.h ****     {
  64:/Users/amc/git/libDaisy/src/hid/midi.h ****         UartHandler::Config uart_config;
  65:/Users/amc/git/libDaisy/src/hid/midi.h **** 
  66:/Users/amc/git/libDaisy/src/hid/midi.h ****         //defaults
  67:/Users/amc/git/libDaisy/src/hid/midi.h ****         uart_config.baudrate   = 31250;
  68:/Users/amc/git/libDaisy/src/hid/midi.h ****         uart_config.stopbits   = UartHandler::Config::StopBits::BITS_1;
  69:/Users/amc/git/libDaisy/src/hid/midi.h ****         uart_config.parity     = UartHandler::Config::Parity::NONE;
  70:/Users/amc/git/libDaisy/src/hid/midi.h ****         uart_config.mode       = UartHandler::Config::Mode::TX_RX;
  71:/Users/amc/git/libDaisy/src/hid/midi.h ****         uart_config.wordlength = UartHandler::Config::WordLength::BITS_8;
  72:/Users/amc/git/libDaisy/src/hid/midi.h **** 
  73:/Users/amc/git/libDaisy/src/hid/midi.h ****         //user settings
  74:/Users/amc/git/libDaisy/src/hid/midi.h ****         uart_config.periph        = config.periph;
  75:/Users/amc/git/libDaisy/src/hid/midi.h ****         uart_config.pin_config.rx = config.rx;
  76:/Users/amc/git/libDaisy/src/hid/midi.h ****         uart_config.pin_config.tx = config.tx;
  77:/Users/amc/git/libDaisy/src/hid/midi.h **** 
  78:/Users/amc/git/libDaisy/src/hid/midi.h ****         rx_buffer      = config.rx_buffer;
  79:/Users/amc/git/libDaisy/src/hid/midi.h ****         rx_buffer_size = config.rx_buffer_size;
  80:/Users/amc/git/libDaisy/src/hid/midi.h **** 
  81:/Users/amc/git/libDaisy/src/hid/midi.h ****         /** zero the buffer to ensure emptiness regardless of source memory */
  82:/Users/amc/git/libDaisy/src/hid/midi.h ****         std::fill(rx_buffer, rx_buffer + rx_buffer_size, 0);
  83:/Users/amc/git/libDaisy/src/hid/midi.h **** 
  84:/Users/amc/git/libDaisy/src/hid/midi.h ****         uart_.Init(uart_config);
  85:/Users/amc/git/libDaisy/src/hid/midi.h ****     }
  86:/Users/amc/git/libDaisy/src/hid/midi.h **** 
  87:/Users/amc/git/libDaisy/src/hid/midi.h ****     /** @brief Start the UART peripheral in listening mode.
  88:/Users/amc/git/libDaisy/src/hid/midi.h ****      *  This will fill an internal data structure in the background */
  89:/Users/amc/git/libDaisy/src/hid/midi.h ****     inline void StartRx(MidiRxParseCallback parse_callback, void* context)
  90:/Users/amc/git/libDaisy/src/hid/midi.h ****     {
  91:/Users/amc/git/libDaisy/src/hid/midi.h ****         parse_context_  = context;
ARM GAS  /var/folders/83/vwtnzcdn1v99b_lf0k0gsjzr0000gn/T//ccKcGgHc.s 			page 37


  92:/Users/amc/git/libDaisy/src/hid/midi.h ****         parse_callback_ = parse_callback;
  93:/Users/amc/git/libDaisy/src/hid/midi.h ****         dsy_dma_clear_cache_for_buffer((uint8_t*)this,
  94:/Users/amc/git/libDaisy/src/hid/midi.h ****                                        sizeof(MidiUartTransport));
  95:/Users/amc/git/libDaisy/src/hid/midi.h ****         uart_.DmaListenStart(
  96:/Users/amc/git/libDaisy/src/hid/midi.h ****             rx_buffer, rx_buffer_size, MidiUartTransport::rxCallback, this);
  97:/Users/amc/git/libDaisy/src/hid/midi.h ****     }
  98:/Users/amc/git/libDaisy/src/hid/midi.h **** 
  99:/Users/amc/git/libDaisy/src/hid/midi.h ****     /** @brief returns whether the UART peripheral is actively listening in the background or not *
 100:/Users/amc/git/libDaisy/src/hid/midi.h ****     inline bool RxActive() { return uart_.IsListening(); }
 101:/Users/amc/git/libDaisy/src/hid/midi.h **** 
 102:/Users/amc/git/libDaisy/src/hid/midi.h ****     /** @brief This is a no-op for UART transport - Rx is via DMA callback with circular buffer */
 103:/Users/amc/git/libDaisy/src/hid/midi.h ****     inline void FlushRx() {}
 104:/Users/amc/git/libDaisy/src/hid/midi.h **** 
 105:/Users/amc/git/libDaisy/src/hid/midi.h ****     /** @brief sends the buffer of bytes out of the UART peripheral */
 106:/Users/amc/git/libDaisy/src/hid/midi.h ****     inline void Tx(uint8_t* buff, size_t size) { uart_.PollTx(buff, size); }
 107:/Users/amc/git/libDaisy/src/hid/midi.h **** 
 108:/Users/amc/git/libDaisy/src/hid/midi.h ****   private:
 109:/Users/amc/git/libDaisy/src/hid/midi.h ****     UartHandler         uart_;
 110:/Users/amc/git/libDaisy/src/hid/midi.h ****     uint8_t*            rx_buffer;
 111:/Users/amc/git/libDaisy/src/hid/midi.h ****     size_t              rx_buffer_size;
 112:/Users/amc/git/libDaisy/src/hid/midi.h ****     void*               parse_context_;
 113:/Users/amc/git/libDaisy/src/hid/midi.h ****     MidiRxParseCallback parse_callback_;
 114:/Users/amc/git/libDaisy/src/hid/midi.h **** 
 115:/Users/amc/git/libDaisy/src/hid/midi.h ****     /** Static callback for Uart MIDI that occurs when
 116:/Users/amc/git/libDaisy/src/hid/midi.h ****          *  new data is available from the peripheral.
 117:/Users/amc/git/libDaisy/src/hid/midi.h ****          *  The new data is transferred from the peripheral to the
 118:/Users/amc/git/libDaisy/src/hid/midi.h ****          *  MIDI instance's byte FIFO that feeds the MIDI parser.
 119:/Users/amc/git/libDaisy/src/hid/midi.h ****          *
 120:/Users/amc/git/libDaisy/src/hid/midi.h ****          *  TODO: Handle UartHandler errors better/at all.
 121:/Users/amc/git/libDaisy/src/hid/midi.h ****          *  (If there is a UART error, there's not really any recovery
 122:/Users/amc/git/libDaisy/src/hid/midi.h ****          *  option at the moment)
 123:/Users/amc/git/libDaisy/src/hid/midi.h ****          */
 124:/Users/amc/git/libDaisy/src/hid/midi.h ****     static void rxCallback(uint8_t*            data,
 125:/Users/amc/git/libDaisy/src/hid/midi.h ****                            size_t              size,
 126:/Users/amc/git/libDaisy/src/hid/midi.h ****                            void*               context,
 127:/Users/amc/git/libDaisy/src/hid/midi.h ****                            UartHandler::Result res)
 128:/Users/amc/git/libDaisy/src/hid/midi.h ****     {
 129:/Users/amc/git/libDaisy/src/hid/midi.h ****         /** Read context as transport type */
 130:/Users/amc/git/libDaisy/src/hid/midi.h ****         MidiUartTransport* transport
 131:/Users/amc/git/libDaisy/src/hid/midi.h ****             = reinterpret_cast<MidiUartTransport*>(context);
 132:/Users/amc/git/libDaisy/src/hid/midi.h ****         if(res == UartHandler::Result::OK)
 133:/Users/amc/git/libDaisy/src/hid/midi.h ****         {
 134:/Users/amc/git/libDaisy/src/hid/midi.h ****             if(transport->parse_callback_)
 135:/Users/amc/git/libDaisy/src/hid/midi.h ****             {
 136:/Users/amc/git/libDaisy/src/hid/midi.h ****                 transport->parse_callback_(
 137:/Users/amc/git/libDaisy/src/hid/midi.h ****                     data, size, transport->parse_context_);
 138:/Users/amc/git/libDaisy/src/hid/midi.h ****             }
 139:/Users/amc/git/libDaisy/src/hid/midi.h ****         }
 140:/Users/amc/git/libDaisy/src/hid/midi.h ****     }
 141:/Users/amc/git/libDaisy/src/hid/midi.h **** };
 142:/Users/amc/git/libDaisy/src/hid/midi.h **** 
 143:/Users/amc/git/libDaisy/src/hid/midi.h **** /**
 144:/Users/amc/git/libDaisy/src/hid/midi.h ****     @brief Simple MIDI Handler \n
 145:/Users/amc/git/libDaisy/src/hid/midi.h ****     Parses bytes from an input into valid MidiEvents. \n
 146:/Users/amc/git/libDaisy/src/hid/midi.h ****     The MidiEvents fill a FIFO queue that the user can pop messages from.
 147:/Users/amc/git/libDaisy/src/hid/midi.h ****     @author shensley
 148:/Users/amc/git/libDaisy/src/hid/midi.h ****     @date March 2020
ARM GAS  /var/folders/83/vwtnzcdn1v99b_lf0k0gsjzr0000gn/T//ccKcGgHc.s 			page 38


 149:/Users/amc/git/libDaisy/src/hid/midi.h ****     @ingroup midi
 150:/Users/amc/git/libDaisy/src/hid/midi.h **** */
 151:/Users/amc/git/libDaisy/src/hid/midi.h **** template <typename Transport>
 152:/Users/amc/git/libDaisy/src/hid/midi.h **** class MidiHandler
 153:/Users/amc/git/libDaisy/src/hid/midi.h **** {
 154:/Users/amc/git/libDaisy/src/hid/midi.h ****   public:
 155:/Users/amc/git/libDaisy/src/hid/midi.h ****     MidiHandler() {}
 156:/Users/amc/git/libDaisy/src/hid/midi.h ****     ~MidiHandler() {}
 157:/Users/amc/git/libDaisy/src/hid/midi.h **** 
 158:/Users/amc/git/libDaisy/src/hid/midi.h ****     struct Config
 1423              		.loc 4 158 12 is_stmt 1 view .LVU334
 1424              	.LBE181:
 198:../src/Pedal.cpp **** 	MidiUartHandler::Config config;
 1425              		.loc 1 198 1 is_stmt 0 view .LVU335
 1426 0006 0446     		mov	r4, r0
 1427              	.LBB184:
 1428              	.LBB185:
 1429              	.LBB186:
 1430              	.LBB187:
  70:/Users/amc/git/libDaisy/src/hid/midi.h ****         uart_config.wordlength = UartHandler::Config::WordLength::BITS_8;
 1431              		.loc 4 70 32 view .LVU336
 1432 0008 4FF00209 		mov	r9, #2
 1433              	.LBE187:
 1434              	.LBE186:
 1435              	.LBE185:
 1436              	.LBE184:
 1437              	.LBB212:
 1438              	.LBB182:
 1439              		.loc 4 158 12 view .LVU337
 1440 000c 01AD     		add	r5, sp, #4
 1441              	.LVL126:
 1442              		.loc 4 158 12 view .LVU338
 1443              	.LBE182:
 1444              	.LBE212:
 1445              	.LBB213:
 1446              	.LBB208:
 159:/Users/amc/git/libDaisy/src/hid/midi.h ****     {
 160:/Users/amc/git/libDaisy/src/hid/midi.h ****         typename Transport::Config transport_config;
 161:/Users/amc/git/libDaisy/src/hid/midi.h ****     };
 162:/Users/amc/git/libDaisy/src/hid/midi.h **** 
 163:/Users/amc/git/libDaisy/src/hid/midi.h ****     /** Initializes the MidiHandler
 164:/Users/amc/git/libDaisy/src/hid/midi.h ****      *  \param config Configuration structure used to define specifics to the MIDI Handler.
 165:/Users/amc/git/libDaisy/src/hid/midi.h ****      */
 166:/Users/amc/git/libDaisy/src/hid/midi.h ****     void Init(Config config)
 167:/Users/amc/git/libDaisy/src/hid/midi.h ****     {
 168:/Users/amc/git/libDaisy/src/hid/midi.h ****         config_ = config;
 169:/Users/amc/git/libDaisy/src/hid/midi.h ****         transport_.Init(config_.transport_config);
 1447              		.loc 4 169 24 view .LVU339
 1448 000e 04F2A458 		addw	r8, r4, #1444
 1449              	.LBE208:
 1450              	.LBE213:
 1451              	.LBB214:
 1452              	.LBB183:
 158:/Users/amc/git/libDaisy/src/hid/midi.h ****     {
 1453              		.loc 4 158 12 view .LVU340
 1454 0012 2846     		mov	r0, r5
 1455              	.LVL127:
ARM GAS  /var/folders/83/vwtnzcdn1v99b_lf0k0gsjzr0000gn/T//ccKcGgHc.s 			page 39


 158:/Users/amc/git/libDaisy/src/hid/midi.h ****     {
 1456              		.loc 4 158 12 view .LVU341
 1457 0014 FFF7FEFF 		bl	_ZN5daisy17MidiUartTransport6ConfigC1Ev
 1458              	.LVL128:
 158:/Users/amc/git/libDaisy/src/hid/midi.h ****     {
 1459              		.loc 4 158 12 view .LVU342
 1460              	.LBE183:
 1461              	.LBE214:
 200:../src/Pedal.cpp **** 	config.transport_config.tx = seed.GetPin(MIDI_TX_PIN);
 1462              		.loc 1 200 2 is_stmt 1 view .LVU343
 200:../src/Pedal.cpp **** 	config.transport_config.tx = seed.GetPin(MIDI_TX_PIN);
 1463              		.loc 1 200 54 is_stmt 0 view .LVU344
 1464 0018 1E20     		movs	r0, #30
 1465 001a FFF7FEFF 		bl	_ZN5daisy9DaisySeed6GetPinEh
 1466              	.LVL129:
 1467 001e 0346     		mov	r3, r0	@ movhi
 201:../src/Pedal.cpp **** 	midi.Init(config);
 1468              		.loc 1 201 54 view .LVU345
 1469 0020 1D20     		movs	r0, #29
 200:../src/Pedal.cpp **** 	config.transport_config.tx = seed.GetPin(MIDI_TX_PIN);
 1470              		.loc 1 200 54 view .LVU346
 1471 0022 ADF80830 		strh	r3, [sp, #8]	@ movhi
 201:../src/Pedal.cpp **** 	midi.Init(config);
 1472              		.loc 1 201 2 is_stmt 1 view .LVU347
 201:../src/Pedal.cpp **** 	midi.Init(config);
 1473              		.loc 1 201 54 is_stmt 0 view .LVU348
 1474 0026 FFF7FEFF 		bl	_ZN5daisy9DaisySeed6GetPinEh
 1475              	.LVL130:
 1476 002a 0DF1140E 		add	lr, sp, #20
 1477              	.LBB215:
 1478              	.LBB209:
 168:/Users/amc/git/libDaisy/src/hid/midi.h ****         transport_.Init(config_.transport_config);
 1479              		.loc 4 168 9 view .LVU349
 1480 002e 04F2945C 		addw	ip, r4, #1428
 1481              	.LBE209:
 1482              	.LBE215:
 201:../src/Pedal.cpp **** 	midi.Init(config);
 1483              		.loc 1 201 54 view .LVU350
 1484 0032 ADF80A00 		strh	r0, [sp, #10]	@ movhi
 202:../src/Pedal.cpp **** }
 1485              		.loc 1 202 2 is_stmt 1 view .LVU351
 1486              	.LVL131:
 1487              	.LBB216:
 1488              	.LBB210:
 1489              	.LBB204:
 1490              	.LBB201:
  70:/Users/amc/git/libDaisy/src/hid/midi.h ****         uart_config.wordlength = UartHandler::Config::WordLength::BITS_8;
 1491              		.loc 4 70 32 is_stmt 0 view .LVU352
 1492 0036 CDF84490 		str	r9, [sp, #68]
 1493 003a 95E80F00 		ldm	r5, {r0, r1, r2, r3}
 1494              	.LBE201:
 1495              	.LBE204:
 168:/Users/amc/git/libDaisy/src/hid/midi.h ****         transport_.Init(config_.transport_config);
 1496              		.loc 4 168 9 view .LVU353
 1497 003e 8CE80F00 		stm	ip, {r0, r1, r2, r3}
 1498 0042 8EE80F00 		stm	lr, {r0, r1, r2, r3}
 1499              	.LBE210:
ARM GAS  /var/folders/83/vwtnzcdn1v99b_lf0k0gsjzr0000gn/T//ccKcGgHc.s 			page 40


 1500              	.LBI184:
 166:/Users/amc/git/libDaisy/src/hid/midi.h ****     {
 1501              		.loc 4 166 10 is_stmt 1 view .LVU354
 1502              	.LVL132:
 1503              	.LBB211:
 1504              	.LBB205:
 1505              	.LBB202:
 1506              	.LBB188:
 1507              	.LBB189:
 1508              	.LBB190:
 1509              		.file 5 "/Users/amc/git/libDaisy/src/per/uart.h"
   1:/Users/amc/git/libDaisy/src/per/uart.h **** /* 
   2:/Users/amc/git/libDaisy/src/per/uart.h **** TODO
   3:/Users/amc/git/libDaisy/src/per/uart.h **** - Overflow handling, etc. for Rx Queue.
   4:/Users/amc/git/libDaisy/src/per/uart.h **** */
   5:/Users/amc/git/libDaisy/src/per/uart.h **** 
   6:/Users/amc/git/libDaisy/src/per/uart.h **** #pragma once
   7:/Users/amc/git/libDaisy/src/per/uart.h **** #ifndef DSY_UART_H
   8:/Users/amc/git/libDaisy/src/per/uart.h **** #define DSY_UART_H /**< macro */
   9:/Users/amc/git/libDaisy/src/per/uart.h **** #include "daisy_core.h"
  10:/Users/amc/git/libDaisy/src/per/uart.h **** 
  11:/Users/amc/git/libDaisy/src/per/uart.h **** 
  12:/Users/amc/git/libDaisy/src/per/uart.h **** namespace daisy
  13:/Users/amc/git/libDaisy/src/per/uart.h **** {
  14:/Users/amc/git/libDaisy/src/per/uart.h **** /** @addtogroup serial
  15:/Users/amc/git/libDaisy/src/per/uart.h ****     @{
  16:/Users/amc/git/libDaisy/src/per/uart.h ****     */
  17:/Users/amc/git/libDaisy/src/per/uart.h **** 
  18:/Users/amc/git/libDaisy/src/per/uart.h **** /** 
  19:/Users/amc/git/libDaisy/src/per/uart.h ****     Uart Peripheral
  20:/Users/amc/git/libDaisy/src/per/uart.h ****     @author shensley
  21:/Users/amc/git/libDaisy/src/per/uart.h ****     @date March 2020
  22:/Users/amc/git/libDaisy/src/per/uart.h ****     */
  23:/Users/amc/git/libDaisy/src/per/uart.h **** class UartHandler
  24:/Users/amc/git/libDaisy/src/per/uart.h **** {
  25:/Users/amc/git/libDaisy/src/per/uart.h ****   public:
  26:/Users/amc/git/libDaisy/src/per/uart.h ****     struct Config
  27:/Users/amc/git/libDaisy/src/per/uart.h ****     {
  28:/Users/amc/git/libDaisy/src/per/uart.h ****         enum class Peripheral
  29:/Users/amc/git/libDaisy/src/per/uart.h ****         {
  30:/Users/amc/git/libDaisy/src/per/uart.h ****             USART_1,
  31:/Users/amc/git/libDaisy/src/per/uart.h ****             USART_2,
  32:/Users/amc/git/libDaisy/src/per/uart.h ****             USART_3,
  33:/Users/amc/git/libDaisy/src/per/uart.h ****             UART_4,
  34:/Users/amc/git/libDaisy/src/per/uart.h ****             UART_5,
  35:/Users/amc/git/libDaisy/src/per/uart.h ****             USART_6,
  36:/Users/amc/git/libDaisy/src/per/uart.h ****             UART_7,
  37:/Users/amc/git/libDaisy/src/per/uart.h ****             UART_8,
  38:/Users/amc/git/libDaisy/src/per/uart.h ****             LPUART_1,
  39:/Users/amc/git/libDaisy/src/per/uart.h ****         };
  40:/Users/amc/git/libDaisy/src/per/uart.h **** 
  41:/Users/amc/git/libDaisy/src/per/uart.h ****         enum class StopBits
  42:/Users/amc/git/libDaisy/src/per/uart.h ****         {
  43:/Users/amc/git/libDaisy/src/per/uart.h ****             BITS_0_5,
  44:/Users/amc/git/libDaisy/src/per/uart.h ****             BITS_1,
  45:/Users/amc/git/libDaisy/src/per/uart.h ****             BITS_1_5,
  46:/Users/amc/git/libDaisy/src/per/uart.h ****             BITS_2,
ARM GAS  /var/folders/83/vwtnzcdn1v99b_lf0k0gsjzr0000gn/T//ccKcGgHc.s 			page 41


  47:/Users/amc/git/libDaisy/src/per/uart.h ****         };
  48:/Users/amc/git/libDaisy/src/per/uart.h **** 
  49:/Users/amc/git/libDaisy/src/per/uart.h ****         enum class Parity
  50:/Users/amc/git/libDaisy/src/per/uart.h ****         {
  51:/Users/amc/git/libDaisy/src/per/uart.h ****             NONE,
  52:/Users/amc/git/libDaisy/src/per/uart.h ****             EVEN,
  53:/Users/amc/git/libDaisy/src/per/uart.h ****             ODD,
  54:/Users/amc/git/libDaisy/src/per/uart.h ****         };
  55:/Users/amc/git/libDaisy/src/per/uart.h **** 
  56:/Users/amc/git/libDaisy/src/per/uart.h ****         enum class Mode
  57:/Users/amc/git/libDaisy/src/per/uart.h ****         {
  58:/Users/amc/git/libDaisy/src/per/uart.h ****             RX,
  59:/Users/amc/git/libDaisy/src/per/uart.h ****             TX,
  60:/Users/amc/git/libDaisy/src/per/uart.h ****             TX_RX,
  61:/Users/amc/git/libDaisy/src/per/uart.h ****         };
  62:/Users/amc/git/libDaisy/src/per/uart.h **** 
  63:/Users/amc/git/libDaisy/src/per/uart.h ****         enum class WordLength
  64:/Users/amc/git/libDaisy/src/per/uart.h ****         {
  65:/Users/amc/git/libDaisy/src/per/uart.h ****             BITS_7,
  66:/Users/amc/git/libDaisy/src/per/uart.h ****             BITS_8,
  67:/Users/amc/git/libDaisy/src/per/uart.h ****             BITS_9,
  68:/Users/amc/git/libDaisy/src/per/uart.h ****         };
  69:/Users/amc/git/libDaisy/src/per/uart.h **** 
  70:/Users/amc/git/libDaisy/src/per/uart.h ****         struct
  71:/Users/amc/git/libDaisy/src/per/uart.h ****         {
  72:/Users/amc/git/libDaisy/src/per/uart.h ****             dsy_gpio_pin tx; /**< & */
  73:/Users/amc/git/libDaisy/src/per/uart.h ****             dsy_gpio_pin rx; /**< & */
  74:/Users/amc/git/libDaisy/src/per/uart.h ****         } pin_config;        /**< & */
  75:/Users/amc/git/libDaisy/src/per/uart.h **** 
  76:/Users/amc/git/libDaisy/src/per/uart.h ****         Config()
  77:/Users/amc/git/libDaisy/src/per/uart.h ****         {
  78:/Users/amc/git/libDaisy/src/per/uart.h ****             // user must init periph, pin_config, and mode
  79:/Users/amc/git/libDaisy/src/per/uart.h ****             stopbits   = StopBits::BITS_1;
 1510              		.loc 5 79 24 is_stmt 0 view .LVU355
 1511 0046 0123     		movs	r3, #1
 1512 0048 09AD     		add	r5, sp, #36
 1513 004a D4F89C75 		ldr	r7, [r4, #1436]
 1514              	.LVL133:
  80:/Users/amc/git/libDaisy/src/per/uart.h ****             parity     = Parity::NONE;
 1515              		.loc 5 80 24 view .LVU356
 1516 004e 4FF0000E 		mov	lr, #0
  79:/Users/amc/git/libDaisy/src/per/uart.h ****             parity     = Parity::NONE;
 1517              		.loc 5 79 24 view .LVU357
 1518 0052 0F93     		str	r3, [sp, #60]
  81:/Users/amc/git/libDaisy/src/per/uart.h ****             wordlength = WordLength::BITS_8;
 1519              		.loc 5 81 24 view .LVU358
 1520 0054 1293     		str	r3, [sp, #72]
  82:/Users/amc/git/libDaisy/src/per/uart.h ****             baudrate   = 31250;
 1521              		.loc 5 82 24 view .LVU359
 1522 0056 47F61223 		movw	r3, #31250
 1523 005a D4F8A065 		ldr	r6, [r4, #1440]
 1524              	.LVL134:
 1525              		.loc 5 82 24 view .LVU360
 1526              	.LBE190:
 1527              	.LBE189:
 1528              	.LBE188:
 1529              	.LBE202:
ARM GAS  /var/folders/83/vwtnzcdn1v99b_lf0k0gsjzr0000gn/T//ccKcGgHc.s 			page 42


 1530              	.LBI186:
  62:/Users/amc/git/libDaisy/src/hid/midi.h ****     {
 1531              		.loc 4 62 17 is_stmt 1 view .LVU361
 1532              	.LBB203:
  64:/Users/amc/git/libDaisy/src/hid/midi.h **** 
 1533              		.loc 4 64 9 view .LVU362
 1534              	.LBB195:
 1535              	.LBI188:
  76:/Users/amc/git/libDaisy/src/per/uart.h ****         {
 1536              		.loc 5 76 9 view .LVU363
 1537              	.LBB193:
 1538              	.LBB191:
  79:/Users/amc/git/libDaisy/src/per/uart.h ****             parity     = Parity::NONE;
 1539              		.loc 5 79 13 view .LVU364
  80:/Users/amc/git/libDaisy/src/per/uart.h ****             wordlength = WordLength::BITS_8;
 1540              		.loc 5 80 13 view .LVU365
  81:/Users/amc/git/libDaisy/src/per/uart.h ****             baudrate   = 31250;
 1541              		.loc 5 81 13 view .LVU366
 1542              		.loc 5 82 13 view .LVU367
 1543              		.loc 5 82 13 is_stmt 0 view .LVU368
 1544              	.LBE191:
 1545              	.LBE193:
 1546              	.LBE195:
  67:/Users/amc/git/libDaisy/src/hid/midi.h ****         uart_config.stopbits   = UartHandler::Config::StopBits::BITS_1;
 1547              		.loc 4 67 9 is_stmt 1 view .LVU369
  68:/Users/amc/git/libDaisy/src/hid/midi.h ****         uart_config.parity     = UartHandler::Config::Parity::NONE;
 1548              		.loc 4 68 9 view .LVU370
  69:/Users/amc/git/libDaisy/src/hid/midi.h ****         uart_config.mode       = UartHandler::Config::Mode::TX_RX;
 1549              		.loc 4 69 9 view .LVU371
  70:/Users/amc/git/libDaisy/src/hid/midi.h ****         uart_config.wordlength = UartHandler::Config::WordLength::BITS_8;
 1550              		.loc 4 70 9 view .LVU372
  71:/Users/amc/git/libDaisy/src/hid/midi.h **** 
 1551              		.loc 4 71 9 view .LVU373
  74:/Users/amc/git/libDaisy/src/hid/midi.h ****         uart_config.pin_config.rx = config.rx;
 1552              		.loc 4 74 9 view .LVU374
 1553              	.LBB196:
 1554              	.LBB194:
 1555              	.LBB192:
 1556              		.loc 5 82 24 is_stmt 0 view .LVU375
 1557 005e 1393     		str	r3, [sp, #76]
  80:/Users/amc/git/libDaisy/src/per/uart.h ****             wordlength = WordLength::BITS_8;
 1558              		.loc 5 80 24 view .LVU376
 1559 0060 CDF840E0 		str	lr, [sp, #64]
 1560 0064 9CE80F00 		ldm	ip, {r0, r1, r2, r3}
  80:/Users/amc/git/libDaisy/src/per/uart.h ****             wordlength = WordLength::BITS_8;
 1561              		.loc 5 80 24 view .LVU377
 1562 0068 85E80F00 		stm	r5, {r0, r1, r2, r3}
 1563              	.LBE192:
 1564              	.LBE194:
 1565              	.LBE196:
  75:/Users/amc/git/libDaisy/src/hid/midi.h ****         uart_config.pin_config.tx = config.tx;
 1566              		.loc 4 75 35 view .LVU378
 1567 006c BDF82830 		ldrh	r3, [sp, #40]
  74:/Users/amc/git/libDaisy/src/hid/midi.h ****         uart_config.pin_config.rx = config.rx;
 1568              		.loc 4 74 35 view .LVU379
 1569 0070 0E90     		str	r0, [sp, #56]
  75:/Users/amc/git/libDaisy/src/hid/midi.h ****         uart_config.pin_config.tx = config.tx;
ARM GAS  /var/folders/83/vwtnzcdn1v99b_lf0k0gsjzr0000gn/T//ccKcGgHc.s 			page 43


 1570              		.loc 4 75 9 is_stmt 1 view .LVU380
  78:/Users/amc/git/libDaisy/src/hid/midi.h ****         rx_buffer_size = config.rx_buffer_size;
 1571              		.loc 4 78 24 is_stmt 0 view .LVU381
 1572 0072 C4F8A875 		str	r7, [r4, #1448]
  79:/Users/amc/git/libDaisy/src/hid/midi.h **** 
 1573              		.loc 4 79 24 view .LVU382
 1574 0076 C4F8AC65 		str	r6, [r4, #1452]
  75:/Users/amc/git/libDaisy/src/hid/midi.h ****         uart_config.pin_config.tx = config.tx;
 1575              		.loc 4 75 35 view .LVU383
 1576 007a ADF83630 		strh	r3, [sp, #54]	@ movhi
  76:/Users/amc/git/libDaisy/src/hid/midi.h **** 
 1577              		.loc 4 76 9 is_stmt 1 view .LVU384
  76:/Users/amc/git/libDaisy/src/hid/midi.h **** 
 1578              		.loc 4 76 35 is_stmt 0 view .LVU385
 1579 007e BDF82A30 		ldrh	r3, [sp, #42]
 1580 0082 ADF83430 		strh	r3, [sp, #52]	@ movhi
  78:/Users/amc/git/libDaisy/src/hid/midi.h ****         rx_buffer_size = config.rx_buffer_size;
 1581              		.loc 4 78 9 is_stmt 1 view .LVU386
  79:/Users/amc/git/libDaisy/src/hid/midi.h **** 
 1582              		.loc 4 79 9 view .LVU387
  82:/Users/amc/git/libDaisy/src/hid/midi.h **** 
 1583              		.loc 4 82 9 view .LVU388
 1584              	.LVL135:
 1585              	.LBB197:
 1586              	.LBI197:
 1587              		.file 6 "/Applications/ARM/arm-none-eabi/include/c++/10.3.1/bits/stl_algobase.h"
   1:/Applications/ARM/arm-none-eabi/include/c++/10.3.1/bits/stl_algobase.h **** // Core algorithmic facilities -*- C++ -*-
   2:/Applications/ARM/arm-none-eabi/include/c++/10.3.1/bits/stl_algobase.h **** 
   3:/Applications/ARM/arm-none-eabi/include/c++/10.3.1/bits/stl_algobase.h **** // Copyright (C) 2001-2020 Free Software Foundation, Inc.
   4:/Applications/ARM/arm-none-eabi/include/c++/10.3.1/bits/stl_algobase.h **** //
   5:/Applications/ARM/arm-none-eabi/include/c++/10.3.1/bits/stl_algobase.h **** // This file is part of the GNU ISO C++ Library.  This library is free
   6:/Applications/ARM/arm-none-eabi/include/c++/10.3.1/bits/stl_algobase.h **** // software; you can redistribute it and/or modify it under the
   7:/Applications/ARM/arm-none-eabi/include/c++/10.3.1/bits/stl_algobase.h **** // terms of the GNU General Public License as published by the
   8:/Applications/ARM/arm-none-eabi/include/c++/10.3.1/bits/stl_algobase.h **** // Free Software Foundation; either version 3, or (at your option)
   9:/Applications/ARM/arm-none-eabi/include/c++/10.3.1/bits/stl_algobase.h **** // any later version.
  10:/Applications/ARM/arm-none-eabi/include/c++/10.3.1/bits/stl_algobase.h **** 
  11:/Applications/ARM/arm-none-eabi/include/c++/10.3.1/bits/stl_algobase.h **** // This library is distributed in the hope that it will be useful,
  12:/Applications/ARM/arm-none-eabi/include/c++/10.3.1/bits/stl_algobase.h **** // but WITHOUT ANY WARRANTY; without even the implied warranty of
  13:/Applications/ARM/arm-none-eabi/include/c++/10.3.1/bits/stl_algobase.h **** // MERCHANTABILITY or FITNESS FOR A PARTICULAR PURPOSE.  See the
  14:/Applications/ARM/arm-none-eabi/include/c++/10.3.1/bits/stl_algobase.h **** // GNU General Public License for more details.
  15:/Applications/ARM/arm-none-eabi/include/c++/10.3.1/bits/stl_algobase.h **** 
  16:/Applications/ARM/arm-none-eabi/include/c++/10.3.1/bits/stl_algobase.h **** // Under Section 7 of GPL version 3, you are granted additional
  17:/Applications/ARM/arm-none-eabi/include/c++/10.3.1/bits/stl_algobase.h **** // permissions described in the GCC Runtime Library Exception, version
  18:/Applications/ARM/arm-none-eabi/include/c++/10.3.1/bits/stl_algobase.h **** // 3.1, as published by the Free Software Foundation.
  19:/Applications/ARM/arm-none-eabi/include/c++/10.3.1/bits/stl_algobase.h **** 
  20:/Applications/ARM/arm-none-eabi/include/c++/10.3.1/bits/stl_algobase.h **** // You should have received a copy of the GNU General Public License and
  21:/Applications/ARM/arm-none-eabi/include/c++/10.3.1/bits/stl_algobase.h **** // a copy of the GCC Runtime Library Exception along with this program;
  22:/Applications/ARM/arm-none-eabi/include/c++/10.3.1/bits/stl_algobase.h **** // see the files COPYING3 and COPYING.RUNTIME respectively.  If not, see
  23:/Applications/ARM/arm-none-eabi/include/c++/10.3.1/bits/stl_algobase.h **** // <http://www.gnu.org/licenses/>.
  24:/Applications/ARM/arm-none-eabi/include/c++/10.3.1/bits/stl_algobase.h **** 
  25:/Applications/ARM/arm-none-eabi/include/c++/10.3.1/bits/stl_algobase.h **** /*
  26:/Applications/ARM/arm-none-eabi/include/c++/10.3.1/bits/stl_algobase.h ****  *
  27:/Applications/ARM/arm-none-eabi/include/c++/10.3.1/bits/stl_algobase.h ****  * Copyright (c) 1994
  28:/Applications/ARM/arm-none-eabi/include/c++/10.3.1/bits/stl_algobase.h ****  * Hewlett-Packard Company
  29:/Applications/ARM/arm-none-eabi/include/c++/10.3.1/bits/stl_algobase.h ****  *
  30:/Applications/ARM/arm-none-eabi/include/c++/10.3.1/bits/stl_algobase.h ****  * Permission to use, copy, modify, distribute and sell this software
  31:/Applications/ARM/arm-none-eabi/include/c++/10.3.1/bits/stl_algobase.h ****  * and its documentation for any purpose is hereby granted without fee,
ARM GAS  /var/folders/83/vwtnzcdn1v99b_lf0k0gsjzr0000gn/T//ccKcGgHc.s 			page 44


  32:/Applications/ARM/arm-none-eabi/include/c++/10.3.1/bits/stl_algobase.h ****  * provided that the above copyright notice appear in all copies and
  33:/Applications/ARM/arm-none-eabi/include/c++/10.3.1/bits/stl_algobase.h ****  * that both that copyright notice and this permission notice appear
  34:/Applications/ARM/arm-none-eabi/include/c++/10.3.1/bits/stl_algobase.h ****  * in supporting documentation.  Hewlett-Packard Company makes no
  35:/Applications/ARM/arm-none-eabi/include/c++/10.3.1/bits/stl_algobase.h ****  * representations about the suitability of this software for any
  36:/Applications/ARM/arm-none-eabi/include/c++/10.3.1/bits/stl_algobase.h ****  * purpose.  It is provided "as is" without express or implied warranty.
  37:/Applications/ARM/arm-none-eabi/include/c++/10.3.1/bits/stl_algobase.h ****  *
  38:/Applications/ARM/arm-none-eabi/include/c++/10.3.1/bits/stl_algobase.h ****  *
  39:/Applications/ARM/arm-none-eabi/include/c++/10.3.1/bits/stl_algobase.h ****  * Copyright (c) 1996-1998
  40:/Applications/ARM/arm-none-eabi/include/c++/10.3.1/bits/stl_algobase.h ****  * Silicon Graphics Computer Systems, Inc.
  41:/Applications/ARM/arm-none-eabi/include/c++/10.3.1/bits/stl_algobase.h ****  *
  42:/Applications/ARM/arm-none-eabi/include/c++/10.3.1/bits/stl_algobase.h ****  * Permission to use, copy, modify, distribute and sell this software
  43:/Applications/ARM/arm-none-eabi/include/c++/10.3.1/bits/stl_algobase.h ****  * and its documentation for any purpose is hereby granted without fee,
  44:/Applications/ARM/arm-none-eabi/include/c++/10.3.1/bits/stl_algobase.h ****  * provided that the above copyright notice appear in all copies and
  45:/Applications/ARM/arm-none-eabi/include/c++/10.3.1/bits/stl_algobase.h ****  * that both that copyright notice and this permission notice appear
  46:/Applications/ARM/arm-none-eabi/include/c++/10.3.1/bits/stl_algobase.h ****  * in supporting documentation.  Silicon Graphics makes no
  47:/Applications/ARM/arm-none-eabi/include/c++/10.3.1/bits/stl_algobase.h ****  * representations about the suitability of this software for any
  48:/Applications/ARM/arm-none-eabi/include/c++/10.3.1/bits/stl_algobase.h ****  * purpose.  It is provided "as is" without express or implied warranty.
  49:/Applications/ARM/arm-none-eabi/include/c++/10.3.1/bits/stl_algobase.h ****  */
  50:/Applications/ARM/arm-none-eabi/include/c++/10.3.1/bits/stl_algobase.h **** 
  51:/Applications/ARM/arm-none-eabi/include/c++/10.3.1/bits/stl_algobase.h **** /** @file bits/stl_algobase.h
  52:/Applications/ARM/arm-none-eabi/include/c++/10.3.1/bits/stl_algobase.h ****  *  This is an internal header file, included by other library headers.
  53:/Applications/ARM/arm-none-eabi/include/c++/10.3.1/bits/stl_algobase.h ****  *  Do not attempt to use it directly. @headername{algorithm}
  54:/Applications/ARM/arm-none-eabi/include/c++/10.3.1/bits/stl_algobase.h ****  */
  55:/Applications/ARM/arm-none-eabi/include/c++/10.3.1/bits/stl_algobase.h **** 
  56:/Applications/ARM/arm-none-eabi/include/c++/10.3.1/bits/stl_algobase.h **** #ifndef _STL_ALGOBASE_H
  57:/Applications/ARM/arm-none-eabi/include/c++/10.3.1/bits/stl_algobase.h **** #define _STL_ALGOBASE_H 1
  58:/Applications/ARM/arm-none-eabi/include/c++/10.3.1/bits/stl_algobase.h **** 
  59:/Applications/ARM/arm-none-eabi/include/c++/10.3.1/bits/stl_algobase.h **** #include <bits/c++config.h>
  60:/Applications/ARM/arm-none-eabi/include/c++/10.3.1/bits/stl_algobase.h **** #include <bits/functexcept.h>
  61:/Applications/ARM/arm-none-eabi/include/c++/10.3.1/bits/stl_algobase.h **** #include <bits/cpp_type_traits.h>
  62:/Applications/ARM/arm-none-eabi/include/c++/10.3.1/bits/stl_algobase.h **** #include <ext/type_traits.h>
  63:/Applications/ARM/arm-none-eabi/include/c++/10.3.1/bits/stl_algobase.h **** #include <ext/numeric_traits.h>
  64:/Applications/ARM/arm-none-eabi/include/c++/10.3.1/bits/stl_algobase.h **** #include <bits/stl_pair.h>
  65:/Applications/ARM/arm-none-eabi/include/c++/10.3.1/bits/stl_algobase.h **** #include <bits/stl_iterator_base_types.h>
  66:/Applications/ARM/arm-none-eabi/include/c++/10.3.1/bits/stl_algobase.h **** #include <bits/stl_iterator_base_funcs.h>
  67:/Applications/ARM/arm-none-eabi/include/c++/10.3.1/bits/stl_algobase.h **** #include <bits/stl_iterator.h>
  68:/Applications/ARM/arm-none-eabi/include/c++/10.3.1/bits/stl_algobase.h **** #include <bits/concept_check.h>
  69:/Applications/ARM/arm-none-eabi/include/c++/10.3.1/bits/stl_algobase.h **** #include <debug/debug.h>
  70:/Applications/ARM/arm-none-eabi/include/c++/10.3.1/bits/stl_algobase.h **** #include <bits/move.h> // For std::swap
  71:/Applications/ARM/arm-none-eabi/include/c++/10.3.1/bits/stl_algobase.h **** #include <bits/predefined_ops.h>
  72:/Applications/ARM/arm-none-eabi/include/c++/10.3.1/bits/stl_algobase.h **** #if __cplusplus >= 201103L
  73:/Applications/ARM/arm-none-eabi/include/c++/10.3.1/bits/stl_algobase.h **** # include <type_traits>
  74:/Applications/ARM/arm-none-eabi/include/c++/10.3.1/bits/stl_algobase.h **** #endif
  75:/Applications/ARM/arm-none-eabi/include/c++/10.3.1/bits/stl_algobase.h **** #if __cplusplus > 201703L
  76:/Applications/ARM/arm-none-eabi/include/c++/10.3.1/bits/stl_algobase.h **** # include <compare>
  77:/Applications/ARM/arm-none-eabi/include/c++/10.3.1/bits/stl_algobase.h **** #endif
  78:/Applications/ARM/arm-none-eabi/include/c++/10.3.1/bits/stl_algobase.h **** 
  79:/Applications/ARM/arm-none-eabi/include/c++/10.3.1/bits/stl_algobase.h **** namespace std _GLIBCXX_VISIBILITY(default)
  80:/Applications/ARM/arm-none-eabi/include/c++/10.3.1/bits/stl_algobase.h **** {
  81:/Applications/ARM/arm-none-eabi/include/c++/10.3.1/bits/stl_algobase.h **** _GLIBCXX_BEGIN_NAMESPACE_VERSION
  82:/Applications/ARM/arm-none-eabi/include/c++/10.3.1/bits/stl_algobase.h **** 
  83:/Applications/ARM/arm-none-eabi/include/c++/10.3.1/bits/stl_algobase.h ****   /*
  84:/Applications/ARM/arm-none-eabi/include/c++/10.3.1/bits/stl_algobase.h ****    * A constexpr wrapper for __builtin_memcmp.
  85:/Applications/ARM/arm-none-eabi/include/c++/10.3.1/bits/stl_algobase.h ****    * @param __num The number of elements of type _Tp (not bytes).
  86:/Applications/ARM/arm-none-eabi/include/c++/10.3.1/bits/stl_algobase.h ****    */
  87:/Applications/ARM/arm-none-eabi/include/c++/10.3.1/bits/stl_algobase.h ****   template<typename _Tp, typename _Up>
  88:/Applications/ARM/arm-none-eabi/include/c++/10.3.1/bits/stl_algobase.h ****     _GLIBCXX14_CONSTEXPR
ARM GAS  /var/folders/83/vwtnzcdn1v99b_lf0k0gsjzr0000gn/T//ccKcGgHc.s 			page 45


  89:/Applications/ARM/arm-none-eabi/include/c++/10.3.1/bits/stl_algobase.h ****     inline int
  90:/Applications/ARM/arm-none-eabi/include/c++/10.3.1/bits/stl_algobase.h ****     __memcmp(const _Tp* __first1, const _Up* __first2, size_t __num)
  91:/Applications/ARM/arm-none-eabi/include/c++/10.3.1/bits/stl_algobase.h ****     {
  92:/Applications/ARM/arm-none-eabi/include/c++/10.3.1/bits/stl_algobase.h **** #if __cplusplus >= 201103L
  93:/Applications/ARM/arm-none-eabi/include/c++/10.3.1/bits/stl_algobase.h ****       static_assert(sizeof(_Tp) == sizeof(_Up), "can be compared with memcmp");
  94:/Applications/ARM/arm-none-eabi/include/c++/10.3.1/bits/stl_algobase.h **** #endif
  95:/Applications/ARM/arm-none-eabi/include/c++/10.3.1/bits/stl_algobase.h **** #ifdef __cpp_lib_is_constant_evaluated
  96:/Applications/ARM/arm-none-eabi/include/c++/10.3.1/bits/stl_algobase.h ****       if (std::is_constant_evaluated())
  97:/Applications/ARM/arm-none-eabi/include/c++/10.3.1/bits/stl_algobase.h **** 	{
  98:/Applications/ARM/arm-none-eabi/include/c++/10.3.1/bits/stl_algobase.h **** 	  for(; __num > 0; ++__first1, ++__first2, --__num)
  99:/Applications/ARM/arm-none-eabi/include/c++/10.3.1/bits/stl_algobase.h **** 	    if (*__first1 != *__first2)
 100:/Applications/ARM/arm-none-eabi/include/c++/10.3.1/bits/stl_algobase.h **** 	      return *__first1 < *__first2 ? -1 : 1;
 101:/Applications/ARM/arm-none-eabi/include/c++/10.3.1/bits/stl_algobase.h **** 	  return 0;
 102:/Applications/ARM/arm-none-eabi/include/c++/10.3.1/bits/stl_algobase.h **** 	}
 103:/Applications/ARM/arm-none-eabi/include/c++/10.3.1/bits/stl_algobase.h ****       else
 104:/Applications/ARM/arm-none-eabi/include/c++/10.3.1/bits/stl_algobase.h **** #endif
 105:/Applications/ARM/arm-none-eabi/include/c++/10.3.1/bits/stl_algobase.h **** 	return __builtin_memcmp(__first1, __first2, sizeof(_Tp) * __num);
 106:/Applications/ARM/arm-none-eabi/include/c++/10.3.1/bits/stl_algobase.h ****     }
 107:/Applications/ARM/arm-none-eabi/include/c++/10.3.1/bits/stl_algobase.h **** 
 108:/Applications/ARM/arm-none-eabi/include/c++/10.3.1/bits/stl_algobase.h **** #if __cplusplus < 201103L
 109:/Applications/ARM/arm-none-eabi/include/c++/10.3.1/bits/stl_algobase.h ****   // See http://gcc.gnu.org/ml/libstdc++/2004-08/msg00167.html: in a
 110:/Applications/ARM/arm-none-eabi/include/c++/10.3.1/bits/stl_algobase.h ****   // nutshell, we are partially implementing the resolution of DR 187,
 111:/Applications/ARM/arm-none-eabi/include/c++/10.3.1/bits/stl_algobase.h ****   // when it's safe, i.e., the value_types are equal.
 112:/Applications/ARM/arm-none-eabi/include/c++/10.3.1/bits/stl_algobase.h ****   template<bool _BoolType>
 113:/Applications/ARM/arm-none-eabi/include/c++/10.3.1/bits/stl_algobase.h ****     struct __iter_swap
 114:/Applications/ARM/arm-none-eabi/include/c++/10.3.1/bits/stl_algobase.h ****     {
 115:/Applications/ARM/arm-none-eabi/include/c++/10.3.1/bits/stl_algobase.h ****       template<typename _ForwardIterator1, typename _ForwardIterator2>
 116:/Applications/ARM/arm-none-eabi/include/c++/10.3.1/bits/stl_algobase.h **** 	static void
 117:/Applications/ARM/arm-none-eabi/include/c++/10.3.1/bits/stl_algobase.h **** 	iter_swap(_ForwardIterator1 __a, _ForwardIterator2 __b)
 118:/Applications/ARM/arm-none-eabi/include/c++/10.3.1/bits/stl_algobase.h **** 	{
 119:/Applications/ARM/arm-none-eabi/include/c++/10.3.1/bits/stl_algobase.h **** 	  typedef typename iterator_traits<_ForwardIterator1>::value_type
 120:/Applications/ARM/arm-none-eabi/include/c++/10.3.1/bits/stl_algobase.h **** 	    _ValueType1;
 121:/Applications/ARM/arm-none-eabi/include/c++/10.3.1/bits/stl_algobase.h **** 	  _ValueType1 __tmp = *__a;
 122:/Applications/ARM/arm-none-eabi/include/c++/10.3.1/bits/stl_algobase.h **** 	  *__a = *__b;
 123:/Applications/ARM/arm-none-eabi/include/c++/10.3.1/bits/stl_algobase.h **** 	  *__b = __tmp;
 124:/Applications/ARM/arm-none-eabi/include/c++/10.3.1/bits/stl_algobase.h **** 	}
 125:/Applications/ARM/arm-none-eabi/include/c++/10.3.1/bits/stl_algobase.h ****     };
 126:/Applications/ARM/arm-none-eabi/include/c++/10.3.1/bits/stl_algobase.h **** 
 127:/Applications/ARM/arm-none-eabi/include/c++/10.3.1/bits/stl_algobase.h ****   template<>
 128:/Applications/ARM/arm-none-eabi/include/c++/10.3.1/bits/stl_algobase.h ****     struct __iter_swap<true>
 129:/Applications/ARM/arm-none-eabi/include/c++/10.3.1/bits/stl_algobase.h ****     {
 130:/Applications/ARM/arm-none-eabi/include/c++/10.3.1/bits/stl_algobase.h ****       template<typename _ForwardIterator1, typename _ForwardIterator2>
 131:/Applications/ARM/arm-none-eabi/include/c++/10.3.1/bits/stl_algobase.h **** 	static void
 132:/Applications/ARM/arm-none-eabi/include/c++/10.3.1/bits/stl_algobase.h **** 	iter_swap(_ForwardIterator1 __a, _ForwardIterator2 __b)
 133:/Applications/ARM/arm-none-eabi/include/c++/10.3.1/bits/stl_algobase.h **** 	{
 134:/Applications/ARM/arm-none-eabi/include/c++/10.3.1/bits/stl_algobase.h **** 	  swap(*__a, *__b);
 135:/Applications/ARM/arm-none-eabi/include/c++/10.3.1/bits/stl_algobase.h **** 	}
 136:/Applications/ARM/arm-none-eabi/include/c++/10.3.1/bits/stl_algobase.h ****     };
 137:/Applications/ARM/arm-none-eabi/include/c++/10.3.1/bits/stl_algobase.h **** #endif // C++03
 138:/Applications/ARM/arm-none-eabi/include/c++/10.3.1/bits/stl_algobase.h **** 
 139:/Applications/ARM/arm-none-eabi/include/c++/10.3.1/bits/stl_algobase.h ****   /**
 140:/Applications/ARM/arm-none-eabi/include/c++/10.3.1/bits/stl_algobase.h ****    *  @brief Swaps the contents of two iterators.
 141:/Applications/ARM/arm-none-eabi/include/c++/10.3.1/bits/stl_algobase.h ****    *  @ingroup mutating_algorithms
 142:/Applications/ARM/arm-none-eabi/include/c++/10.3.1/bits/stl_algobase.h ****    *  @param  __a  An iterator.
 143:/Applications/ARM/arm-none-eabi/include/c++/10.3.1/bits/stl_algobase.h ****    *  @param  __b  Another iterator.
 144:/Applications/ARM/arm-none-eabi/include/c++/10.3.1/bits/stl_algobase.h ****    *  @return   Nothing.
 145:/Applications/ARM/arm-none-eabi/include/c++/10.3.1/bits/stl_algobase.h ****    *
ARM GAS  /var/folders/83/vwtnzcdn1v99b_lf0k0gsjzr0000gn/T//ccKcGgHc.s 			page 46


 146:/Applications/ARM/arm-none-eabi/include/c++/10.3.1/bits/stl_algobase.h ****    *  This function swaps the values pointed to by two iterators, not the
 147:/Applications/ARM/arm-none-eabi/include/c++/10.3.1/bits/stl_algobase.h ****    *  iterators themselves.
 148:/Applications/ARM/arm-none-eabi/include/c++/10.3.1/bits/stl_algobase.h ****   */
 149:/Applications/ARM/arm-none-eabi/include/c++/10.3.1/bits/stl_algobase.h ****   template<typename _ForwardIterator1, typename _ForwardIterator2>
 150:/Applications/ARM/arm-none-eabi/include/c++/10.3.1/bits/stl_algobase.h ****     _GLIBCXX20_CONSTEXPR
 151:/Applications/ARM/arm-none-eabi/include/c++/10.3.1/bits/stl_algobase.h ****     inline void
 152:/Applications/ARM/arm-none-eabi/include/c++/10.3.1/bits/stl_algobase.h ****     iter_swap(_ForwardIterator1 __a, _ForwardIterator2 __b)
 153:/Applications/ARM/arm-none-eabi/include/c++/10.3.1/bits/stl_algobase.h ****     {
 154:/Applications/ARM/arm-none-eabi/include/c++/10.3.1/bits/stl_algobase.h ****       // concept requirements
 155:/Applications/ARM/arm-none-eabi/include/c++/10.3.1/bits/stl_algobase.h ****       __glibcxx_function_requires(_Mutable_ForwardIteratorConcept<
 156:/Applications/ARM/arm-none-eabi/include/c++/10.3.1/bits/stl_algobase.h **** 				  _ForwardIterator1>)
 157:/Applications/ARM/arm-none-eabi/include/c++/10.3.1/bits/stl_algobase.h ****       __glibcxx_function_requires(_Mutable_ForwardIteratorConcept<
 158:/Applications/ARM/arm-none-eabi/include/c++/10.3.1/bits/stl_algobase.h **** 				  _ForwardIterator2>)
 159:/Applications/ARM/arm-none-eabi/include/c++/10.3.1/bits/stl_algobase.h **** 
 160:/Applications/ARM/arm-none-eabi/include/c++/10.3.1/bits/stl_algobase.h **** #if __cplusplus < 201103L
 161:/Applications/ARM/arm-none-eabi/include/c++/10.3.1/bits/stl_algobase.h ****       typedef typename iterator_traits<_ForwardIterator1>::value_type
 162:/Applications/ARM/arm-none-eabi/include/c++/10.3.1/bits/stl_algobase.h **** 	_ValueType1;
 163:/Applications/ARM/arm-none-eabi/include/c++/10.3.1/bits/stl_algobase.h ****       typedef typename iterator_traits<_ForwardIterator2>::value_type
 164:/Applications/ARM/arm-none-eabi/include/c++/10.3.1/bits/stl_algobase.h **** 	_ValueType2;
 165:/Applications/ARM/arm-none-eabi/include/c++/10.3.1/bits/stl_algobase.h **** 
 166:/Applications/ARM/arm-none-eabi/include/c++/10.3.1/bits/stl_algobase.h ****       __glibcxx_function_requires(_ConvertibleConcept<_ValueType1,
 167:/Applications/ARM/arm-none-eabi/include/c++/10.3.1/bits/stl_algobase.h **** 				  _ValueType2>)
 168:/Applications/ARM/arm-none-eabi/include/c++/10.3.1/bits/stl_algobase.h ****       __glibcxx_function_requires(_ConvertibleConcept<_ValueType2,
 169:/Applications/ARM/arm-none-eabi/include/c++/10.3.1/bits/stl_algobase.h **** 				  _ValueType1>)
 170:/Applications/ARM/arm-none-eabi/include/c++/10.3.1/bits/stl_algobase.h **** 
 171:/Applications/ARM/arm-none-eabi/include/c++/10.3.1/bits/stl_algobase.h ****       typedef typename iterator_traits<_ForwardIterator1>::reference
 172:/Applications/ARM/arm-none-eabi/include/c++/10.3.1/bits/stl_algobase.h **** 	_ReferenceType1;
 173:/Applications/ARM/arm-none-eabi/include/c++/10.3.1/bits/stl_algobase.h ****       typedef typename iterator_traits<_ForwardIterator2>::reference
 174:/Applications/ARM/arm-none-eabi/include/c++/10.3.1/bits/stl_algobase.h **** 	_ReferenceType2;
 175:/Applications/ARM/arm-none-eabi/include/c++/10.3.1/bits/stl_algobase.h ****       std::__iter_swap<__are_same<_ValueType1, _ValueType2>::__value
 176:/Applications/ARM/arm-none-eabi/include/c++/10.3.1/bits/stl_algobase.h **** 	&& __are_same<_ValueType1&, _ReferenceType1>::__value
 177:/Applications/ARM/arm-none-eabi/include/c++/10.3.1/bits/stl_algobase.h **** 	&& __are_same<_ValueType2&, _ReferenceType2>::__value>::
 178:/Applications/ARM/arm-none-eabi/include/c++/10.3.1/bits/stl_algobase.h **** 	iter_swap(__a, __b);
 179:/Applications/ARM/arm-none-eabi/include/c++/10.3.1/bits/stl_algobase.h **** #else
 180:/Applications/ARM/arm-none-eabi/include/c++/10.3.1/bits/stl_algobase.h ****       // _GLIBCXX_RESOLVE_LIB_DEFECTS
 181:/Applications/ARM/arm-none-eabi/include/c++/10.3.1/bits/stl_algobase.h ****       // 187. iter_swap underspecified
 182:/Applications/ARM/arm-none-eabi/include/c++/10.3.1/bits/stl_algobase.h ****       swap(*__a, *__b);
 183:/Applications/ARM/arm-none-eabi/include/c++/10.3.1/bits/stl_algobase.h **** #endif
 184:/Applications/ARM/arm-none-eabi/include/c++/10.3.1/bits/stl_algobase.h ****     }
 185:/Applications/ARM/arm-none-eabi/include/c++/10.3.1/bits/stl_algobase.h **** 
 186:/Applications/ARM/arm-none-eabi/include/c++/10.3.1/bits/stl_algobase.h ****   /**
 187:/Applications/ARM/arm-none-eabi/include/c++/10.3.1/bits/stl_algobase.h ****    *  @brief Swap the elements of two sequences.
 188:/Applications/ARM/arm-none-eabi/include/c++/10.3.1/bits/stl_algobase.h ****    *  @ingroup mutating_algorithms
 189:/Applications/ARM/arm-none-eabi/include/c++/10.3.1/bits/stl_algobase.h ****    *  @param  __first1  A forward iterator.
 190:/Applications/ARM/arm-none-eabi/include/c++/10.3.1/bits/stl_algobase.h ****    *  @param  __last1   A forward iterator.
 191:/Applications/ARM/arm-none-eabi/include/c++/10.3.1/bits/stl_algobase.h ****    *  @param  __first2  A forward iterator.
 192:/Applications/ARM/arm-none-eabi/include/c++/10.3.1/bits/stl_algobase.h ****    *  @return   An iterator equal to @p first2+(last1-first1).
 193:/Applications/ARM/arm-none-eabi/include/c++/10.3.1/bits/stl_algobase.h ****    *
 194:/Applications/ARM/arm-none-eabi/include/c++/10.3.1/bits/stl_algobase.h ****    *  Swaps each element in the range @p [first1,last1) with the
 195:/Applications/ARM/arm-none-eabi/include/c++/10.3.1/bits/stl_algobase.h ****    *  corresponding element in the range @p [first2,(last1-first1)).
 196:/Applications/ARM/arm-none-eabi/include/c++/10.3.1/bits/stl_algobase.h ****    *  The ranges must not overlap.
 197:/Applications/ARM/arm-none-eabi/include/c++/10.3.1/bits/stl_algobase.h ****   */
 198:/Applications/ARM/arm-none-eabi/include/c++/10.3.1/bits/stl_algobase.h ****   template<typename _ForwardIterator1, typename _ForwardIterator2>
 199:/Applications/ARM/arm-none-eabi/include/c++/10.3.1/bits/stl_algobase.h ****     _GLIBCXX20_CONSTEXPR
 200:/Applications/ARM/arm-none-eabi/include/c++/10.3.1/bits/stl_algobase.h ****     _ForwardIterator2
 201:/Applications/ARM/arm-none-eabi/include/c++/10.3.1/bits/stl_algobase.h ****     swap_ranges(_ForwardIterator1 __first1, _ForwardIterator1 __last1,
 202:/Applications/ARM/arm-none-eabi/include/c++/10.3.1/bits/stl_algobase.h **** 		_ForwardIterator2 __first2)
ARM GAS  /var/folders/83/vwtnzcdn1v99b_lf0k0gsjzr0000gn/T//ccKcGgHc.s 			page 47


 203:/Applications/ARM/arm-none-eabi/include/c++/10.3.1/bits/stl_algobase.h ****     {
 204:/Applications/ARM/arm-none-eabi/include/c++/10.3.1/bits/stl_algobase.h ****       // concept requirements
 205:/Applications/ARM/arm-none-eabi/include/c++/10.3.1/bits/stl_algobase.h ****       __glibcxx_function_requires(_Mutable_ForwardIteratorConcept<
 206:/Applications/ARM/arm-none-eabi/include/c++/10.3.1/bits/stl_algobase.h **** 				  _ForwardIterator1>)
 207:/Applications/ARM/arm-none-eabi/include/c++/10.3.1/bits/stl_algobase.h ****       __glibcxx_function_requires(_Mutable_ForwardIteratorConcept<
 208:/Applications/ARM/arm-none-eabi/include/c++/10.3.1/bits/stl_algobase.h **** 				  _ForwardIterator2>)
 209:/Applications/ARM/arm-none-eabi/include/c++/10.3.1/bits/stl_algobase.h ****       __glibcxx_requires_valid_range(__first1, __last1);
 210:/Applications/ARM/arm-none-eabi/include/c++/10.3.1/bits/stl_algobase.h **** 
 211:/Applications/ARM/arm-none-eabi/include/c++/10.3.1/bits/stl_algobase.h ****       for (; __first1 != __last1; ++__first1, (void)++__first2)
 212:/Applications/ARM/arm-none-eabi/include/c++/10.3.1/bits/stl_algobase.h **** 	std::iter_swap(__first1, __first2);
 213:/Applications/ARM/arm-none-eabi/include/c++/10.3.1/bits/stl_algobase.h ****       return __first2;
 214:/Applications/ARM/arm-none-eabi/include/c++/10.3.1/bits/stl_algobase.h ****     }
 215:/Applications/ARM/arm-none-eabi/include/c++/10.3.1/bits/stl_algobase.h **** 
 216:/Applications/ARM/arm-none-eabi/include/c++/10.3.1/bits/stl_algobase.h ****   /**
 217:/Applications/ARM/arm-none-eabi/include/c++/10.3.1/bits/stl_algobase.h ****    *  @brief This does what you think it does.
 218:/Applications/ARM/arm-none-eabi/include/c++/10.3.1/bits/stl_algobase.h ****    *  @ingroup sorting_algorithms
 219:/Applications/ARM/arm-none-eabi/include/c++/10.3.1/bits/stl_algobase.h ****    *  @param  __a  A thing of arbitrary type.
 220:/Applications/ARM/arm-none-eabi/include/c++/10.3.1/bits/stl_algobase.h ****    *  @param  __b  Another thing of arbitrary type.
 221:/Applications/ARM/arm-none-eabi/include/c++/10.3.1/bits/stl_algobase.h ****    *  @return   The lesser of the parameters.
 222:/Applications/ARM/arm-none-eabi/include/c++/10.3.1/bits/stl_algobase.h ****    *
 223:/Applications/ARM/arm-none-eabi/include/c++/10.3.1/bits/stl_algobase.h ****    *  This is the simple classic generic implementation.  It will work on
 224:/Applications/ARM/arm-none-eabi/include/c++/10.3.1/bits/stl_algobase.h ****    *  temporary expressions, since they are only evaluated once, unlike a
 225:/Applications/ARM/arm-none-eabi/include/c++/10.3.1/bits/stl_algobase.h ****    *  preprocessor macro.
 226:/Applications/ARM/arm-none-eabi/include/c++/10.3.1/bits/stl_algobase.h ****   */
 227:/Applications/ARM/arm-none-eabi/include/c++/10.3.1/bits/stl_algobase.h ****   template<typename _Tp>
 228:/Applications/ARM/arm-none-eabi/include/c++/10.3.1/bits/stl_algobase.h ****     _GLIBCXX14_CONSTEXPR
 229:/Applications/ARM/arm-none-eabi/include/c++/10.3.1/bits/stl_algobase.h ****     inline const _Tp&
 230:/Applications/ARM/arm-none-eabi/include/c++/10.3.1/bits/stl_algobase.h ****     min(const _Tp& __a, const _Tp& __b)
 231:/Applications/ARM/arm-none-eabi/include/c++/10.3.1/bits/stl_algobase.h ****     {
 232:/Applications/ARM/arm-none-eabi/include/c++/10.3.1/bits/stl_algobase.h ****       // concept requirements
 233:/Applications/ARM/arm-none-eabi/include/c++/10.3.1/bits/stl_algobase.h ****       __glibcxx_function_requires(_LessThanComparableConcept<_Tp>)
 234:/Applications/ARM/arm-none-eabi/include/c++/10.3.1/bits/stl_algobase.h ****       //return __b < __a ? __b : __a;
 235:/Applications/ARM/arm-none-eabi/include/c++/10.3.1/bits/stl_algobase.h ****       if (__b < __a)
 236:/Applications/ARM/arm-none-eabi/include/c++/10.3.1/bits/stl_algobase.h **** 	return __b;
 237:/Applications/ARM/arm-none-eabi/include/c++/10.3.1/bits/stl_algobase.h ****       return __a;
 238:/Applications/ARM/arm-none-eabi/include/c++/10.3.1/bits/stl_algobase.h ****     }
 239:/Applications/ARM/arm-none-eabi/include/c++/10.3.1/bits/stl_algobase.h **** 
 240:/Applications/ARM/arm-none-eabi/include/c++/10.3.1/bits/stl_algobase.h ****   /**
 241:/Applications/ARM/arm-none-eabi/include/c++/10.3.1/bits/stl_algobase.h ****    *  @brief This does what you think it does.
 242:/Applications/ARM/arm-none-eabi/include/c++/10.3.1/bits/stl_algobase.h ****    *  @ingroup sorting_algorithms
 243:/Applications/ARM/arm-none-eabi/include/c++/10.3.1/bits/stl_algobase.h ****    *  @param  __a  A thing of arbitrary type.
 244:/Applications/ARM/arm-none-eabi/include/c++/10.3.1/bits/stl_algobase.h ****    *  @param  __b  Another thing of arbitrary type.
 245:/Applications/ARM/arm-none-eabi/include/c++/10.3.1/bits/stl_algobase.h ****    *  @return   The greater of the parameters.
 246:/Applications/ARM/arm-none-eabi/include/c++/10.3.1/bits/stl_algobase.h ****    *
 247:/Applications/ARM/arm-none-eabi/include/c++/10.3.1/bits/stl_algobase.h ****    *  This is the simple classic generic implementation.  It will work on
 248:/Applications/ARM/arm-none-eabi/include/c++/10.3.1/bits/stl_algobase.h ****    *  temporary expressions, since they are only evaluated once, unlike a
 249:/Applications/ARM/arm-none-eabi/include/c++/10.3.1/bits/stl_algobase.h ****    *  preprocessor macro.
 250:/Applications/ARM/arm-none-eabi/include/c++/10.3.1/bits/stl_algobase.h ****   */
 251:/Applications/ARM/arm-none-eabi/include/c++/10.3.1/bits/stl_algobase.h ****   template<typename _Tp>
 252:/Applications/ARM/arm-none-eabi/include/c++/10.3.1/bits/stl_algobase.h ****     _GLIBCXX14_CONSTEXPR
 253:/Applications/ARM/arm-none-eabi/include/c++/10.3.1/bits/stl_algobase.h ****     inline const _Tp&
 254:/Applications/ARM/arm-none-eabi/include/c++/10.3.1/bits/stl_algobase.h ****     max(const _Tp& __a, const _Tp& __b)
 255:/Applications/ARM/arm-none-eabi/include/c++/10.3.1/bits/stl_algobase.h ****     {
 256:/Applications/ARM/arm-none-eabi/include/c++/10.3.1/bits/stl_algobase.h ****       // concept requirements
 257:/Applications/ARM/arm-none-eabi/include/c++/10.3.1/bits/stl_algobase.h ****       __glibcxx_function_requires(_LessThanComparableConcept<_Tp>)
 258:/Applications/ARM/arm-none-eabi/include/c++/10.3.1/bits/stl_algobase.h ****       //return  __a < __b ? __b : __a;
 259:/Applications/ARM/arm-none-eabi/include/c++/10.3.1/bits/stl_algobase.h ****       if (__a < __b)
ARM GAS  /var/folders/83/vwtnzcdn1v99b_lf0k0gsjzr0000gn/T//ccKcGgHc.s 			page 48


 260:/Applications/ARM/arm-none-eabi/include/c++/10.3.1/bits/stl_algobase.h **** 	return __b;
 261:/Applications/ARM/arm-none-eabi/include/c++/10.3.1/bits/stl_algobase.h ****       return __a;
 262:/Applications/ARM/arm-none-eabi/include/c++/10.3.1/bits/stl_algobase.h ****     }
 263:/Applications/ARM/arm-none-eabi/include/c++/10.3.1/bits/stl_algobase.h **** 
 264:/Applications/ARM/arm-none-eabi/include/c++/10.3.1/bits/stl_algobase.h ****   /**
 265:/Applications/ARM/arm-none-eabi/include/c++/10.3.1/bits/stl_algobase.h ****    *  @brief This does what you think it does.
 266:/Applications/ARM/arm-none-eabi/include/c++/10.3.1/bits/stl_algobase.h ****    *  @ingroup sorting_algorithms
 267:/Applications/ARM/arm-none-eabi/include/c++/10.3.1/bits/stl_algobase.h ****    *  @param  __a  A thing of arbitrary type.
 268:/Applications/ARM/arm-none-eabi/include/c++/10.3.1/bits/stl_algobase.h ****    *  @param  __b  Another thing of arbitrary type.
 269:/Applications/ARM/arm-none-eabi/include/c++/10.3.1/bits/stl_algobase.h ****    *  @param  __comp  A @link comparison_functors comparison functor@endlink.
 270:/Applications/ARM/arm-none-eabi/include/c++/10.3.1/bits/stl_algobase.h ****    *  @return   The lesser of the parameters.
 271:/Applications/ARM/arm-none-eabi/include/c++/10.3.1/bits/stl_algobase.h ****    *
 272:/Applications/ARM/arm-none-eabi/include/c++/10.3.1/bits/stl_algobase.h ****    *  This will work on temporary expressions, since they are only evaluated
 273:/Applications/ARM/arm-none-eabi/include/c++/10.3.1/bits/stl_algobase.h ****    *  once, unlike a preprocessor macro.
 274:/Applications/ARM/arm-none-eabi/include/c++/10.3.1/bits/stl_algobase.h ****   */
 275:/Applications/ARM/arm-none-eabi/include/c++/10.3.1/bits/stl_algobase.h ****   template<typename _Tp, typename _Compare>
 276:/Applications/ARM/arm-none-eabi/include/c++/10.3.1/bits/stl_algobase.h ****     _GLIBCXX14_CONSTEXPR
 277:/Applications/ARM/arm-none-eabi/include/c++/10.3.1/bits/stl_algobase.h ****     inline const _Tp&
 278:/Applications/ARM/arm-none-eabi/include/c++/10.3.1/bits/stl_algobase.h ****     min(const _Tp& __a, const _Tp& __b, _Compare __comp)
 279:/Applications/ARM/arm-none-eabi/include/c++/10.3.1/bits/stl_algobase.h ****     {
 280:/Applications/ARM/arm-none-eabi/include/c++/10.3.1/bits/stl_algobase.h ****       //return __comp(__b, __a) ? __b : __a;
 281:/Applications/ARM/arm-none-eabi/include/c++/10.3.1/bits/stl_algobase.h ****       if (__comp(__b, __a))
 282:/Applications/ARM/arm-none-eabi/include/c++/10.3.1/bits/stl_algobase.h **** 	return __b;
 283:/Applications/ARM/arm-none-eabi/include/c++/10.3.1/bits/stl_algobase.h ****       return __a;
 284:/Applications/ARM/arm-none-eabi/include/c++/10.3.1/bits/stl_algobase.h ****     }
 285:/Applications/ARM/arm-none-eabi/include/c++/10.3.1/bits/stl_algobase.h **** 
 286:/Applications/ARM/arm-none-eabi/include/c++/10.3.1/bits/stl_algobase.h ****   /**
 287:/Applications/ARM/arm-none-eabi/include/c++/10.3.1/bits/stl_algobase.h ****    *  @brief This does what you think it does.
 288:/Applications/ARM/arm-none-eabi/include/c++/10.3.1/bits/stl_algobase.h ****    *  @ingroup sorting_algorithms
 289:/Applications/ARM/arm-none-eabi/include/c++/10.3.1/bits/stl_algobase.h ****    *  @param  __a  A thing of arbitrary type.
 290:/Applications/ARM/arm-none-eabi/include/c++/10.3.1/bits/stl_algobase.h ****    *  @param  __b  Another thing of arbitrary type.
 291:/Applications/ARM/arm-none-eabi/include/c++/10.3.1/bits/stl_algobase.h ****    *  @param  __comp  A @link comparison_functors comparison functor@endlink.
 292:/Applications/ARM/arm-none-eabi/include/c++/10.3.1/bits/stl_algobase.h ****    *  @return   The greater of the parameters.
 293:/Applications/ARM/arm-none-eabi/include/c++/10.3.1/bits/stl_algobase.h ****    *
 294:/Applications/ARM/arm-none-eabi/include/c++/10.3.1/bits/stl_algobase.h ****    *  This will work on temporary expressions, since they are only evaluated
 295:/Applications/ARM/arm-none-eabi/include/c++/10.3.1/bits/stl_algobase.h ****    *  once, unlike a preprocessor macro.
 296:/Applications/ARM/arm-none-eabi/include/c++/10.3.1/bits/stl_algobase.h ****   */
 297:/Applications/ARM/arm-none-eabi/include/c++/10.3.1/bits/stl_algobase.h ****   template<typename _Tp, typename _Compare>
 298:/Applications/ARM/arm-none-eabi/include/c++/10.3.1/bits/stl_algobase.h ****     _GLIBCXX14_CONSTEXPR
 299:/Applications/ARM/arm-none-eabi/include/c++/10.3.1/bits/stl_algobase.h ****     inline const _Tp&
 300:/Applications/ARM/arm-none-eabi/include/c++/10.3.1/bits/stl_algobase.h ****     max(const _Tp& __a, const _Tp& __b, _Compare __comp)
 301:/Applications/ARM/arm-none-eabi/include/c++/10.3.1/bits/stl_algobase.h ****     {
 302:/Applications/ARM/arm-none-eabi/include/c++/10.3.1/bits/stl_algobase.h ****       //return __comp(__a, __b) ? __b : __a;
 303:/Applications/ARM/arm-none-eabi/include/c++/10.3.1/bits/stl_algobase.h ****       if (__comp(__a, __b))
 304:/Applications/ARM/arm-none-eabi/include/c++/10.3.1/bits/stl_algobase.h **** 	return __b;
 305:/Applications/ARM/arm-none-eabi/include/c++/10.3.1/bits/stl_algobase.h ****       return __a;
 306:/Applications/ARM/arm-none-eabi/include/c++/10.3.1/bits/stl_algobase.h ****     }
 307:/Applications/ARM/arm-none-eabi/include/c++/10.3.1/bits/stl_algobase.h **** 
 308:/Applications/ARM/arm-none-eabi/include/c++/10.3.1/bits/stl_algobase.h ****   // Fallback implementation of the function in bits/stl_iterator.h used to
 309:/Applications/ARM/arm-none-eabi/include/c++/10.3.1/bits/stl_algobase.h ****   // remove the __normal_iterator wrapper. See copy, fill, ...
 310:/Applications/ARM/arm-none-eabi/include/c++/10.3.1/bits/stl_algobase.h ****   template<typename _Iterator>
 311:/Applications/ARM/arm-none-eabi/include/c++/10.3.1/bits/stl_algobase.h ****     _GLIBCXX20_CONSTEXPR
 312:/Applications/ARM/arm-none-eabi/include/c++/10.3.1/bits/stl_algobase.h ****     inline _Iterator
 313:/Applications/ARM/arm-none-eabi/include/c++/10.3.1/bits/stl_algobase.h ****     __niter_base(_Iterator __it)
 314:/Applications/ARM/arm-none-eabi/include/c++/10.3.1/bits/stl_algobase.h ****     _GLIBCXX_NOEXCEPT_IF(std::is_nothrow_copy_constructible<_Iterator>::value)
 315:/Applications/ARM/arm-none-eabi/include/c++/10.3.1/bits/stl_algobase.h ****     { return __it; }
 316:/Applications/ARM/arm-none-eabi/include/c++/10.3.1/bits/stl_algobase.h **** 
ARM GAS  /var/folders/83/vwtnzcdn1v99b_lf0k0gsjzr0000gn/T//ccKcGgHc.s 			page 49


 317:/Applications/ARM/arm-none-eabi/include/c++/10.3.1/bits/stl_algobase.h ****   // Reverse the __niter_base transformation to get a
 318:/Applications/ARM/arm-none-eabi/include/c++/10.3.1/bits/stl_algobase.h ****   // __normal_iterator back again (this assumes that __normal_iterator
 319:/Applications/ARM/arm-none-eabi/include/c++/10.3.1/bits/stl_algobase.h ****   // is only used to wrap random access iterators, like pointers).
 320:/Applications/ARM/arm-none-eabi/include/c++/10.3.1/bits/stl_algobase.h ****   template<typename _From, typename _To>
 321:/Applications/ARM/arm-none-eabi/include/c++/10.3.1/bits/stl_algobase.h ****     _GLIBCXX20_CONSTEXPR
 322:/Applications/ARM/arm-none-eabi/include/c++/10.3.1/bits/stl_algobase.h ****     inline _From
 323:/Applications/ARM/arm-none-eabi/include/c++/10.3.1/bits/stl_algobase.h ****     __niter_wrap(_From __from, _To __res)
 324:/Applications/ARM/arm-none-eabi/include/c++/10.3.1/bits/stl_algobase.h ****     { return __from + (__res - std::__niter_base(__from)); }
 325:/Applications/ARM/arm-none-eabi/include/c++/10.3.1/bits/stl_algobase.h **** 
 326:/Applications/ARM/arm-none-eabi/include/c++/10.3.1/bits/stl_algobase.h ****   // No need to wrap, iterator already has the right type.
 327:/Applications/ARM/arm-none-eabi/include/c++/10.3.1/bits/stl_algobase.h ****   template<typename _Iterator>
 328:/Applications/ARM/arm-none-eabi/include/c++/10.3.1/bits/stl_algobase.h ****     _GLIBCXX20_CONSTEXPR
 329:/Applications/ARM/arm-none-eabi/include/c++/10.3.1/bits/stl_algobase.h ****     inline _Iterator
 330:/Applications/ARM/arm-none-eabi/include/c++/10.3.1/bits/stl_algobase.h ****     __niter_wrap(const _Iterator&, _Iterator __res)
 331:/Applications/ARM/arm-none-eabi/include/c++/10.3.1/bits/stl_algobase.h ****     { return __res; }
 332:/Applications/ARM/arm-none-eabi/include/c++/10.3.1/bits/stl_algobase.h **** 
 333:/Applications/ARM/arm-none-eabi/include/c++/10.3.1/bits/stl_algobase.h ****   // All of these auxiliary structs serve two purposes.  (1) Replace
 334:/Applications/ARM/arm-none-eabi/include/c++/10.3.1/bits/stl_algobase.h ****   // calls to copy with memmove whenever possible.  (Memmove, not memcpy,
 335:/Applications/ARM/arm-none-eabi/include/c++/10.3.1/bits/stl_algobase.h ****   // because the input and output ranges are permitted to overlap.)
 336:/Applications/ARM/arm-none-eabi/include/c++/10.3.1/bits/stl_algobase.h ****   // (2) If we're using random access iterators, then write the loop as
 337:/Applications/ARM/arm-none-eabi/include/c++/10.3.1/bits/stl_algobase.h ****   // a for loop with an explicit count.
 338:/Applications/ARM/arm-none-eabi/include/c++/10.3.1/bits/stl_algobase.h **** 
 339:/Applications/ARM/arm-none-eabi/include/c++/10.3.1/bits/stl_algobase.h ****   template<bool _IsMove, bool _IsSimple, typename _Category>
 340:/Applications/ARM/arm-none-eabi/include/c++/10.3.1/bits/stl_algobase.h ****     struct __copy_move
 341:/Applications/ARM/arm-none-eabi/include/c++/10.3.1/bits/stl_algobase.h ****     {
 342:/Applications/ARM/arm-none-eabi/include/c++/10.3.1/bits/stl_algobase.h ****       template<typename _II, typename _OI>
 343:/Applications/ARM/arm-none-eabi/include/c++/10.3.1/bits/stl_algobase.h **** 	_GLIBCXX20_CONSTEXPR
 344:/Applications/ARM/arm-none-eabi/include/c++/10.3.1/bits/stl_algobase.h **** 	static _OI
 345:/Applications/ARM/arm-none-eabi/include/c++/10.3.1/bits/stl_algobase.h **** 	__copy_m(_II __first, _II __last, _OI __result)
 346:/Applications/ARM/arm-none-eabi/include/c++/10.3.1/bits/stl_algobase.h **** 	{
 347:/Applications/ARM/arm-none-eabi/include/c++/10.3.1/bits/stl_algobase.h **** 	  for (; __first != __last; ++__result, (void)++__first)
 348:/Applications/ARM/arm-none-eabi/include/c++/10.3.1/bits/stl_algobase.h **** 	    *__result = *__first;
 349:/Applications/ARM/arm-none-eabi/include/c++/10.3.1/bits/stl_algobase.h **** 	  return __result;
 350:/Applications/ARM/arm-none-eabi/include/c++/10.3.1/bits/stl_algobase.h **** 	}
 351:/Applications/ARM/arm-none-eabi/include/c++/10.3.1/bits/stl_algobase.h ****     };
 352:/Applications/ARM/arm-none-eabi/include/c++/10.3.1/bits/stl_algobase.h **** 
 353:/Applications/ARM/arm-none-eabi/include/c++/10.3.1/bits/stl_algobase.h **** #if __cplusplus >= 201103L
 354:/Applications/ARM/arm-none-eabi/include/c++/10.3.1/bits/stl_algobase.h ****   template<typename _Category>
 355:/Applications/ARM/arm-none-eabi/include/c++/10.3.1/bits/stl_algobase.h ****     struct __copy_move<true, false, _Category>
 356:/Applications/ARM/arm-none-eabi/include/c++/10.3.1/bits/stl_algobase.h ****     {
 357:/Applications/ARM/arm-none-eabi/include/c++/10.3.1/bits/stl_algobase.h ****       template<typename _II, typename _OI>
 358:/Applications/ARM/arm-none-eabi/include/c++/10.3.1/bits/stl_algobase.h **** 	_GLIBCXX20_CONSTEXPR
 359:/Applications/ARM/arm-none-eabi/include/c++/10.3.1/bits/stl_algobase.h **** 	static _OI
 360:/Applications/ARM/arm-none-eabi/include/c++/10.3.1/bits/stl_algobase.h **** 	__copy_m(_II __first, _II __last, _OI __result)
 361:/Applications/ARM/arm-none-eabi/include/c++/10.3.1/bits/stl_algobase.h **** 	{
 362:/Applications/ARM/arm-none-eabi/include/c++/10.3.1/bits/stl_algobase.h **** 	  for (; __first != __last; ++__result, (void)++__first)
 363:/Applications/ARM/arm-none-eabi/include/c++/10.3.1/bits/stl_algobase.h **** 	    *__result = std::move(*__first);
 364:/Applications/ARM/arm-none-eabi/include/c++/10.3.1/bits/stl_algobase.h **** 	  return __result;
 365:/Applications/ARM/arm-none-eabi/include/c++/10.3.1/bits/stl_algobase.h **** 	}
 366:/Applications/ARM/arm-none-eabi/include/c++/10.3.1/bits/stl_algobase.h ****     };
 367:/Applications/ARM/arm-none-eabi/include/c++/10.3.1/bits/stl_algobase.h **** #endif
 368:/Applications/ARM/arm-none-eabi/include/c++/10.3.1/bits/stl_algobase.h **** 
 369:/Applications/ARM/arm-none-eabi/include/c++/10.3.1/bits/stl_algobase.h ****   template<>
 370:/Applications/ARM/arm-none-eabi/include/c++/10.3.1/bits/stl_algobase.h ****     struct __copy_move<false, false, random_access_iterator_tag>
 371:/Applications/ARM/arm-none-eabi/include/c++/10.3.1/bits/stl_algobase.h ****     {
 372:/Applications/ARM/arm-none-eabi/include/c++/10.3.1/bits/stl_algobase.h ****       template<typename _II, typename _OI>
 373:/Applications/ARM/arm-none-eabi/include/c++/10.3.1/bits/stl_algobase.h **** 	_GLIBCXX20_CONSTEXPR
ARM GAS  /var/folders/83/vwtnzcdn1v99b_lf0k0gsjzr0000gn/T//ccKcGgHc.s 			page 50


 374:/Applications/ARM/arm-none-eabi/include/c++/10.3.1/bits/stl_algobase.h **** 	static _OI
 375:/Applications/ARM/arm-none-eabi/include/c++/10.3.1/bits/stl_algobase.h **** 	__copy_m(_II __first, _II __last, _OI __result)
 376:/Applications/ARM/arm-none-eabi/include/c++/10.3.1/bits/stl_algobase.h **** 	{
 377:/Applications/ARM/arm-none-eabi/include/c++/10.3.1/bits/stl_algobase.h **** 	  typedef typename iterator_traits<_II>::difference_type _Distance;
 378:/Applications/ARM/arm-none-eabi/include/c++/10.3.1/bits/stl_algobase.h **** 	  for(_Distance __n = __last - __first; __n > 0; --__n)
 379:/Applications/ARM/arm-none-eabi/include/c++/10.3.1/bits/stl_algobase.h **** 	    {
 380:/Applications/ARM/arm-none-eabi/include/c++/10.3.1/bits/stl_algobase.h **** 	      *__result = *__first;
 381:/Applications/ARM/arm-none-eabi/include/c++/10.3.1/bits/stl_algobase.h **** 	      ++__first;
 382:/Applications/ARM/arm-none-eabi/include/c++/10.3.1/bits/stl_algobase.h **** 	      ++__result;
 383:/Applications/ARM/arm-none-eabi/include/c++/10.3.1/bits/stl_algobase.h **** 	    }
 384:/Applications/ARM/arm-none-eabi/include/c++/10.3.1/bits/stl_algobase.h **** 	  return __result;
 385:/Applications/ARM/arm-none-eabi/include/c++/10.3.1/bits/stl_algobase.h **** 	}
 386:/Applications/ARM/arm-none-eabi/include/c++/10.3.1/bits/stl_algobase.h ****     };
 387:/Applications/ARM/arm-none-eabi/include/c++/10.3.1/bits/stl_algobase.h **** 
 388:/Applications/ARM/arm-none-eabi/include/c++/10.3.1/bits/stl_algobase.h **** #if __cplusplus >= 201103L
 389:/Applications/ARM/arm-none-eabi/include/c++/10.3.1/bits/stl_algobase.h ****   template<>
 390:/Applications/ARM/arm-none-eabi/include/c++/10.3.1/bits/stl_algobase.h ****     struct __copy_move<true, false, random_access_iterator_tag>
 391:/Applications/ARM/arm-none-eabi/include/c++/10.3.1/bits/stl_algobase.h ****     {
 392:/Applications/ARM/arm-none-eabi/include/c++/10.3.1/bits/stl_algobase.h ****       template<typename _II, typename _OI>
 393:/Applications/ARM/arm-none-eabi/include/c++/10.3.1/bits/stl_algobase.h **** 	_GLIBCXX20_CONSTEXPR
 394:/Applications/ARM/arm-none-eabi/include/c++/10.3.1/bits/stl_algobase.h **** 	static _OI
 395:/Applications/ARM/arm-none-eabi/include/c++/10.3.1/bits/stl_algobase.h **** 	__copy_m(_II __first, _II __last, _OI __result)
 396:/Applications/ARM/arm-none-eabi/include/c++/10.3.1/bits/stl_algobase.h **** 	{
 397:/Applications/ARM/arm-none-eabi/include/c++/10.3.1/bits/stl_algobase.h **** 	  typedef typename iterator_traits<_II>::difference_type _Distance;
 398:/Applications/ARM/arm-none-eabi/include/c++/10.3.1/bits/stl_algobase.h **** 	  for(_Distance __n = __last - __first; __n > 0; --__n)
 399:/Applications/ARM/arm-none-eabi/include/c++/10.3.1/bits/stl_algobase.h **** 	    {
 400:/Applications/ARM/arm-none-eabi/include/c++/10.3.1/bits/stl_algobase.h **** 	      *__result = std::move(*__first);
 401:/Applications/ARM/arm-none-eabi/include/c++/10.3.1/bits/stl_algobase.h **** 	      ++__first;
 402:/Applications/ARM/arm-none-eabi/include/c++/10.3.1/bits/stl_algobase.h **** 	      ++__result;
 403:/Applications/ARM/arm-none-eabi/include/c++/10.3.1/bits/stl_algobase.h **** 	    }
 404:/Applications/ARM/arm-none-eabi/include/c++/10.3.1/bits/stl_algobase.h **** 	  return __result;
 405:/Applications/ARM/arm-none-eabi/include/c++/10.3.1/bits/stl_algobase.h **** 	}
 406:/Applications/ARM/arm-none-eabi/include/c++/10.3.1/bits/stl_algobase.h ****     };
 407:/Applications/ARM/arm-none-eabi/include/c++/10.3.1/bits/stl_algobase.h **** #endif
 408:/Applications/ARM/arm-none-eabi/include/c++/10.3.1/bits/stl_algobase.h **** 
 409:/Applications/ARM/arm-none-eabi/include/c++/10.3.1/bits/stl_algobase.h ****   template<bool _IsMove>
 410:/Applications/ARM/arm-none-eabi/include/c++/10.3.1/bits/stl_algobase.h ****     struct __copy_move<_IsMove, true, random_access_iterator_tag>
 411:/Applications/ARM/arm-none-eabi/include/c++/10.3.1/bits/stl_algobase.h ****     {
 412:/Applications/ARM/arm-none-eabi/include/c++/10.3.1/bits/stl_algobase.h ****       template<typename _Tp>
 413:/Applications/ARM/arm-none-eabi/include/c++/10.3.1/bits/stl_algobase.h **** 	_GLIBCXX20_CONSTEXPR
 414:/Applications/ARM/arm-none-eabi/include/c++/10.3.1/bits/stl_algobase.h **** 	static _Tp*
 415:/Applications/ARM/arm-none-eabi/include/c++/10.3.1/bits/stl_algobase.h **** 	__copy_m(const _Tp* __first, const _Tp* __last, _Tp* __result)
 416:/Applications/ARM/arm-none-eabi/include/c++/10.3.1/bits/stl_algobase.h **** 	{
 417:/Applications/ARM/arm-none-eabi/include/c++/10.3.1/bits/stl_algobase.h **** #if __cplusplus >= 201103L
 418:/Applications/ARM/arm-none-eabi/include/c++/10.3.1/bits/stl_algobase.h **** 	  using __assignable = conditional<_IsMove,
 419:/Applications/ARM/arm-none-eabi/include/c++/10.3.1/bits/stl_algobase.h **** 					   is_move_assignable<_Tp>,
 420:/Applications/ARM/arm-none-eabi/include/c++/10.3.1/bits/stl_algobase.h **** 					   is_copy_assignable<_Tp>>;
 421:/Applications/ARM/arm-none-eabi/include/c++/10.3.1/bits/stl_algobase.h **** 	  // trivial types can have deleted assignment
 422:/Applications/ARM/arm-none-eabi/include/c++/10.3.1/bits/stl_algobase.h **** 	  static_assert( __assignable::type::value, "type is not assignable" );
 423:/Applications/ARM/arm-none-eabi/include/c++/10.3.1/bits/stl_algobase.h **** #endif
 424:/Applications/ARM/arm-none-eabi/include/c++/10.3.1/bits/stl_algobase.h **** 	  const ptrdiff_t _Num = __last - __first;
 425:/Applications/ARM/arm-none-eabi/include/c++/10.3.1/bits/stl_algobase.h **** 	  if (_Num)
 426:/Applications/ARM/arm-none-eabi/include/c++/10.3.1/bits/stl_algobase.h **** 	    __builtin_memmove(__result, __first, sizeof(_Tp) * _Num);
 427:/Applications/ARM/arm-none-eabi/include/c++/10.3.1/bits/stl_algobase.h **** 	  return __result + _Num;
 428:/Applications/ARM/arm-none-eabi/include/c++/10.3.1/bits/stl_algobase.h **** 	}
 429:/Applications/ARM/arm-none-eabi/include/c++/10.3.1/bits/stl_algobase.h ****     };
 430:/Applications/ARM/arm-none-eabi/include/c++/10.3.1/bits/stl_algobase.h **** 
ARM GAS  /var/folders/83/vwtnzcdn1v99b_lf0k0gsjzr0000gn/T//ccKcGgHc.s 			page 51


 431:/Applications/ARM/arm-none-eabi/include/c++/10.3.1/bits/stl_algobase.h ****   // Helpers for streambuf iterators (either istream or ostream).
 432:/Applications/ARM/arm-none-eabi/include/c++/10.3.1/bits/stl_algobase.h ****   // NB: avoid including <iosfwd>, relatively large.
 433:/Applications/ARM/arm-none-eabi/include/c++/10.3.1/bits/stl_algobase.h ****   template<typename _CharT>
 434:/Applications/ARM/arm-none-eabi/include/c++/10.3.1/bits/stl_algobase.h ****     struct char_traits;
 435:/Applications/ARM/arm-none-eabi/include/c++/10.3.1/bits/stl_algobase.h **** 
 436:/Applications/ARM/arm-none-eabi/include/c++/10.3.1/bits/stl_algobase.h ****   template<typename _CharT, typename _Traits>
 437:/Applications/ARM/arm-none-eabi/include/c++/10.3.1/bits/stl_algobase.h ****     class istreambuf_iterator;
 438:/Applications/ARM/arm-none-eabi/include/c++/10.3.1/bits/stl_algobase.h **** 
 439:/Applications/ARM/arm-none-eabi/include/c++/10.3.1/bits/stl_algobase.h ****   template<typename _CharT, typename _Traits>
 440:/Applications/ARM/arm-none-eabi/include/c++/10.3.1/bits/stl_algobase.h ****     class ostreambuf_iterator;
 441:/Applications/ARM/arm-none-eabi/include/c++/10.3.1/bits/stl_algobase.h **** 
 442:/Applications/ARM/arm-none-eabi/include/c++/10.3.1/bits/stl_algobase.h ****   template<bool _IsMove, typename _CharT>
 443:/Applications/ARM/arm-none-eabi/include/c++/10.3.1/bits/stl_algobase.h ****     typename __gnu_cxx::__enable_if<__is_char<_CharT>::__value,
 444:/Applications/ARM/arm-none-eabi/include/c++/10.3.1/bits/stl_algobase.h **** 	     ostreambuf_iterator<_CharT, char_traits<_CharT> > >::__type
 445:/Applications/ARM/arm-none-eabi/include/c++/10.3.1/bits/stl_algobase.h ****     __copy_move_a2(_CharT*, _CharT*,
 446:/Applications/ARM/arm-none-eabi/include/c++/10.3.1/bits/stl_algobase.h **** 		   ostreambuf_iterator<_CharT, char_traits<_CharT> >);
 447:/Applications/ARM/arm-none-eabi/include/c++/10.3.1/bits/stl_algobase.h **** 
 448:/Applications/ARM/arm-none-eabi/include/c++/10.3.1/bits/stl_algobase.h ****   template<bool _IsMove, typename _CharT>
 449:/Applications/ARM/arm-none-eabi/include/c++/10.3.1/bits/stl_algobase.h ****     typename __gnu_cxx::__enable_if<__is_char<_CharT>::__value,
 450:/Applications/ARM/arm-none-eabi/include/c++/10.3.1/bits/stl_algobase.h **** 	     ostreambuf_iterator<_CharT, char_traits<_CharT> > >::__type
 451:/Applications/ARM/arm-none-eabi/include/c++/10.3.1/bits/stl_algobase.h ****     __copy_move_a2(const _CharT*, const _CharT*,
 452:/Applications/ARM/arm-none-eabi/include/c++/10.3.1/bits/stl_algobase.h **** 		   ostreambuf_iterator<_CharT, char_traits<_CharT> >);
 453:/Applications/ARM/arm-none-eabi/include/c++/10.3.1/bits/stl_algobase.h **** 
 454:/Applications/ARM/arm-none-eabi/include/c++/10.3.1/bits/stl_algobase.h ****   template<bool _IsMove, typename _CharT>
 455:/Applications/ARM/arm-none-eabi/include/c++/10.3.1/bits/stl_algobase.h ****     typename __gnu_cxx::__enable_if<__is_char<_CharT>::__value,
 456:/Applications/ARM/arm-none-eabi/include/c++/10.3.1/bits/stl_algobase.h **** 				    _CharT*>::__type
 457:/Applications/ARM/arm-none-eabi/include/c++/10.3.1/bits/stl_algobase.h ****     __copy_move_a2(istreambuf_iterator<_CharT, char_traits<_CharT> >,
 458:/Applications/ARM/arm-none-eabi/include/c++/10.3.1/bits/stl_algobase.h **** 		   istreambuf_iterator<_CharT, char_traits<_CharT> >, _CharT*);
 459:/Applications/ARM/arm-none-eabi/include/c++/10.3.1/bits/stl_algobase.h **** 
 460:/Applications/ARM/arm-none-eabi/include/c++/10.3.1/bits/stl_algobase.h ****   template<bool _IsMove, typename _II, typename _OI>
 461:/Applications/ARM/arm-none-eabi/include/c++/10.3.1/bits/stl_algobase.h ****     _GLIBCXX20_CONSTEXPR
 462:/Applications/ARM/arm-none-eabi/include/c++/10.3.1/bits/stl_algobase.h ****     inline _OI
 463:/Applications/ARM/arm-none-eabi/include/c++/10.3.1/bits/stl_algobase.h ****     __copy_move_a2(_II __first, _II __last, _OI __result)
 464:/Applications/ARM/arm-none-eabi/include/c++/10.3.1/bits/stl_algobase.h ****     {
 465:/Applications/ARM/arm-none-eabi/include/c++/10.3.1/bits/stl_algobase.h ****       typedef typename iterator_traits<_II>::iterator_category _Category;
 466:/Applications/ARM/arm-none-eabi/include/c++/10.3.1/bits/stl_algobase.h **** #ifdef __cpp_lib_is_constant_evaluated
 467:/Applications/ARM/arm-none-eabi/include/c++/10.3.1/bits/stl_algobase.h ****       if (std::is_constant_evaluated())
 468:/Applications/ARM/arm-none-eabi/include/c++/10.3.1/bits/stl_algobase.h **** 	return std::__copy_move<_IsMove, false, _Category>::
 469:/Applications/ARM/arm-none-eabi/include/c++/10.3.1/bits/stl_algobase.h **** 	  __copy_m(__first, __last, __result);
 470:/Applications/ARM/arm-none-eabi/include/c++/10.3.1/bits/stl_algobase.h **** #endif
 471:/Applications/ARM/arm-none-eabi/include/c++/10.3.1/bits/stl_algobase.h ****       return std::__copy_move<_IsMove, __memcpyable<_OI, _II>::__value,
 472:/Applications/ARM/arm-none-eabi/include/c++/10.3.1/bits/stl_algobase.h **** 			      _Category>::__copy_m(__first, __last, __result);
 473:/Applications/ARM/arm-none-eabi/include/c++/10.3.1/bits/stl_algobase.h ****     }
 474:/Applications/ARM/arm-none-eabi/include/c++/10.3.1/bits/stl_algobase.h **** 
 475:/Applications/ARM/arm-none-eabi/include/c++/10.3.1/bits/stl_algobase.h **** _GLIBCXX_BEGIN_NAMESPACE_CONTAINER
 476:/Applications/ARM/arm-none-eabi/include/c++/10.3.1/bits/stl_algobase.h **** 
 477:/Applications/ARM/arm-none-eabi/include/c++/10.3.1/bits/stl_algobase.h ****   template<typename _Tp, typename _Ref, typename _Ptr>
 478:/Applications/ARM/arm-none-eabi/include/c++/10.3.1/bits/stl_algobase.h ****     struct _Deque_iterator;
 479:/Applications/ARM/arm-none-eabi/include/c++/10.3.1/bits/stl_algobase.h **** 
 480:/Applications/ARM/arm-none-eabi/include/c++/10.3.1/bits/stl_algobase.h **** _GLIBCXX_END_NAMESPACE_CONTAINER
 481:/Applications/ARM/arm-none-eabi/include/c++/10.3.1/bits/stl_algobase.h **** 
 482:/Applications/ARM/arm-none-eabi/include/c++/10.3.1/bits/stl_algobase.h ****   template<bool _IsMove,
 483:/Applications/ARM/arm-none-eabi/include/c++/10.3.1/bits/stl_algobase.h **** 	   typename _Tp, typename _Ref, typename _Ptr, typename _OI>
 484:/Applications/ARM/arm-none-eabi/include/c++/10.3.1/bits/stl_algobase.h ****     _OI
 485:/Applications/ARM/arm-none-eabi/include/c++/10.3.1/bits/stl_algobase.h ****     __copy_move_a1(_GLIBCXX_STD_C::_Deque_iterator<_Tp, _Ref, _Ptr>,
 486:/Applications/ARM/arm-none-eabi/include/c++/10.3.1/bits/stl_algobase.h **** 		   _GLIBCXX_STD_C::_Deque_iterator<_Tp, _Ref, _Ptr>,
 487:/Applications/ARM/arm-none-eabi/include/c++/10.3.1/bits/stl_algobase.h **** 		   _OI);
ARM GAS  /var/folders/83/vwtnzcdn1v99b_lf0k0gsjzr0000gn/T//ccKcGgHc.s 			page 52


 488:/Applications/ARM/arm-none-eabi/include/c++/10.3.1/bits/stl_algobase.h **** 
 489:/Applications/ARM/arm-none-eabi/include/c++/10.3.1/bits/stl_algobase.h ****   template<bool _IsMove,
 490:/Applications/ARM/arm-none-eabi/include/c++/10.3.1/bits/stl_algobase.h **** 	   typename _ITp, typename _IRef, typename _IPtr, typename _OTp>
 491:/Applications/ARM/arm-none-eabi/include/c++/10.3.1/bits/stl_algobase.h ****     _GLIBCXX_STD_C::_Deque_iterator<_OTp, _OTp&, _OTp*>
 492:/Applications/ARM/arm-none-eabi/include/c++/10.3.1/bits/stl_algobase.h ****     __copy_move_a1(_GLIBCXX_STD_C::_Deque_iterator<_ITp, _IRef, _IPtr>,
 493:/Applications/ARM/arm-none-eabi/include/c++/10.3.1/bits/stl_algobase.h **** 		   _GLIBCXX_STD_C::_Deque_iterator<_ITp, _IRef, _IPtr>,
 494:/Applications/ARM/arm-none-eabi/include/c++/10.3.1/bits/stl_algobase.h **** 		   _GLIBCXX_STD_C::_Deque_iterator<_OTp, _OTp&, _OTp*>);
 495:/Applications/ARM/arm-none-eabi/include/c++/10.3.1/bits/stl_algobase.h **** 
 496:/Applications/ARM/arm-none-eabi/include/c++/10.3.1/bits/stl_algobase.h ****   template<bool _IsMove, typename _II, typename _Tp>
 497:/Applications/ARM/arm-none-eabi/include/c++/10.3.1/bits/stl_algobase.h ****     typename __gnu_cxx::__enable_if<
 498:/Applications/ARM/arm-none-eabi/include/c++/10.3.1/bits/stl_algobase.h ****       __is_random_access_iter<_II>::__value,
 499:/Applications/ARM/arm-none-eabi/include/c++/10.3.1/bits/stl_algobase.h ****       _GLIBCXX_STD_C::_Deque_iterator<_Tp, _Tp&, _Tp*> >::__type
 500:/Applications/ARM/arm-none-eabi/include/c++/10.3.1/bits/stl_algobase.h ****     __copy_move_a1(_II, _II, _GLIBCXX_STD_C::_Deque_iterator<_Tp, _Tp&, _Tp*>);
 501:/Applications/ARM/arm-none-eabi/include/c++/10.3.1/bits/stl_algobase.h **** 
 502:/Applications/ARM/arm-none-eabi/include/c++/10.3.1/bits/stl_algobase.h ****   template<bool _IsMove, typename _II, typename _OI>
 503:/Applications/ARM/arm-none-eabi/include/c++/10.3.1/bits/stl_algobase.h ****     _GLIBCXX20_CONSTEXPR
 504:/Applications/ARM/arm-none-eabi/include/c++/10.3.1/bits/stl_algobase.h ****     inline _OI
 505:/Applications/ARM/arm-none-eabi/include/c++/10.3.1/bits/stl_algobase.h ****     __copy_move_a1(_II __first, _II __last, _OI __result)
 506:/Applications/ARM/arm-none-eabi/include/c++/10.3.1/bits/stl_algobase.h ****     { return std::__copy_move_a2<_IsMove>(__first, __last, __result); }
 507:/Applications/ARM/arm-none-eabi/include/c++/10.3.1/bits/stl_algobase.h **** 
 508:/Applications/ARM/arm-none-eabi/include/c++/10.3.1/bits/stl_algobase.h ****   template<bool _IsMove, typename _II, typename _OI>
 509:/Applications/ARM/arm-none-eabi/include/c++/10.3.1/bits/stl_algobase.h ****     _GLIBCXX20_CONSTEXPR
 510:/Applications/ARM/arm-none-eabi/include/c++/10.3.1/bits/stl_algobase.h ****     inline _OI
 511:/Applications/ARM/arm-none-eabi/include/c++/10.3.1/bits/stl_algobase.h ****     __copy_move_a(_II __first, _II __last, _OI __result)
 512:/Applications/ARM/arm-none-eabi/include/c++/10.3.1/bits/stl_algobase.h ****     {
 513:/Applications/ARM/arm-none-eabi/include/c++/10.3.1/bits/stl_algobase.h ****       return std::__niter_wrap(__result,
 514:/Applications/ARM/arm-none-eabi/include/c++/10.3.1/bits/stl_algobase.h **** 		std::__copy_move_a1<_IsMove>(std::__niter_base(__first),
 515:/Applications/ARM/arm-none-eabi/include/c++/10.3.1/bits/stl_algobase.h **** 					     std::__niter_base(__last),
 516:/Applications/ARM/arm-none-eabi/include/c++/10.3.1/bits/stl_algobase.h **** 					     std::__niter_base(__result)));
 517:/Applications/ARM/arm-none-eabi/include/c++/10.3.1/bits/stl_algobase.h ****     }
 518:/Applications/ARM/arm-none-eabi/include/c++/10.3.1/bits/stl_algobase.h **** 
 519:/Applications/ARM/arm-none-eabi/include/c++/10.3.1/bits/stl_algobase.h ****   template<bool _IsMove,
 520:/Applications/ARM/arm-none-eabi/include/c++/10.3.1/bits/stl_algobase.h **** 	   typename _Ite, typename _Seq, typename _Cat, typename _OI>
 521:/Applications/ARM/arm-none-eabi/include/c++/10.3.1/bits/stl_algobase.h ****     _OI
 522:/Applications/ARM/arm-none-eabi/include/c++/10.3.1/bits/stl_algobase.h ****     __copy_move_a(const ::__gnu_debug::_Safe_iterator<_Ite, _Seq, _Cat>&,
 523:/Applications/ARM/arm-none-eabi/include/c++/10.3.1/bits/stl_algobase.h **** 		  const ::__gnu_debug::_Safe_iterator<_Ite, _Seq, _Cat>&,
 524:/Applications/ARM/arm-none-eabi/include/c++/10.3.1/bits/stl_algobase.h **** 		  _OI);
 525:/Applications/ARM/arm-none-eabi/include/c++/10.3.1/bits/stl_algobase.h **** 
 526:/Applications/ARM/arm-none-eabi/include/c++/10.3.1/bits/stl_algobase.h ****   template<bool _IsMove,
 527:/Applications/ARM/arm-none-eabi/include/c++/10.3.1/bits/stl_algobase.h **** 	   typename _II, typename _Ite, typename _Seq, typename _Cat>
 528:/Applications/ARM/arm-none-eabi/include/c++/10.3.1/bits/stl_algobase.h ****     __gnu_debug::_Safe_iterator<_Ite, _Seq, _Cat>
 529:/Applications/ARM/arm-none-eabi/include/c++/10.3.1/bits/stl_algobase.h ****     __copy_move_a(_II, _II,
 530:/Applications/ARM/arm-none-eabi/include/c++/10.3.1/bits/stl_algobase.h **** 		  const ::__gnu_debug::_Safe_iterator<_Ite, _Seq, _Cat>&);
 531:/Applications/ARM/arm-none-eabi/include/c++/10.3.1/bits/stl_algobase.h **** 
 532:/Applications/ARM/arm-none-eabi/include/c++/10.3.1/bits/stl_algobase.h ****   template<bool _IsMove,
 533:/Applications/ARM/arm-none-eabi/include/c++/10.3.1/bits/stl_algobase.h **** 	   typename _IIte, typename _ISeq, typename _ICat,
 534:/Applications/ARM/arm-none-eabi/include/c++/10.3.1/bits/stl_algobase.h **** 	   typename _OIte, typename _OSeq, typename _OCat>
 535:/Applications/ARM/arm-none-eabi/include/c++/10.3.1/bits/stl_algobase.h ****     ::__gnu_debug::_Safe_iterator<_OIte, _OSeq, _OCat>
 536:/Applications/ARM/arm-none-eabi/include/c++/10.3.1/bits/stl_algobase.h ****     __copy_move_a(const ::__gnu_debug::_Safe_iterator<_IIte, _ISeq, _ICat>&,
 537:/Applications/ARM/arm-none-eabi/include/c++/10.3.1/bits/stl_algobase.h **** 		  const ::__gnu_debug::_Safe_iterator<_IIte, _ISeq, _ICat>&,
 538:/Applications/ARM/arm-none-eabi/include/c++/10.3.1/bits/stl_algobase.h **** 		  const ::__gnu_debug::_Safe_iterator<_OIte, _OSeq, _OCat>&);
 539:/Applications/ARM/arm-none-eabi/include/c++/10.3.1/bits/stl_algobase.h **** 
 540:/Applications/ARM/arm-none-eabi/include/c++/10.3.1/bits/stl_algobase.h ****   /**
 541:/Applications/ARM/arm-none-eabi/include/c++/10.3.1/bits/stl_algobase.h ****    *  @brief Copies the range [first,last) into result.
 542:/Applications/ARM/arm-none-eabi/include/c++/10.3.1/bits/stl_algobase.h ****    *  @ingroup mutating_algorithms
 543:/Applications/ARM/arm-none-eabi/include/c++/10.3.1/bits/stl_algobase.h ****    *  @param  __first  An input iterator.
 544:/Applications/ARM/arm-none-eabi/include/c++/10.3.1/bits/stl_algobase.h ****    *  @param  __last   An input iterator.
ARM GAS  /var/folders/83/vwtnzcdn1v99b_lf0k0gsjzr0000gn/T//ccKcGgHc.s 			page 53


 545:/Applications/ARM/arm-none-eabi/include/c++/10.3.1/bits/stl_algobase.h ****    *  @param  __result An output iterator.
 546:/Applications/ARM/arm-none-eabi/include/c++/10.3.1/bits/stl_algobase.h ****    *  @return   result + (last - first)
 547:/Applications/ARM/arm-none-eabi/include/c++/10.3.1/bits/stl_algobase.h ****    *
 548:/Applications/ARM/arm-none-eabi/include/c++/10.3.1/bits/stl_algobase.h ****    *  This inline function will boil down to a call to @c memmove whenever
 549:/Applications/ARM/arm-none-eabi/include/c++/10.3.1/bits/stl_algobase.h ****    *  possible.  Failing that, if random access iterators are passed, then the
 550:/Applications/ARM/arm-none-eabi/include/c++/10.3.1/bits/stl_algobase.h ****    *  loop count will be known (and therefore a candidate for compiler
 551:/Applications/ARM/arm-none-eabi/include/c++/10.3.1/bits/stl_algobase.h ****    *  optimizations such as unrolling).  Result may not be contained within
 552:/Applications/ARM/arm-none-eabi/include/c++/10.3.1/bits/stl_algobase.h ****    *  [first,last); the copy_backward function should be used instead.
 553:/Applications/ARM/arm-none-eabi/include/c++/10.3.1/bits/stl_algobase.h ****    *
 554:/Applications/ARM/arm-none-eabi/include/c++/10.3.1/bits/stl_algobase.h ****    *  Note that the end of the output range is permitted to be contained
 555:/Applications/ARM/arm-none-eabi/include/c++/10.3.1/bits/stl_algobase.h ****    *  within [first,last).
 556:/Applications/ARM/arm-none-eabi/include/c++/10.3.1/bits/stl_algobase.h ****   */
 557:/Applications/ARM/arm-none-eabi/include/c++/10.3.1/bits/stl_algobase.h ****   template<typename _II, typename _OI>
 558:/Applications/ARM/arm-none-eabi/include/c++/10.3.1/bits/stl_algobase.h ****     _GLIBCXX20_CONSTEXPR
 559:/Applications/ARM/arm-none-eabi/include/c++/10.3.1/bits/stl_algobase.h ****     inline _OI
 560:/Applications/ARM/arm-none-eabi/include/c++/10.3.1/bits/stl_algobase.h ****     copy(_II __first, _II __last, _OI __result)
 561:/Applications/ARM/arm-none-eabi/include/c++/10.3.1/bits/stl_algobase.h ****     {
 562:/Applications/ARM/arm-none-eabi/include/c++/10.3.1/bits/stl_algobase.h ****       // concept requirements
 563:/Applications/ARM/arm-none-eabi/include/c++/10.3.1/bits/stl_algobase.h ****       __glibcxx_function_requires(_InputIteratorConcept<_II>)
 564:/Applications/ARM/arm-none-eabi/include/c++/10.3.1/bits/stl_algobase.h ****       __glibcxx_function_requires(_OutputIteratorConcept<_OI,
 565:/Applications/ARM/arm-none-eabi/include/c++/10.3.1/bits/stl_algobase.h **** 	    typename iterator_traits<_II>::value_type>)
 566:/Applications/ARM/arm-none-eabi/include/c++/10.3.1/bits/stl_algobase.h ****       __glibcxx_requires_can_increment_range(__first, __last, __result);
 567:/Applications/ARM/arm-none-eabi/include/c++/10.3.1/bits/stl_algobase.h **** 
 568:/Applications/ARM/arm-none-eabi/include/c++/10.3.1/bits/stl_algobase.h ****       return std::__copy_move_a<__is_move_iterator<_II>::__value>
 569:/Applications/ARM/arm-none-eabi/include/c++/10.3.1/bits/stl_algobase.h **** 	     (std::__miter_base(__first), std::__miter_base(__last), __result);
 570:/Applications/ARM/arm-none-eabi/include/c++/10.3.1/bits/stl_algobase.h ****     }
 571:/Applications/ARM/arm-none-eabi/include/c++/10.3.1/bits/stl_algobase.h **** 
 572:/Applications/ARM/arm-none-eabi/include/c++/10.3.1/bits/stl_algobase.h **** #if __cplusplus >= 201103L
 573:/Applications/ARM/arm-none-eabi/include/c++/10.3.1/bits/stl_algobase.h ****   /**
 574:/Applications/ARM/arm-none-eabi/include/c++/10.3.1/bits/stl_algobase.h ****    *  @brief Moves the range [first,last) into result.
 575:/Applications/ARM/arm-none-eabi/include/c++/10.3.1/bits/stl_algobase.h ****    *  @ingroup mutating_algorithms
 576:/Applications/ARM/arm-none-eabi/include/c++/10.3.1/bits/stl_algobase.h ****    *  @param  __first  An input iterator.
 577:/Applications/ARM/arm-none-eabi/include/c++/10.3.1/bits/stl_algobase.h ****    *  @param  __last   An input iterator.
 578:/Applications/ARM/arm-none-eabi/include/c++/10.3.1/bits/stl_algobase.h ****    *  @param  __result An output iterator.
 579:/Applications/ARM/arm-none-eabi/include/c++/10.3.1/bits/stl_algobase.h ****    *  @return   result + (last - first)
 580:/Applications/ARM/arm-none-eabi/include/c++/10.3.1/bits/stl_algobase.h ****    *
 581:/Applications/ARM/arm-none-eabi/include/c++/10.3.1/bits/stl_algobase.h ****    *  This inline function will boil down to a call to @c memmove whenever
 582:/Applications/ARM/arm-none-eabi/include/c++/10.3.1/bits/stl_algobase.h ****    *  possible.  Failing that, if random access iterators are passed, then the
 583:/Applications/ARM/arm-none-eabi/include/c++/10.3.1/bits/stl_algobase.h ****    *  loop count will be known (and therefore a candidate for compiler
 584:/Applications/ARM/arm-none-eabi/include/c++/10.3.1/bits/stl_algobase.h ****    *  optimizations such as unrolling).  Result may not be contained within
 585:/Applications/ARM/arm-none-eabi/include/c++/10.3.1/bits/stl_algobase.h ****    *  [first,last); the move_backward function should be used instead.
 586:/Applications/ARM/arm-none-eabi/include/c++/10.3.1/bits/stl_algobase.h ****    *
 587:/Applications/ARM/arm-none-eabi/include/c++/10.3.1/bits/stl_algobase.h ****    *  Note that the end of the output range is permitted to be contained
 588:/Applications/ARM/arm-none-eabi/include/c++/10.3.1/bits/stl_algobase.h ****    *  within [first,last).
 589:/Applications/ARM/arm-none-eabi/include/c++/10.3.1/bits/stl_algobase.h ****   */
 590:/Applications/ARM/arm-none-eabi/include/c++/10.3.1/bits/stl_algobase.h ****   template<typename _II, typename _OI>
 591:/Applications/ARM/arm-none-eabi/include/c++/10.3.1/bits/stl_algobase.h ****     _GLIBCXX20_CONSTEXPR
 592:/Applications/ARM/arm-none-eabi/include/c++/10.3.1/bits/stl_algobase.h ****     inline _OI
 593:/Applications/ARM/arm-none-eabi/include/c++/10.3.1/bits/stl_algobase.h ****     move(_II __first, _II __last, _OI __result)
 594:/Applications/ARM/arm-none-eabi/include/c++/10.3.1/bits/stl_algobase.h ****     {
 595:/Applications/ARM/arm-none-eabi/include/c++/10.3.1/bits/stl_algobase.h ****       // concept requirements
 596:/Applications/ARM/arm-none-eabi/include/c++/10.3.1/bits/stl_algobase.h ****       __glibcxx_function_requires(_InputIteratorConcept<_II>)
 597:/Applications/ARM/arm-none-eabi/include/c++/10.3.1/bits/stl_algobase.h ****       __glibcxx_function_requires(_OutputIteratorConcept<_OI,
 598:/Applications/ARM/arm-none-eabi/include/c++/10.3.1/bits/stl_algobase.h **** 	    typename iterator_traits<_II>::value_type>)
 599:/Applications/ARM/arm-none-eabi/include/c++/10.3.1/bits/stl_algobase.h ****       __glibcxx_requires_can_increment_range(__first, __last, __result);
 600:/Applications/ARM/arm-none-eabi/include/c++/10.3.1/bits/stl_algobase.h **** 
 601:/Applications/ARM/arm-none-eabi/include/c++/10.3.1/bits/stl_algobase.h ****       return std::__copy_move_a<true>(std::__miter_base(__first),
ARM GAS  /var/folders/83/vwtnzcdn1v99b_lf0k0gsjzr0000gn/T//ccKcGgHc.s 			page 54


 602:/Applications/ARM/arm-none-eabi/include/c++/10.3.1/bits/stl_algobase.h **** 				      std::__miter_base(__last), __result);
 603:/Applications/ARM/arm-none-eabi/include/c++/10.3.1/bits/stl_algobase.h ****     }
 604:/Applications/ARM/arm-none-eabi/include/c++/10.3.1/bits/stl_algobase.h **** 
 605:/Applications/ARM/arm-none-eabi/include/c++/10.3.1/bits/stl_algobase.h **** #define _GLIBCXX_MOVE3(_Tp, _Up, _Vp) std::move(_Tp, _Up, _Vp)
 606:/Applications/ARM/arm-none-eabi/include/c++/10.3.1/bits/stl_algobase.h **** #else
 607:/Applications/ARM/arm-none-eabi/include/c++/10.3.1/bits/stl_algobase.h **** #define _GLIBCXX_MOVE3(_Tp, _Up, _Vp) std::copy(_Tp, _Up, _Vp)
 608:/Applications/ARM/arm-none-eabi/include/c++/10.3.1/bits/stl_algobase.h **** #endif
 609:/Applications/ARM/arm-none-eabi/include/c++/10.3.1/bits/stl_algobase.h **** 
 610:/Applications/ARM/arm-none-eabi/include/c++/10.3.1/bits/stl_algobase.h ****   template<bool _IsMove, bool _IsSimple, typename _Category>
 611:/Applications/ARM/arm-none-eabi/include/c++/10.3.1/bits/stl_algobase.h ****     struct __copy_move_backward
 612:/Applications/ARM/arm-none-eabi/include/c++/10.3.1/bits/stl_algobase.h ****     {
 613:/Applications/ARM/arm-none-eabi/include/c++/10.3.1/bits/stl_algobase.h ****       template<typename _BI1, typename _BI2>
 614:/Applications/ARM/arm-none-eabi/include/c++/10.3.1/bits/stl_algobase.h **** 	_GLIBCXX20_CONSTEXPR
 615:/Applications/ARM/arm-none-eabi/include/c++/10.3.1/bits/stl_algobase.h **** 	static _BI2
 616:/Applications/ARM/arm-none-eabi/include/c++/10.3.1/bits/stl_algobase.h **** 	__copy_move_b(_BI1 __first, _BI1 __last, _BI2 __result)
 617:/Applications/ARM/arm-none-eabi/include/c++/10.3.1/bits/stl_algobase.h **** 	{
 618:/Applications/ARM/arm-none-eabi/include/c++/10.3.1/bits/stl_algobase.h **** 	  while (__first != __last)
 619:/Applications/ARM/arm-none-eabi/include/c++/10.3.1/bits/stl_algobase.h **** 	    *--__result = *--__last;
 620:/Applications/ARM/arm-none-eabi/include/c++/10.3.1/bits/stl_algobase.h **** 	  return __result;
 621:/Applications/ARM/arm-none-eabi/include/c++/10.3.1/bits/stl_algobase.h **** 	}
 622:/Applications/ARM/arm-none-eabi/include/c++/10.3.1/bits/stl_algobase.h ****     };
 623:/Applications/ARM/arm-none-eabi/include/c++/10.3.1/bits/stl_algobase.h **** 
 624:/Applications/ARM/arm-none-eabi/include/c++/10.3.1/bits/stl_algobase.h **** #if __cplusplus >= 201103L
 625:/Applications/ARM/arm-none-eabi/include/c++/10.3.1/bits/stl_algobase.h ****   template<typename _Category>
 626:/Applications/ARM/arm-none-eabi/include/c++/10.3.1/bits/stl_algobase.h ****     struct __copy_move_backward<true, false, _Category>
 627:/Applications/ARM/arm-none-eabi/include/c++/10.3.1/bits/stl_algobase.h ****     {
 628:/Applications/ARM/arm-none-eabi/include/c++/10.3.1/bits/stl_algobase.h ****       template<typename _BI1, typename _BI2>
 629:/Applications/ARM/arm-none-eabi/include/c++/10.3.1/bits/stl_algobase.h **** 	_GLIBCXX20_CONSTEXPR
 630:/Applications/ARM/arm-none-eabi/include/c++/10.3.1/bits/stl_algobase.h **** 	static _BI2
 631:/Applications/ARM/arm-none-eabi/include/c++/10.3.1/bits/stl_algobase.h **** 	__copy_move_b(_BI1 __first, _BI1 __last, _BI2 __result)
 632:/Applications/ARM/arm-none-eabi/include/c++/10.3.1/bits/stl_algobase.h **** 	{
 633:/Applications/ARM/arm-none-eabi/include/c++/10.3.1/bits/stl_algobase.h **** 	  while (__first != __last)
 634:/Applications/ARM/arm-none-eabi/include/c++/10.3.1/bits/stl_algobase.h **** 	    *--__result = std::move(*--__last);
 635:/Applications/ARM/arm-none-eabi/include/c++/10.3.1/bits/stl_algobase.h **** 	  return __result;
 636:/Applications/ARM/arm-none-eabi/include/c++/10.3.1/bits/stl_algobase.h **** 	}
 637:/Applications/ARM/arm-none-eabi/include/c++/10.3.1/bits/stl_algobase.h ****     };
 638:/Applications/ARM/arm-none-eabi/include/c++/10.3.1/bits/stl_algobase.h **** #endif
 639:/Applications/ARM/arm-none-eabi/include/c++/10.3.1/bits/stl_algobase.h **** 
 640:/Applications/ARM/arm-none-eabi/include/c++/10.3.1/bits/stl_algobase.h ****   template<>
 641:/Applications/ARM/arm-none-eabi/include/c++/10.3.1/bits/stl_algobase.h ****     struct __copy_move_backward<false, false, random_access_iterator_tag>
 642:/Applications/ARM/arm-none-eabi/include/c++/10.3.1/bits/stl_algobase.h ****     {
 643:/Applications/ARM/arm-none-eabi/include/c++/10.3.1/bits/stl_algobase.h ****       template<typename _BI1, typename _BI2>
 644:/Applications/ARM/arm-none-eabi/include/c++/10.3.1/bits/stl_algobase.h **** 	_GLIBCXX20_CONSTEXPR
 645:/Applications/ARM/arm-none-eabi/include/c++/10.3.1/bits/stl_algobase.h **** 	static _BI2
 646:/Applications/ARM/arm-none-eabi/include/c++/10.3.1/bits/stl_algobase.h **** 	__copy_move_b(_BI1 __first, _BI1 __last, _BI2 __result)
 647:/Applications/ARM/arm-none-eabi/include/c++/10.3.1/bits/stl_algobase.h **** 	{
 648:/Applications/ARM/arm-none-eabi/include/c++/10.3.1/bits/stl_algobase.h **** 	  typename iterator_traits<_BI1>::difference_type
 649:/Applications/ARM/arm-none-eabi/include/c++/10.3.1/bits/stl_algobase.h **** 	    __n = __last - __first;
 650:/Applications/ARM/arm-none-eabi/include/c++/10.3.1/bits/stl_algobase.h **** 	  for (; __n > 0; --__n)
 651:/Applications/ARM/arm-none-eabi/include/c++/10.3.1/bits/stl_algobase.h **** 	    *--__result = *--__last;
 652:/Applications/ARM/arm-none-eabi/include/c++/10.3.1/bits/stl_algobase.h **** 	  return __result;
 653:/Applications/ARM/arm-none-eabi/include/c++/10.3.1/bits/stl_algobase.h **** 	}
 654:/Applications/ARM/arm-none-eabi/include/c++/10.3.1/bits/stl_algobase.h ****     };
 655:/Applications/ARM/arm-none-eabi/include/c++/10.3.1/bits/stl_algobase.h **** 
 656:/Applications/ARM/arm-none-eabi/include/c++/10.3.1/bits/stl_algobase.h **** #if __cplusplus >= 201103L
 657:/Applications/ARM/arm-none-eabi/include/c++/10.3.1/bits/stl_algobase.h ****   template<>
 658:/Applications/ARM/arm-none-eabi/include/c++/10.3.1/bits/stl_algobase.h ****     struct __copy_move_backward<true, false, random_access_iterator_tag>
ARM GAS  /var/folders/83/vwtnzcdn1v99b_lf0k0gsjzr0000gn/T//ccKcGgHc.s 			page 55


 659:/Applications/ARM/arm-none-eabi/include/c++/10.3.1/bits/stl_algobase.h ****     {
 660:/Applications/ARM/arm-none-eabi/include/c++/10.3.1/bits/stl_algobase.h ****       template<typename _BI1, typename _BI2>
 661:/Applications/ARM/arm-none-eabi/include/c++/10.3.1/bits/stl_algobase.h **** 	_GLIBCXX20_CONSTEXPR
 662:/Applications/ARM/arm-none-eabi/include/c++/10.3.1/bits/stl_algobase.h **** 	static _BI2
 663:/Applications/ARM/arm-none-eabi/include/c++/10.3.1/bits/stl_algobase.h **** 	__copy_move_b(_BI1 __first, _BI1 __last, _BI2 __result)
 664:/Applications/ARM/arm-none-eabi/include/c++/10.3.1/bits/stl_algobase.h **** 	{
 665:/Applications/ARM/arm-none-eabi/include/c++/10.3.1/bits/stl_algobase.h **** 	  typename iterator_traits<_BI1>::difference_type
 666:/Applications/ARM/arm-none-eabi/include/c++/10.3.1/bits/stl_algobase.h **** 	    __n = __last - __first;
 667:/Applications/ARM/arm-none-eabi/include/c++/10.3.1/bits/stl_algobase.h **** 	  for (; __n > 0; --__n)
 668:/Applications/ARM/arm-none-eabi/include/c++/10.3.1/bits/stl_algobase.h **** 	    *--__result = std::move(*--__last);
 669:/Applications/ARM/arm-none-eabi/include/c++/10.3.1/bits/stl_algobase.h **** 	  return __result;
 670:/Applications/ARM/arm-none-eabi/include/c++/10.3.1/bits/stl_algobase.h **** 	}
 671:/Applications/ARM/arm-none-eabi/include/c++/10.3.1/bits/stl_algobase.h ****     };
 672:/Applications/ARM/arm-none-eabi/include/c++/10.3.1/bits/stl_algobase.h **** #endif
 673:/Applications/ARM/arm-none-eabi/include/c++/10.3.1/bits/stl_algobase.h **** 
 674:/Applications/ARM/arm-none-eabi/include/c++/10.3.1/bits/stl_algobase.h ****   template<bool _IsMove>
 675:/Applications/ARM/arm-none-eabi/include/c++/10.3.1/bits/stl_algobase.h ****     struct __copy_move_backward<_IsMove, true, random_access_iterator_tag>
 676:/Applications/ARM/arm-none-eabi/include/c++/10.3.1/bits/stl_algobase.h ****     {
 677:/Applications/ARM/arm-none-eabi/include/c++/10.3.1/bits/stl_algobase.h ****       template<typename _Tp>
 678:/Applications/ARM/arm-none-eabi/include/c++/10.3.1/bits/stl_algobase.h **** 	_GLIBCXX20_CONSTEXPR
 679:/Applications/ARM/arm-none-eabi/include/c++/10.3.1/bits/stl_algobase.h **** 	static _Tp*
 680:/Applications/ARM/arm-none-eabi/include/c++/10.3.1/bits/stl_algobase.h **** 	__copy_move_b(const _Tp* __first, const _Tp* __last, _Tp* __result)
 681:/Applications/ARM/arm-none-eabi/include/c++/10.3.1/bits/stl_algobase.h **** 	{
 682:/Applications/ARM/arm-none-eabi/include/c++/10.3.1/bits/stl_algobase.h **** #if __cplusplus >= 201103L
 683:/Applications/ARM/arm-none-eabi/include/c++/10.3.1/bits/stl_algobase.h **** 	  using __assignable = conditional<_IsMove,
 684:/Applications/ARM/arm-none-eabi/include/c++/10.3.1/bits/stl_algobase.h **** 					   is_move_assignable<_Tp>,
 685:/Applications/ARM/arm-none-eabi/include/c++/10.3.1/bits/stl_algobase.h **** 					   is_copy_assignable<_Tp>>;
 686:/Applications/ARM/arm-none-eabi/include/c++/10.3.1/bits/stl_algobase.h **** 	  // trivial types can have deleted assignment
 687:/Applications/ARM/arm-none-eabi/include/c++/10.3.1/bits/stl_algobase.h **** 	  static_assert( __assignable::type::value, "type is not assignable" );
 688:/Applications/ARM/arm-none-eabi/include/c++/10.3.1/bits/stl_algobase.h **** #endif
 689:/Applications/ARM/arm-none-eabi/include/c++/10.3.1/bits/stl_algobase.h **** 	  const ptrdiff_t _Num = __last - __first;
 690:/Applications/ARM/arm-none-eabi/include/c++/10.3.1/bits/stl_algobase.h **** 	  if (_Num)
 691:/Applications/ARM/arm-none-eabi/include/c++/10.3.1/bits/stl_algobase.h **** 	    __builtin_memmove(__result - _Num, __first, sizeof(_Tp) * _Num);
 692:/Applications/ARM/arm-none-eabi/include/c++/10.3.1/bits/stl_algobase.h **** 	  return __result - _Num;
 693:/Applications/ARM/arm-none-eabi/include/c++/10.3.1/bits/stl_algobase.h **** 	}
 694:/Applications/ARM/arm-none-eabi/include/c++/10.3.1/bits/stl_algobase.h ****     };
 695:/Applications/ARM/arm-none-eabi/include/c++/10.3.1/bits/stl_algobase.h **** 
 696:/Applications/ARM/arm-none-eabi/include/c++/10.3.1/bits/stl_algobase.h ****   template<bool _IsMove, typename _BI1, typename _BI2>
 697:/Applications/ARM/arm-none-eabi/include/c++/10.3.1/bits/stl_algobase.h ****     _GLIBCXX20_CONSTEXPR
 698:/Applications/ARM/arm-none-eabi/include/c++/10.3.1/bits/stl_algobase.h ****     inline _BI2
 699:/Applications/ARM/arm-none-eabi/include/c++/10.3.1/bits/stl_algobase.h ****     __copy_move_backward_a2(_BI1 __first, _BI1 __last, _BI2 __result)
 700:/Applications/ARM/arm-none-eabi/include/c++/10.3.1/bits/stl_algobase.h ****     {
 701:/Applications/ARM/arm-none-eabi/include/c++/10.3.1/bits/stl_algobase.h ****       typedef typename iterator_traits<_BI1>::iterator_category _Category;
 702:/Applications/ARM/arm-none-eabi/include/c++/10.3.1/bits/stl_algobase.h **** #ifdef __cpp_lib_is_constant_evaluated
 703:/Applications/ARM/arm-none-eabi/include/c++/10.3.1/bits/stl_algobase.h ****       if (std::is_constant_evaluated())
 704:/Applications/ARM/arm-none-eabi/include/c++/10.3.1/bits/stl_algobase.h **** 	return std::__copy_move_backward<_IsMove, false, _Category>::
 705:/Applications/ARM/arm-none-eabi/include/c++/10.3.1/bits/stl_algobase.h **** 	  __copy_move_b(__first, __last, __result);
 706:/Applications/ARM/arm-none-eabi/include/c++/10.3.1/bits/stl_algobase.h **** #endif
 707:/Applications/ARM/arm-none-eabi/include/c++/10.3.1/bits/stl_algobase.h ****       return std::__copy_move_backward<_IsMove,
 708:/Applications/ARM/arm-none-eabi/include/c++/10.3.1/bits/stl_algobase.h **** 				       __memcpyable<_BI2, _BI1>::__value,
 709:/Applications/ARM/arm-none-eabi/include/c++/10.3.1/bits/stl_algobase.h **** 				       _Category>::__copy_move_b(__first,
 710:/Applications/ARM/arm-none-eabi/include/c++/10.3.1/bits/stl_algobase.h **** 								 __last,
 711:/Applications/ARM/arm-none-eabi/include/c++/10.3.1/bits/stl_algobase.h **** 								 __result);
 712:/Applications/ARM/arm-none-eabi/include/c++/10.3.1/bits/stl_algobase.h ****     }
 713:/Applications/ARM/arm-none-eabi/include/c++/10.3.1/bits/stl_algobase.h **** 
 714:/Applications/ARM/arm-none-eabi/include/c++/10.3.1/bits/stl_algobase.h ****   template<bool _IsMove, typename _BI1, typename _BI2>
 715:/Applications/ARM/arm-none-eabi/include/c++/10.3.1/bits/stl_algobase.h ****     _GLIBCXX20_CONSTEXPR
ARM GAS  /var/folders/83/vwtnzcdn1v99b_lf0k0gsjzr0000gn/T//ccKcGgHc.s 			page 56


 716:/Applications/ARM/arm-none-eabi/include/c++/10.3.1/bits/stl_algobase.h ****     inline _BI2
 717:/Applications/ARM/arm-none-eabi/include/c++/10.3.1/bits/stl_algobase.h ****     __copy_move_backward_a1(_BI1 __first, _BI1 __last, _BI2 __result)
 718:/Applications/ARM/arm-none-eabi/include/c++/10.3.1/bits/stl_algobase.h ****     { return std::__copy_move_backward_a2<_IsMove>(__first, __last, __result); }
 719:/Applications/ARM/arm-none-eabi/include/c++/10.3.1/bits/stl_algobase.h **** 
 720:/Applications/ARM/arm-none-eabi/include/c++/10.3.1/bits/stl_algobase.h ****   template<bool _IsMove,
 721:/Applications/ARM/arm-none-eabi/include/c++/10.3.1/bits/stl_algobase.h **** 	   typename _Tp, typename _Ref, typename _Ptr, typename _OI>
 722:/Applications/ARM/arm-none-eabi/include/c++/10.3.1/bits/stl_algobase.h ****     _OI
 723:/Applications/ARM/arm-none-eabi/include/c++/10.3.1/bits/stl_algobase.h ****     __copy_move_backward_a1(_GLIBCXX_STD_C::_Deque_iterator<_Tp, _Ref, _Ptr>,
 724:/Applications/ARM/arm-none-eabi/include/c++/10.3.1/bits/stl_algobase.h **** 			    _GLIBCXX_STD_C::_Deque_iterator<_Tp, _Ref, _Ptr>,
 725:/Applications/ARM/arm-none-eabi/include/c++/10.3.1/bits/stl_algobase.h **** 			    _OI);
 726:/Applications/ARM/arm-none-eabi/include/c++/10.3.1/bits/stl_algobase.h **** 
 727:/Applications/ARM/arm-none-eabi/include/c++/10.3.1/bits/stl_algobase.h ****   template<bool _IsMove,
 728:/Applications/ARM/arm-none-eabi/include/c++/10.3.1/bits/stl_algobase.h **** 	   typename _ITp, typename _IRef, typename _IPtr, typename _OTp>
 729:/Applications/ARM/arm-none-eabi/include/c++/10.3.1/bits/stl_algobase.h ****     _GLIBCXX_STD_C::_Deque_iterator<_OTp, _OTp&, _OTp*>
 730:/Applications/ARM/arm-none-eabi/include/c++/10.3.1/bits/stl_algobase.h ****     __copy_move_backward_a1(
 731:/Applications/ARM/arm-none-eabi/include/c++/10.3.1/bits/stl_algobase.h **** 			_GLIBCXX_STD_C::_Deque_iterator<_ITp, _IRef, _IPtr>,
 732:/Applications/ARM/arm-none-eabi/include/c++/10.3.1/bits/stl_algobase.h **** 			_GLIBCXX_STD_C::_Deque_iterator<_ITp, _IRef, _IPtr>,
 733:/Applications/ARM/arm-none-eabi/include/c++/10.3.1/bits/stl_algobase.h **** 			_GLIBCXX_STD_C::_Deque_iterator<_OTp, _OTp&, _OTp*>);
 734:/Applications/ARM/arm-none-eabi/include/c++/10.3.1/bits/stl_algobase.h **** 
 735:/Applications/ARM/arm-none-eabi/include/c++/10.3.1/bits/stl_algobase.h ****   template<bool _IsMove, typename _II, typename _Tp>
 736:/Applications/ARM/arm-none-eabi/include/c++/10.3.1/bits/stl_algobase.h ****     typename __gnu_cxx::__enable_if<
 737:/Applications/ARM/arm-none-eabi/include/c++/10.3.1/bits/stl_algobase.h ****       __is_random_access_iter<_II>::__value,
 738:/Applications/ARM/arm-none-eabi/include/c++/10.3.1/bits/stl_algobase.h ****       _GLIBCXX_STD_C::_Deque_iterator<_Tp, _Tp&, _Tp*> >::__type
 739:/Applications/ARM/arm-none-eabi/include/c++/10.3.1/bits/stl_algobase.h ****     __copy_move_backward_a1(_II, _II,
 740:/Applications/ARM/arm-none-eabi/include/c++/10.3.1/bits/stl_algobase.h **** 			    _GLIBCXX_STD_C::_Deque_iterator<_Tp, _Tp&, _Tp*>);
 741:/Applications/ARM/arm-none-eabi/include/c++/10.3.1/bits/stl_algobase.h **** 
 742:/Applications/ARM/arm-none-eabi/include/c++/10.3.1/bits/stl_algobase.h ****   template<bool _IsMove, typename _II, typename _OI>
 743:/Applications/ARM/arm-none-eabi/include/c++/10.3.1/bits/stl_algobase.h ****     _GLIBCXX20_CONSTEXPR
 744:/Applications/ARM/arm-none-eabi/include/c++/10.3.1/bits/stl_algobase.h ****     inline _OI
 745:/Applications/ARM/arm-none-eabi/include/c++/10.3.1/bits/stl_algobase.h ****     __copy_move_backward_a(_II __first, _II __last, _OI __result)
 746:/Applications/ARM/arm-none-eabi/include/c++/10.3.1/bits/stl_algobase.h ****     {
 747:/Applications/ARM/arm-none-eabi/include/c++/10.3.1/bits/stl_algobase.h ****       return std::__niter_wrap(__result,
 748:/Applications/ARM/arm-none-eabi/include/c++/10.3.1/bits/stl_algobase.h **** 		std::__copy_move_backward_a1<_IsMove>
 749:/Applications/ARM/arm-none-eabi/include/c++/10.3.1/bits/stl_algobase.h **** 		  (std::__niter_base(__first), std::__niter_base(__last),
 750:/Applications/ARM/arm-none-eabi/include/c++/10.3.1/bits/stl_algobase.h **** 		   std::__niter_base(__result)));
 751:/Applications/ARM/arm-none-eabi/include/c++/10.3.1/bits/stl_algobase.h ****     }
 752:/Applications/ARM/arm-none-eabi/include/c++/10.3.1/bits/stl_algobase.h **** 
 753:/Applications/ARM/arm-none-eabi/include/c++/10.3.1/bits/stl_algobase.h ****   template<bool _IsMove,
 754:/Applications/ARM/arm-none-eabi/include/c++/10.3.1/bits/stl_algobase.h **** 	   typename _Ite, typename _Seq, typename _Cat, typename _OI>
 755:/Applications/ARM/arm-none-eabi/include/c++/10.3.1/bits/stl_algobase.h ****     _OI
 756:/Applications/ARM/arm-none-eabi/include/c++/10.3.1/bits/stl_algobase.h ****     __copy_move_backward_a(
 757:/Applications/ARM/arm-none-eabi/include/c++/10.3.1/bits/stl_algobase.h **** 		const ::__gnu_debug::_Safe_iterator<_Ite, _Seq, _Cat>&,
 758:/Applications/ARM/arm-none-eabi/include/c++/10.3.1/bits/stl_algobase.h **** 		const ::__gnu_debug::_Safe_iterator<_Ite, _Seq, _Cat>&,
 759:/Applications/ARM/arm-none-eabi/include/c++/10.3.1/bits/stl_algobase.h **** 		_OI);
 760:/Applications/ARM/arm-none-eabi/include/c++/10.3.1/bits/stl_algobase.h **** 
 761:/Applications/ARM/arm-none-eabi/include/c++/10.3.1/bits/stl_algobase.h ****   template<bool _IsMove,
 762:/Applications/ARM/arm-none-eabi/include/c++/10.3.1/bits/stl_algobase.h **** 	   typename _II, typename _Ite, typename _Seq, typename _Cat>
 763:/Applications/ARM/arm-none-eabi/include/c++/10.3.1/bits/stl_algobase.h ****     __gnu_debug::_Safe_iterator<_Ite, _Seq, _Cat>
 764:/Applications/ARM/arm-none-eabi/include/c++/10.3.1/bits/stl_algobase.h ****     __copy_move_backward_a(_II, _II,
 765:/Applications/ARM/arm-none-eabi/include/c++/10.3.1/bits/stl_algobase.h **** 		const ::__gnu_debug::_Safe_iterator<_Ite, _Seq, _Cat>&);
 766:/Applications/ARM/arm-none-eabi/include/c++/10.3.1/bits/stl_algobase.h **** 
 767:/Applications/ARM/arm-none-eabi/include/c++/10.3.1/bits/stl_algobase.h ****   template<bool _IsMove,
 768:/Applications/ARM/arm-none-eabi/include/c++/10.3.1/bits/stl_algobase.h **** 	   typename _IIte, typename _ISeq, typename _ICat,
 769:/Applications/ARM/arm-none-eabi/include/c++/10.3.1/bits/stl_algobase.h **** 	   typename _OIte, typename _OSeq, typename _OCat>
 770:/Applications/ARM/arm-none-eabi/include/c++/10.3.1/bits/stl_algobase.h ****     ::__gnu_debug::_Safe_iterator<_OIte, _OSeq, _OCat>
 771:/Applications/ARM/arm-none-eabi/include/c++/10.3.1/bits/stl_algobase.h ****     __copy_move_backward_a(
 772:/Applications/ARM/arm-none-eabi/include/c++/10.3.1/bits/stl_algobase.h **** 		const ::__gnu_debug::_Safe_iterator<_IIte, _ISeq, _ICat>&,
ARM GAS  /var/folders/83/vwtnzcdn1v99b_lf0k0gsjzr0000gn/T//ccKcGgHc.s 			page 57


 773:/Applications/ARM/arm-none-eabi/include/c++/10.3.1/bits/stl_algobase.h **** 		const ::__gnu_debug::_Safe_iterator<_IIte, _ISeq, _ICat>&,
 774:/Applications/ARM/arm-none-eabi/include/c++/10.3.1/bits/stl_algobase.h **** 		const ::__gnu_debug::_Safe_iterator<_OIte, _OSeq, _OCat>&);
 775:/Applications/ARM/arm-none-eabi/include/c++/10.3.1/bits/stl_algobase.h **** 
 776:/Applications/ARM/arm-none-eabi/include/c++/10.3.1/bits/stl_algobase.h ****   /**
 777:/Applications/ARM/arm-none-eabi/include/c++/10.3.1/bits/stl_algobase.h ****    *  @brief Copies the range [first,last) into result.
 778:/Applications/ARM/arm-none-eabi/include/c++/10.3.1/bits/stl_algobase.h ****    *  @ingroup mutating_algorithms
 779:/Applications/ARM/arm-none-eabi/include/c++/10.3.1/bits/stl_algobase.h ****    *  @param  __first  A bidirectional iterator.
 780:/Applications/ARM/arm-none-eabi/include/c++/10.3.1/bits/stl_algobase.h ****    *  @param  __last   A bidirectional iterator.
 781:/Applications/ARM/arm-none-eabi/include/c++/10.3.1/bits/stl_algobase.h ****    *  @param  __result A bidirectional iterator.
 782:/Applications/ARM/arm-none-eabi/include/c++/10.3.1/bits/stl_algobase.h ****    *  @return   result - (last - first)
 783:/Applications/ARM/arm-none-eabi/include/c++/10.3.1/bits/stl_algobase.h ****    *
 784:/Applications/ARM/arm-none-eabi/include/c++/10.3.1/bits/stl_algobase.h ****    *  The function has the same effect as copy, but starts at the end of the
 785:/Applications/ARM/arm-none-eabi/include/c++/10.3.1/bits/stl_algobase.h ****    *  range and works its way to the start, returning the start of the result.
 786:/Applications/ARM/arm-none-eabi/include/c++/10.3.1/bits/stl_algobase.h ****    *  This inline function will boil down to a call to @c memmove whenever
 787:/Applications/ARM/arm-none-eabi/include/c++/10.3.1/bits/stl_algobase.h ****    *  possible.  Failing that, if random access iterators are passed, then the
 788:/Applications/ARM/arm-none-eabi/include/c++/10.3.1/bits/stl_algobase.h ****    *  loop count will be known (and therefore a candidate for compiler
 789:/Applications/ARM/arm-none-eabi/include/c++/10.3.1/bits/stl_algobase.h ****    *  optimizations such as unrolling).
 790:/Applications/ARM/arm-none-eabi/include/c++/10.3.1/bits/stl_algobase.h ****    *
 791:/Applications/ARM/arm-none-eabi/include/c++/10.3.1/bits/stl_algobase.h ****    *  Result may not be in the range (first,last].  Use copy instead.  Note
 792:/Applications/ARM/arm-none-eabi/include/c++/10.3.1/bits/stl_algobase.h ****    *  that the start of the output range may overlap [first,last).
 793:/Applications/ARM/arm-none-eabi/include/c++/10.3.1/bits/stl_algobase.h ****   */
 794:/Applications/ARM/arm-none-eabi/include/c++/10.3.1/bits/stl_algobase.h ****   template<typename _BI1, typename _BI2>
 795:/Applications/ARM/arm-none-eabi/include/c++/10.3.1/bits/stl_algobase.h ****     _GLIBCXX20_CONSTEXPR
 796:/Applications/ARM/arm-none-eabi/include/c++/10.3.1/bits/stl_algobase.h ****     inline _BI2
 797:/Applications/ARM/arm-none-eabi/include/c++/10.3.1/bits/stl_algobase.h ****     copy_backward(_BI1 __first, _BI1 __last, _BI2 __result)
 798:/Applications/ARM/arm-none-eabi/include/c++/10.3.1/bits/stl_algobase.h ****     {
 799:/Applications/ARM/arm-none-eabi/include/c++/10.3.1/bits/stl_algobase.h ****       // concept requirements
 800:/Applications/ARM/arm-none-eabi/include/c++/10.3.1/bits/stl_algobase.h ****       __glibcxx_function_requires(_BidirectionalIteratorConcept<_BI1>)
 801:/Applications/ARM/arm-none-eabi/include/c++/10.3.1/bits/stl_algobase.h ****       __glibcxx_function_requires(_Mutable_BidirectionalIteratorConcept<_BI2>)
 802:/Applications/ARM/arm-none-eabi/include/c++/10.3.1/bits/stl_algobase.h ****       __glibcxx_function_requires(_ConvertibleConcept<
 803:/Applications/ARM/arm-none-eabi/include/c++/10.3.1/bits/stl_algobase.h **** 	    typename iterator_traits<_BI1>::value_type,
 804:/Applications/ARM/arm-none-eabi/include/c++/10.3.1/bits/stl_algobase.h **** 	    typename iterator_traits<_BI2>::value_type>)
 805:/Applications/ARM/arm-none-eabi/include/c++/10.3.1/bits/stl_algobase.h ****       __glibcxx_requires_can_decrement_range(__first, __last, __result);
 806:/Applications/ARM/arm-none-eabi/include/c++/10.3.1/bits/stl_algobase.h **** 
 807:/Applications/ARM/arm-none-eabi/include/c++/10.3.1/bits/stl_algobase.h ****       return std::__copy_move_backward_a<__is_move_iterator<_BI1>::__value>
 808:/Applications/ARM/arm-none-eabi/include/c++/10.3.1/bits/stl_algobase.h **** 	     (std::__miter_base(__first), std::__miter_base(__last), __result);
 809:/Applications/ARM/arm-none-eabi/include/c++/10.3.1/bits/stl_algobase.h ****     }
 810:/Applications/ARM/arm-none-eabi/include/c++/10.3.1/bits/stl_algobase.h **** 
 811:/Applications/ARM/arm-none-eabi/include/c++/10.3.1/bits/stl_algobase.h **** #if __cplusplus >= 201103L
 812:/Applications/ARM/arm-none-eabi/include/c++/10.3.1/bits/stl_algobase.h ****   /**
 813:/Applications/ARM/arm-none-eabi/include/c++/10.3.1/bits/stl_algobase.h ****    *  @brief Moves the range [first,last) into result.
 814:/Applications/ARM/arm-none-eabi/include/c++/10.3.1/bits/stl_algobase.h ****    *  @ingroup mutating_algorithms
 815:/Applications/ARM/arm-none-eabi/include/c++/10.3.1/bits/stl_algobase.h ****    *  @param  __first  A bidirectional iterator.
 816:/Applications/ARM/arm-none-eabi/include/c++/10.3.1/bits/stl_algobase.h ****    *  @param  __last   A bidirectional iterator.
 817:/Applications/ARM/arm-none-eabi/include/c++/10.3.1/bits/stl_algobase.h ****    *  @param  __result A bidirectional iterator.
 818:/Applications/ARM/arm-none-eabi/include/c++/10.3.1/bits/stl_algobase.h ****    *  @return   result - (last - first)
 819:/Applications/ARM/arm-none-eabi/include/c++/10.3.1/bits/stl_algobase.h ****    *
 820:/Applications/ARM/arm-none-eabi/include/c++/10.3.1/bits/stl_algobase.h ****    *  The function has the same effect as move, but starts at the end of the
 821:/Applications/ARM/arm-none-eabi/include/c++/10.3.1/bits/stl_algobase.h ****    *  range and works its way to the start, returning the start of the result.
 822:/Applications/ARM/arm-none-eabi/include/c++/10.3.1/bits/stl_algobase.h ****    *  This inline function will boil down to a call to @c memmove whenever
 823:/Applications/ARM/arm-none-eabi/include/c++/10.3.1/bits/stl_algobase.h ****    *  possible.  Failing that, if random access iterators are passed, then the
 824:/Applications/ARM/arm-none-eabi/include/c++/10.3.1/bits/stl_algobase.h ****    *  loop count will be known (and therefore a candidate for compiler
 825:/Applications/ARM/arm-none-eabi/include/c++/10.3.1/bits/stl_algobase.h ****    *  optimizations such as unrolling).
 826:/Applications/ARM/arm-none-eabi/include/c++/10.3.1/bits/stl_algobase.h ****    *
 827:/Applications/ARM/arm-none-eabi/include/c++/10.3.1/bits/stl_algobase.h ****    *  Result may not be in the range (first,last].  Use move instead.  Note
 828:/Applications/ARM/arm-none-eabi/include/c++/10.3.1/bits/stl_algobase.h ****    *  that the start of the output range may overlap [first,last).
 829:/Applications/ARM/arm-none-eabi/include/c++/10.3.1/bits/stl_algobase.h ****   */
ARM GAS  /var/folders/83/vwtnzcdn1v99b_lf0k0gsjzr0000gn/T//ccKcGgHc.s 			page 58


 830:/Applications/ARM/arm-none-eabi/include/c++/10.3.1/bits/stl_algobase.h ****   template<typename _BI1, typename _BI2>
 831:/Applications/ARM/arm-none-eabi/include/c++/10.3.1/bits/stl_algobase.h ****     _GLIBCXX20_CONSTEXPR
 832:/Applications/ARM/arm-none-eabi/include/c++/10.3.1/bits/stl_algobase.h ****     inline _BI2
 833:/Applications/ARM/arm-none-eabi/include/c++/10.3.1/bits/stl_algobase.h ****     move_backward(_BI1 __first, _BI1 __last, _BI2 __result)
 834:/Applications/ARM/arm-none-eabi/include/c++/10.3.1/bits/stl_algobase.h ****     {
 835:/Applications/ARM/arm-none-eabi/include/c++/10.3.1/bits/stl_algobase.h ****       // concept requirements
 836:/Applications/ARM/arm-none-eabi/include/c++/10.3.1/bits/stl_algobase.h ****       __glibcxx_function_requires(_BidirectionalIteratorConcept<_BI1>)
 837:/Applications/ARM/arm-none-eabi/include/c++/10.3.1/bits/stl_algobase.h ****       __glibcxx_function_requires(_Mutable_BidirectionalIteratorConcept<_BI2>)
 838:/Applications/ARM/arm-none-eabi/include/c++/10.3.1/bits/stl_algobase.h ****       __glibcxx_function_requires(_ConvertibleConcept<
 839:/Applications/ARM/arm-none-eabi/include/c++/10.3.1/bits/stl_algobase.h **** 	    typename iterator_traits<_BI1>::value_type,
 840:/Applications/ARM/arm-none-eabi/include/c++/10.3.1/bits/stl_algobase.h **** 	    typename iterator_traits<_BI2>::value_type>)
 841:/Applications/ARM/arm-none-eabi/include/c++/10.3.1/bits/stl_algobase.h ****       __glibcxx_requires_can_decrement_range(__first, __last, __result);
 842:/Applications/ARM/arm-none-eabi/include/c++/10.3.1/bits/stl_algobase.h **** 
 843:/Applications/ARM/arm-none-eabi/include/c++/10.3.1/bits/stl_algobase.h ****       return std::__copy_move_backward_a<true>(std::__miter_base(__first),
 844:/Applications/ARM/arm-none-eabi/include/c++/10.3.1/bits/stl_algobase.h **** 					       std::__miter_base(__last),
 845:/Applications/ARM/arm-none-eabi/include/c++/10.3.1/bits/stl_algobase.h **** 					       __result);
 846:/Applications/ARM/arm-none-eabi/include/c++/10.3.1/bits/stl_algobase.h ****     }
 847:/Applications/ARM/arm-none-eabi/include/c++/10.3.1/bits/stl_algobase.h **** 
 848:/Applications/ARM/arm-none-eabi/include/c++/10.3.1/bits/stl_algobase.h **** #define _GLIBCXX_MOVE_BACKWARD3(_Tp, _Up, _Vp) std::move_backward(_Tp, _Up, _Vp)
 849:/Applications/ARM/arm-none-eabi/include/c++/10.3.1/bits/stl_algobase.h **** #else
 850:/Applications/ARM/arm-none-eabi/include/c++/10.3.1/bits/stl_algobase.h **** #define _GLIBCXX_MOVE_BACKWARD3(_Tp, _Up, _Vp) std::copy_backward(_Tp, _Up, _Vp)
 851:/Applications/ARM/arm-none-eabi/include/c++/10.3.1/bits/stl_algobase.h **** #endif
 852:/Applications/ARM/arm-none-eabi/include/c++/10.3.1/bits/stl_algobase.h **** 
 853:/Applications/ARM/arm-none-eabi/include/c++/10.3.1/bits/stl_algobase.h ****   template<typename _ForwardIterator, typename _Tp>
 854:/Applications/ARM/arm-none-eabi/include/c++/10.3.1/bits/stl_algobase.h ****     _GLIBCXX20_CONSTEXPR
 855:/Applications/ARM/arm-none-eabi/include/c++/10.3.1/bits/stl_algobase.h ****     inline typename
 856:/Applications/ARM/arm-none-eabi/include/c++/10.3.1/bits/stl_algobase.h ****     __gnu_cxx::__enable_if<!__is_scalar<_Tp>::__value, void>::__type
 857:/Applications/ARM/arm-none-eabi/include/c++/10.3.1/bits/stl_algobase.h ****     __fill_a1(_ForwardIterator __first, _ForwardIterator __last,
 858:/Applications/ARM/arm-none-eabi/include/c++/10.3.1/bits/stl_algobase.h **** 	      const _Tp& __value)
 859:/Applications/ARM/arm-none-eabi/include/c++/10.3.1/bits/stl_algobase.h ****     {
 860:/Applications/ARM/arm-none-eabi/include/c++/10.3.1/bits/stl_algobase.h ****       for (; __first != __last; ++__first)
 861:/Applications/ARM/arm-none-eabi/include/c++/10.3.1/bits/stl_algobase.h **** 	*__first = __value;
 862:/Applications/ARM/arm-none-eabi/include/c++/10.3.1/bits/stl_algobase.h ****     }
 863:/Applications/ARM/arm-none-eabi/include/c++/10.3.1/bits/stl_algobase.h **** 
 864:/Applications/ARM/arm-none-eabi/include/c++/10.3.1/bits/stl_algobase.h ****   template<typename _ForwardIterator, typename _Tp>
 865:/Applications/ARM/arm-none-eabi/include/c++/10.3.1/bits/stl_algobase.h ****     _GLIBCXX20_CONSTEXPR
 866:/Applications/ARM/arm-none-eabi/include/c++/10.3.1/bits/stl_algobase.h ****     inline typename
 867:/Applications/ARM/arm-none-eabi/include/c++/10.3.1/bits/stl_algobase.h ****     __gnu_cxx::__enable_if<__is_scalar<_Tp>::__value, void>::__type
 868:/Applications/ARM/arm-none-eabi/include/c++/10.3.1/bits/stl_algobase.h ****     __fill_a1(_ForwardIterator __first, _ForwardIterator __last,
 869:/Applications/ARM/arm-none-eabi/include/c++/10.3.1/bits/stl_algobase.h **** 	      const _Tp& __value)
 870:/Applications/ARM/arm-none-eabi/include/c++/10.3.1/bits/stl_algobase.h ****     {
 871:/Applications/ARM/arm-none-eabi/include/c++/10.3.1/bits/stl_algobase.h ****       const _Tp __tmp = __value;
 872:/Applications/ARM/arm-none-eabi/include/c++/10.3.1/bits/stl_algobase.h ****       for (; __first != __last; ++__first)
 873:/Applications/ARM/arm-none-eabi/include/c++/10.3.1/bits/stl_algobase.h **** 	*__first = __tmp;
 874:/Applications/ARM/arm-none-eabi/include/c++/10.3.1/bits/stl_algobase.h ****     }
 875:/Applications/ARM/arm-none-eabi/include/c++/10.3.1/bits/stl_algobase.h **** 
 876:/Applications/ARM/arm-none-eabi/include/c++/10.3.1/bits/stl_algobase.h ****   // Specialization: for char types we can use memset.
 877:/Applications/ARM/arm-none-eabi/include/c++/10.3.1/bits/stl_algobase.h ****   template<typename _Tp>
 878:/Applications/ARM/arm-none-eabi/include/c++/10.3.1/bits/stl_algobase.h ****     _GLIBCXX20_CONSTEXPR
 879:/Applications/ARM/arm-none-eabi/include/c++/10.3.1/bits/stl_algobase.h ****     inline typename
 880:/Applications/ARM/arm-none-eabi/include/c++/10.3.1/bits/stl_algobase.h ****     __gnu_cxx::__enable_if<__is_byte<_Tp>::__value, void>::__type
 881:/Applications/ARM/arm-none-eabi/include/c++/10.3.1/bits/stl_algobase.h ****     __fill_a1(_Tp* __first, _Tp* __last, const _Tp& __c)
 882:/Applications/ARM/arm-none-eabi/include/c++/10.3.1/bits/stl_algobase.h ****     {
 883:/Applications/ARM/arm-none-eabi/include/c++/10.3.1/bits/stl_algobase.h ****       const _Tp __tmp = __c;
 884:/Applications/ARM/arm-none-eabi/include/c++/10.3.1/bits/stl_algobase.h **** #if __cpp_lib_is_constant_evaluated
 885:/Applications/ARM/arm-none-eabi/include/c++/10.3.1/bits/stl_algobase.h ****       if (std::is_constant_evaluated())
 886:/Applications/ARM/arm-none-eabi/include/c++/10.3.1/bits/stl_algobase.h **** 	{
ARM GAS  /var/folders/83/vwtnzcdn1v99b_lf0k0gsjzr0000gn/T//ccKcGgHc.s 			page 59


 887:/Applications/ARM/arm-none-eabi/include/c++/10.3.1/bits/stl_algobase.h **** 	  for (; __first != __last; ++__first)
 888:/Applications/ARM/arm-none-eabi/include/c++/10.3.1/bits/stl_algobase.h **** 	    *__first = __tmp;
 889:/Applications/ARM/arm-none-eabi/include/c++/10.3.1/bits/stl_algobase.h **** 	  return;
 890:/Applications/ARM/arm-none-eabi/include/c++/10.3.1/bits/stl_algobase.h **** 	}
 891:/Applications/ARM/arm-none-eabi/include/c++/10.3.1/bits/stl_algobase.h **** #endif
 892:/Applications/ARM/arm-none-eabi/include/c++/10.3.1/bits/stl_algobase.h ****       if (const size_t __len = __last - __first)
 893:/Applications/ARM/arm-none-eabi/include/c++/10.3.1/bits/stl_algobase.h **** 	__builtin_memset(__first, static_cast<unsigned char>(__tmp), __len);
 894:/Applications/ARM/arm-none-eabi/include/c++/10.3.1/bits/stl_algobase.h ****     }
 895:/Applications/ARM/arm-none-eabi/include/c++/10.3.1/bits/stl_algobase.h **** 
 896:/Applications/ARM/arm-none-eabi/include/c++/10.3.1/bits/stl_algobase.h ****   template<typename _Ite, typename _Cont, typename _Tp>
 897:/Applications/ARM/arm-none-eabi/include/c++/10.3.1/bits/stl_algobase.h ****     _GLIBCXX20_CONSTEXPR
 898:/Applications/ARM/arm-none-eabi/include/c++/10.3.1/bits/stl_algobase.h ****     inline void
 899:/Applications/ARM/arm-none-eabi/include/c++/10.3.1/bits/stl_algobase.h ****     __fill_a1(::__gnu_cxx::__normal_iterator<_Ite, _Cont> __first,
 900:/Applications/ARM/arm-none-eabi/include/c++/10.3.1/bits/stl_algobase.h **** 	      ::__gnu_cxx::__normal_iterator<_Ite, _Cont> __last,
 901:/Applications/ARM/arm-none-eabi/include/c++/10.3.1/bits/stl_algobase.h **** 	      const _Tp& __value)
 902:/Applications/ARM/arm-none-eabi/include/c++/10.3.1/bits/stl_algobase.h ****     { std::__fill_a1(__first.base(), __last.base(), __value); }
 903:/Applications/ARM/arm-none-eabi/include/c++/10.3.1/bits/stl_algobase.h **** 
 904:/Applications/ARM/arm-none-eabi/include/c++/10.3.1/bits/stl_algobase.h ****   template<typename _Tp, typename _VTp>
 905:/Applications/ARM/arm-none-eabi/include/c++/10.3.1/bits/stl_algobase.h ****     void
 906:/Applications/ARM/arm-none-eabi/include/c++/10.3.1/bits/stl_algobase.h ****     __fill_a1(const _GLIBCXX_STD_C::_Deque_iterator<_Tp, _Tp&, _Tp*>&,
 907:/Applications/ARM/arm-none-eabi/include/c++/10.3.1/bits/stl_algobase.h **** 	      const _GLIBCXX_STD_C::_Deque_iterator<_Tp, _Tp&, _Tp*>&,
 908:/Applications/ARM/arm-none-eabi/include/c++/10.3.1/bits/stl_algobase.h **** 	      const _VTp&);
 909:/Applications/ARM/arm-none-eabi/include/c++/10.3.1/bits/stl_algobase.h **** 
 910:/Applications/ARM/arm-none-eabi/include/c++/10.3.1/bits/stl_algobase.h ****   template<typename _FIte, typename _Tp>
 911:/Applications/ARM/arm-none-eabi/include/c++/10.3.1/bits/stl_algobase.h ****     _GLIBCXX20_CONSTEXPR
 912:/Applications/ARM/arm-none-eabi/include/c++/10.3.1/bits/stl_algobase.h ****     inline void
 913:/Applications/ARM/arm-none-eabi/include/c++/10.3.1/bits/stl_algobase.h ****     __fill_a(_FIte __first, _FIte __last, const _Tp& __value)
 914:/Applications/ARM/arm-none-eabi/include/c++/10.3.1/bits/stl_algobase.h ****     { std::__fill_a1(__first, __last, __value); }
 915:/Applications/ARM/arm-none-eabi/include/c++/10.3.1/bits/stl_algobase.h **** 
 916:/Applications/ARM/arm-none-eabi/include/c++/10.3.1/bits/stl_algobase.h ****   template<typename _Ite, typename _Seq, typename _Cat, typename _Tp>
 917:/Applications/ARM/arm-none-eabi/include/c++/10.3.1/bits/stl_algobase.h ****     void
 918:/Applications/ARM/arm-none-eabi/include/c++/10.3.1/bits/stl_algobase.h ****     __fill_a(const ::__gnu_debug::_Safe_iterator<_Ite, _Seq, _Cat>&,
 919:/Applications/ARM/arm-none-eabi/include/c++/10.3.1/bits/stl_algobase.h **** 	     const ::__gnu_debug::_Safe_iterator<_Ite, _Seq, _Cat>&,
 920:/Applications/ARM/arm-none-eabi/include/c++/10.3.1/bits/stl_algobase.h **** 	     const _Tp&);
 921:/Applications/ARM/arm-none-eabi/include/c++/10.3.1/bits/stl_algobase.h **** 
 922:/Applications/ARM/arm-none-eabi/include/c++/10.3.1/bits/stl_algobase.h ****   /**
 923:/Applications/ARM/arm-none-eabi/include/c++/10.3.1/bits/stl_algobase.h ****    *  @brief Fills the range [first,last) with copies of value.
 924:/Applications/ARM/arm-none-eabi/include/c++/10.3.1/bits/stl_algobase.h ****    *  @ingroup mutating_algorithms
 925:/Applications/ARM/arm-none-eabi/include/c++/10.3.1/bits/stl_algobase.h ****    *  @param  __first  A forward iterator.
 926:/Applications/ARM/arm-none-eabi/include/c++/10.3.1/bits/stl_algobase.h ****    *  @param  __last   A forward iterator.
 927:/Applications/ARM/arm-none-eabi/include/c++/10.3.1/bits/stl_algobase.h ****    *  @param  __value  A reference-to-const of arbitrary type.
 928:/Applications/ARM/arm-none-eabi/include/c++/10.3.1/bits/stl_algobase.h ****    *  @return   Nothing.
 929:/Applications/ARM/arm-none-eabi/include/c++/10.3.1/bits/stl_algobase.h ****    *
 930:/Applications/ARM/arm-none-eabi/include/c++/10.3.1/bits/stl_algobase.h ****    *  This function fills a range with copies of the same value.  For char
 931:/Applications/ARM/arm-none-eabi/include/c++/10.3.1/bits/stl_algobase.h ****    *  types filling contiguous areas of memory, this becomes an inline call
 932:/Applications/ARM/arm-none-eabi/include/c++/10.3.1/bits/stl_algobase.h ****    *  to @c memset or @c wmemset.
 933:/Applications/ARM/arm-none-eabi/include/c++/10.3.1/bits/stl_algobase.h ****   */
 934:/Applications/ARM/arm-none-eabi/include/c++/10.3.1/bits/stl_algobase.h ****   template<typename _ForwardIterator, typename _Tp>
 935:/Applications/ARM/arm-none-eabi/include/c++/10.3.1/bits/stl_algobase.h ****     _GLIBCXX20_CONSTEXPR
 936:/Applications/ARM/arm-none-eabi/include/c++/10.3.1/bits/stl_algobase.h ****     inline void
 937:/Applications/ARM/arm-none-eabi/include/c++/10.3.1/bits/stl_algobase.h ****     fill(_ForwardIterator __first, _ForwardIterator __last, const _Tp& __value)
 1588              		.loc 6 937 5 view .LVU389
 1589              	.LBB198:
 1590              	.LBI198:
 913:/Applications/ARM/arm-none-eabi/include/c++/10.3.1/bits/stl_algobase.h ****     { std::__fill_a1(__first, __last, __value); }
 1591              		.loc 6 913 5 view .LVU390
 1592              	.LBB199:
ARM GAS  /var/folders/83/vwtnzcdn1v99b_lf0k0gsjzr0000gn/T//ccKcGgHc.s 			page 60


 1593              	.LBI199:
 868:/Applications/ARM/arm-none-eabi/include/c++/10.3.1/bits/stl_algobase.h **** 	      const _Tp& __value)
 1594              		.loc 6 868 5 view .LVU391
 1595              	.LBB200:
 872:/Applications/ARM/arm-none-eabi/include/c++/10.3.1/bits/stl_algobase.h **** 	*__first = __tmp;
 1596              		.loc 6 872 22 view .LVU392
 1597 0086 26B1     		cbz	r6, .L62
 873:/Applications/ARM/arm-none-eabi/include/c++/10.3.1/bits/stl_algobase.h ****     }
 1598              		.loc 6 873 11 is_stmt 0 view .LVU393
 1599 0088 3246     		mov	r2, r6
 1600 008a 7146     		mov	r1, lr
 1601 008c 3846     		mov	r0, r7
 1602              	.LVL136:
 873:/Applications/ARM/arm-none-eabi/include/c++/10.3.1/bits/stl_algobase.h ****     }
 1603              		.loc 6 873 11 view .LVU394
 1604 008e FFF7FEFF 		bl	memset
 1605              	.LVL137:
 1606              	.L62:
 873:/Applications/ARM/arm-none-eabi/include/c++/10.3.1/bits/stl_algobase.h ****     }
 1607              		.loc 6 873 11 view .LVU395
 1608              	.LBE200:
 1609              	.LBE199:
 1610              	.LBE198:
 1611              	.LBE197:
  84:/Users/amc/git/libDaisy/src/hid/midi.h ****     }
 1612              		.loc 4 84 9 is_stmt 1 view .LVU396
  84:/Users/amc/git/libDaisy/src/hid/midi.h ****     }
 1613              		.loc 4 84 19 is_stmt 0 view .LVU397
 1614 0092 0DA9     		add	r1, sp, #52
 1615 0094 4046     		mov	r0, r8
 1616 0096 FFF7FEFF 		bl	_ZN5daisy11UartHandler4InitERKNS0_6ConfigE
 1617              	.LVL138:
  84:/Users/amc/git/libDaisy/src/hid/midi.h ****     }
 1618              		.loc 4 84 19 view .LVU398
 1619              	.LBE203:
 1620              	.LBE205:
 1621              	.LBB206:
 1622              	.LBI206:
 1623              		.file 7 "/Users/amc/git/libDaisy/src/hid/midi_parser.h"
   1:/Users/amc/git/libDaisy/src/hid/midi_parser.h **** #pragma once
   2:/Users/amc/git/libDaisy/src/hid/midi_parser.h **** #ifndef DSY_MIDI_PARSER_H
   3:/Users/amc/git/libDaisy/src/hid/midi_parser.h **** #define DSY_MIDI_PARSER_H
   4:/Users/amc/git/libDaisy/src/hid/midi_parser.h **** 
   5:/Users/amc/git/libDaisy/src/hid/midi_parser.h **** #include <stdint.h>
   6:/Users/amc/git/libDaisy/src/hid/midi_parser.h **** #include <stdlib.h>
   7:/Users/amc/git/libDaisy/src/hid/midi_parser.h **** #include "hid/MidiEvent.h"
   8:/Users/amc/git/libDaisy/src/hid/midi_parser.h **** 
   9:/Users/amc/git/libDaisy/src/hid/midi_parser.h **** namespace daisy
  10:/Users/amc/git/libDaisy/src/hid/midi_parser.h **** {
  11:/Users/amc/git/libDaisy/src/hid/midi_parser.h **** /** @brief   Utility class for parsing raw byte streams into MIDI messages
  12:/Users/amc/git/libDaisy/src/hid/midi_parser.h ****  *  @details Implemented as a state machine designed to parse one byte at a time
  13:/Users/amc/git/libDaisy/src/hid/midi_parser.h ****  *  @ingroup midi
  14:/Users/amc/git/libDaisy/src/hid/midi_parser.h ****  */
  15:/Users/amc/git/libDaisy/src/hid/midi_parser.h **** class MidiParser
  16:/Users/amc/git/libDaisy/src/hid/midi_parser.h **** {
  17:/Users/amc/git/libDaisy/src/hid/midi_parser.h ****   public:
  18:/Users/amc/git/libDaisy/src/hid/midi_parser.h ****     MidiParser(){};
ARM GAS  /var/folders/83/vwtnzcdn1v99b_lf0k0gsjzr0000gn/T//ccKcGgHc.s 			page 61


  19:/Users/amc/git/libDaisy/src/hid/midi_parser.h ****     ~MidiParser() {}
  20:/Users/amc/git/libDaisy/src/hid/midi_parser.h **** 
  21:/Users/amc/git/libDaisy/src/hid/midi_parser.h ****     inline void Init() { Reset(); }
 1624              		.loc 7 21 17 is_stmt 1 view .LVU399
 1625              	.LBB207:
 1626              		.loc 7 21 26 view .LVU400
 1627              		.loc 7 21 31 is_stmt 0 view .LVU401
 1628 009a 04F5B760 		add	r0, r4, #1464
 1629              	.LVL139:
 1630              		.loc 7 21 31 view .LVU402
 1631 009e FFF7FEFF 		bl	_ZN5daisy10MidiParser5ResetEv
 1632              	.LVL140:
 1633              		.loc 7 21 31 view .LVU403
 1634              	.LBE207:
 1635              	.LBE206:
 1636              	.LBE211:
 1637              	.LBE216:
 203:../src/Pedal.cpp **** 
 1638              		.loc 1 203 1 view .LVU404
 1639 00a2 15B0     		add	sp, sp, #84
 1640              		.cfi_def_cfa_offset 28
 1641              		@ sp needed
 1642 00a4 BDE8F083 		pop	{r4, r5, r6, r7, r8, r9, pc}
 203:../src/Pedal.cpp **** 
 1643              		.loc 1 203 1 view .LVU405
 1644              		.cfi_endproc
 1645              	.LFE5687:
 1647              		.section	.text._ZN3amc5Pedal4InitEb,"ax",%progbits
 1648              		.align	1
 1649              		.p2align 2,,3
 1650              		.global	_ZN3amc5Pedal4InitEb
 1651              		.syntax unified
 1652              		.thumb
 1653              		.thumb_func
 1655              	_ZN3amc5Pedal4InitEb:
 1656              	.LVL141:
 1657              	.LFB5655:
   7:../src/Pedal.cpp **** 	seed.Init(boost);
 1658              		.loc 1 7 1 is_stmt 1 view -0
 1659              		.cfi_startproc
 1660              		@ args = 0, pretend = 0, frame = 168
 1661              		@ frame_needed = 0, uses_anonymous_args = 0
   8:../src/Pedal.cpp **** 
 1662              		.loc 1 8 2 view .LVU407
   7:../src/Pedal.cpp **** 	seed.Init(boost);
 1663              		.loc 1 7 1 is_stmt 0 view .LVU408
 1664 0000 2DE9F04F 		push	{r4, r5, r6, r7, r8, r9, r10, fp, lr}
 1665              		.cfi_def_cfa_offset 36
 1666              		.cfi_offset 4, -36
 1667              		.cfi_offset 5, -32
 1668              		.cfi_offset 6, -28
 1669              		.cfi_offset 7, -24
 1670              		.cfi_offset 8, -20
 1671              		.cfi_offset 9, -16
 1672              		.cfi_offset 10, -12
 1673              		.cfi_offset 11, -8
 1674              		.cfi_offset 14, -4
ARM GAS  /var/folders/83/vwtnzcdn1v99b_lf0k0gsjzr0000gn/T//ccKcGgHc.s 			page 62


 1675 0004 0446     		mov	r4, r0
 1676 0006 ADB0     		sub	sp, sp, #180
 1677              		.cfi_def_cfa_offset 216
   8:../src/Pedal.cpp **** 
 1678              		.loc 1 8 11 view .LVU409
 1679 0008 FFF7FEFF 		bl	_ZN5daisy9DaisySeed4InitEb
 1680              	.LVL142:
  10:../src/Pedal.cpp **** 	InitEncoders();
 1681              		.loc 1 10 2 is_stmt 1 view .LVU410
  10:../src/Pedal.cpp **** 	InitEncoders();
 1682              		.loc 1 10 20 is_stmt 0 view .LVU411
 1683 000c 2046     		mov	r0, r4
 1684              	.LBB311:
 1685              	.LBB312:
 180:../src/Pedal.cpp **** 		seed.GetPin(ENCODER_1_B_PIN),
 1686              		.loc 1 180 29 view .LVU412
 1687 000e 04F21457 		addw	r7, r4, #1300
 1688              	.LBE312:
 1689              	.LBE311:
  10:../src/Pedal.cpp **** 	InitEncoders();
 1690              		.loc 1 10 20 view .LVU413
 1691 0012 FFF7FEFF 		bl	_ZN3amc5Pedal18InitAnalogControlsEv
 1692              	.LVL143:
  11:../src/Pedal.cpp **** 	InitSwitches();
 1693              		.loc 1 11 2 is_stmt 1 view .LVU414
 1694              	.LBB315:
 1695              	.LBI311:
 178:../src/Pedal.cpp **** {
 1696              		.loc 1 178 6 view .LVU415
 1697              	.LBB313:
 180:../src/Pedal.cpp **** 		seed.GetPin(ENCODER_1_B_PIN),
 1698              		.loc 1 180 2 view .LVU416
 180:../src/Pedal.cpp **** 		seed.GetPin(ENCODER_1_B_PIN),
 1699              		.loc 1 180 29 is_stmt 0 view .LVU417
 1700 0016 0320     		movs	r0, #3
 1701 0018 FFF7FEFF 		bl	_ZN5daisy9DaisySeed6GetPinEh
 1702              	.LVL144:
 1703 001c 0346     		mov	r3, r0	@ movhi
 1704 001e 0220     		movs	r0, #2
 1705 0020 04F25445 		addw	r5, r4, #1108
 1706 0024 ADF81C30 		strh	r3, [sp, #28]	@ movhi
 1707 0028 FFF7FEFF 		bl	_ZN5daisy9DaisySeed6GetPinEh
 1708              	.LVL145:
 1709 002c 0346     		mov	r3, r0	@ movhi
 1710 002e 0420     		movs	r0, #4
 1711              	.LBE313:
 1712              	.LBE315:
 1713              	.LBB316:
 1714              	.LBB317:
  82:../src/Pedal.cpp **** 	SetHidUpdateRates();
 1715              		.loc 1 82 25 view .LVU418
 1716 0030 2E46     		mov	r6, r5
 1717              	.LBE317:
 1718              	.LBE316:
 1719              	.LBB349:
 1720              	.LBB314:
 180:../src/Pedal.cpp **** 		seed.GetPin(ENCODER_1_B_PIN),
ARM GAS  /var/folders/83/vwtnzcdn1v99b_lf0k0gsjzr0000gn/T//ccKcGgHc.s 			page 63


 1721              		.loc 1 180 29 view .LVU419
 1722 0032 ADF82030 		strh	r3, [sp, #32]	@ movhi
 1723 0036 FFF7FEFF 		bl	_ZN5daisy9DaisySeed6GetPinEh
 1724              	.LVL146:
 1725 003a ADF82400 		strh	r0, [sp, #36]	@ movhi
 1726 003e 3846     		mov	r0, r7
 1727 0040 9FEDF30A 		vldr.32	s0, .L74+8
 1728 0044 099B     		ldr	r3, [sp, #36]
 1729 0046 DDE90712 		ldrd	r1, r2, [sp, #28]
 1730 004a FFF7FEFF 		bl	_ZN5daisy7Encoder4InitE12dsy_gpio_pinS1_S1_f
 1731              	.LVL147:
 180:../src/Pedal.cpp **** 		seed.GetPin(ENCODER_1_B_PIN),
 1732              		.loc 1 180 29 view .LVU420
 1733              	.LBE314:
 1734              	.LBE349:
  12:../src/Pedal.cpp **** 	InitLeds();
 1735              		.loc 1 12 2 is_stmt 1 view .LVU421
 1736              	.LBB350:
 1737              	.LBI350:
 185:../src/Pedal.cpp **** {
 1738              		.loc 1 185 6 view .LVU422
 1739              	.LBB351:
 187:../src/Pedal.cpp **** 	switches[SwitchI::S2].Init(seed.GetPin(SWITCH_2_PIN));
 1740              		.loc 1 187 2 view .LVU423
 187:../src/Pedal.cpp **** 	switches[SwitchI::S2].Init(seed.GetPin(SWITCH_2_PIN));
 1741              		.loc 1 187 28 is_stmt 0 view .LVU424
 1742 004e 0620     		movs	r0, #6
 1743 0050 FFF7FEFF 		bl	_ZN5daisy9DaisySeed6GetPinEh
 1744              	.LVL148:
 1745 0054 0346     		mov	r3, r0	@ movhi
 1746 0056 9FEDEE0A 		vldr.32	s0, .L74+8
 1747 005a 04F23C50 		addw	r0, r4, #1340
 1748 005e ADF81430 		strh	r3, [sp, #20]	@ movhi
 1749 0062 0599     		ldr	r1, [sp, #20]
 1750 0064 FFF7FEFF 		bl	_ZN5daisy6Switch4InitE12dsy_gpio_pinf
 1751              	.LVL149:
 188:../src/Pedal.cpp **** }
 1752              		.loc 1 188 2 is_stmt 1 view .LVU425
 188:../src/Pedal.cpp **** }
 1753              		.loc 1 188 28 is_stmt 0 view .LVU426
 1754 0068 0520     		movs	r0, #5
 1755 006a FFF7FEFF 		bl	_ZN5daisy9DaisySeed6GetPinEh
 1756              	.LVL150:
 1757 006e 0346     		mov	r3, r0	@ movhi
 1758 0070 9FEDE70A 		vldr.32	s0, .L74+8
 1759 0074 04F24C50 		addw	r0, r4, #1356
 1760 0078 ADF81830 		strh	r3, [sp, #24]	@ movhi
 1761 007c 0699     		ldr	r1, [sp, #24]
 1762 007e FFF7FEFF 		bl	_ZN5daisy6Switch4InitE12dsy_gpio_pinf
 1763              	.LVL151:
 188:../src/Pedal.cpp **** }
 1764              		.loc 1 188 28 view .LVU427
 1765              	.LBE351:
 1766              	.LBE350:
  13:../src/Pedal.cpp **** 	InitMidi();
 1767              		.loc 1 13 2 is_stmt 1 view .LVU428
 1768              	.LBB352:
ARM GAS  /var/folders/83/vwtnzcdn1v99b_lf0k0gsjzr0000gn/T//ccKcGgHc.s 			page 64


 1769              	.LBI352:
 191:../src/Pedal.cpp **** {
 1770              		.loc 1 191 6 view .LVU429
 1771              	.LBB353:
 193:../src/Pedal.cpp **** 	leds[LedI::L2].Init(seed.GetPin(LED_2_PIN), false);
 1772              		.loc 1 193 2 view .LVU430
 193:../src/Pedal.cpp **** 	leds[LedI::L2].Init(seed.GetPin(LED_2_PIN), false);
 1773              		.loc 1 193 21 is_stmt 0 view .LVU431
 1774 0082 1620     		movs	r0, #22
 1775 0084 FFF7FEFF 		bl	_ZN5daisy9DaisySeed6GetPinEh
 1776              	.LVL152:
 1777 0088 ADF80C00 		strh	r0, [sp, #12]	@ movhi
 1778 008c 9FEDE10A 		vldr.32	s0, .L74+12
 1779 0090 0022     		movs	r2, #0
 1780 0092 0399     		ldr	r1, [sp, #12]
 1781 0094 04F25C50 		addw	r0, r4, #1372
 1782 0098 FFF7FEFF 		bl	_ZN5daisy3Led4InitE12dsy_gpio_pinbf
 1783              	.LVL153:
 194:../src/Pedal.cpp **** }
 1784              		.loc 1 194 2 is_stmt 1 view .LVU432
 194:../src/Pedal.cpp **** }
 1785              		.loc 1 194 21 is_stmt 0 view .LVU433
 1786 009c 1720     		movs	r0, #23
 1787 009e FFF7FEFF 		bl	_ZN5daisy9DaisySeed6GetPinEh
 1788              	.LVL154:
 1789 00a2 ADF81000 		strh	r0, [sp, #16]	@ movhi
 1790 00a6 9FEDDB0A 		vldr.32	s0, .L74+12
 1791 00aa 0022     		movs	r2, #0
 1792 00ac 0499     		ldr	r1, [sp, #16]
 1793 00ae 04F5AF60 		add	r0, r4, #1400
 1794 00b2 FFF7FEFF 		bl	_ZN5daisy3Led4InitE12dsy_gpio_pinbf
 1795              	.LVL155:
 194:../src/Pedal.cpp **** }
 1796              		.loc 1 194 21 view .LVU434
 1797              	.LBE353:
 1798              	.LBE352:
  14:../src/Pedal.cpp **** 
 1799              		.loc 1 14 2 is_stmt 1 view .LVU435
  14:../src/Pedal.cpp **** 
 1800              		.loc 1 14 10 is_stmt 0 view .LVU436
 1801 00b6 2046     		mov	r0, r4
 1802 00b8 FFF7FEFF 		bl	_ZN3amc5Pedal8InitMidiEv
 1803              	.LVL156:
  16:../src/Pedal.cpp **** 	{
 1804              		.loc 1 16 2 is_stmt 1 view .LVU437
  30:../src/Pedal.cpp **** 		SetAudioRate(daisy::SaiHandle::Config::SampleRate::SAI_48KHZ);
 1805              		.loc 1 30 2 view .LVU438
  31:../src/Pedal.cpp **** 		break;
 1806              		.loc 1 31 3 view .LVU439
 1807              	.LBB354:
 1808              	.LBI316:
  80:../src/Pedal.cpp **** {
 1809              		.loc 1 80 6 view .LVU440
 1810              	.LBB347:
  82:../src/Pedal.cpp **** 	SetHidUpdateRates();
 1811              		.loc 1 82 2 view .LVU441
  82:../src/Pedal.cpp **** 	SetHidUpdateRates();
ARM GAS  /var/folders/83/vwtnzcdn1v99b_lf0k0gsjzr0000gn/T//ccKcGgHc.s 			page 65


 1812              		.loc 1 82 25 is_stmt 0 view .LVU442
 1813 00bc 0321     		movs	r1, #3
 1814 00be 2046     		mov	r0, r4
 1815 00c0 FFF7FEFF 		bl	_ZN5daisy9DaisySeed18SetAudioSampleRateENS_9SaiHandle6Config10SampleRateE
 1816              	.LVL157:
  83:../src/Pedal.cpp **** }
 1817              		.loc 1 83 2 is_stmt 1 view .LVU443
 1818              	.LBB318:
 1819              	.LBI318:
 205:../src/Pedal.cpp **** {
 1820              		.loc 1 205 6 view .LVU444
 1821              	.LBB319:
 207:../src/Pedal.cpp **** 		knobs[i].SetSampleRate(CallbackRate());
 1822              		.loc 1 207 23 view .LVU445
 1823              	.L68:
 208:../src/Pedal.cpp **** 
 1824              		.loc 1 208 3 view .LVU446
 1825              	.LBB320:
 1826              	.LBI320:
 102:../src/Pedal.cpp **** {
 1827              		.loc 1 102 7 view .LVU447
 1828              	.LBB321:
 104:../src/Pedal.cpp **** }
 1829              		.loc 1 104 2 view .LVU448
 104:../src/Pedal.cpp **** }
 1830              		.loc 1 104 31 is_stmt 0 view .LVU449
 1831 00c4 2046     		mov	r0, r4
 1832 00c6 FFF7FEFF 		bl	_ZNK5daisy9DaisySeed17AudioCallbackRateEv
 1833              	.LVL158:
 104:../src/Pedal.cpp **** }
 1834              		.loc 1 104 31 view .LVU450
 1835              	.LBE321:
 1836              	.LBE320:
 208:../src/Pedal.cpp **** 
 1837              		.loc 1 208 25 view .LVU451
 1838 00ca 3046     		mov	r0, r6
 207:../src/Pedal.cpp **** 		knobs[i].SetSampleRate(CallbackRate());
 1839              		.loc 1 207 23 view .LVU452
 1840 00cc 2036     		adds	r6, r6, #32
 208:../src/Pedal.cpp **** 
 1841              		.loc 1 208 25 view .LVU453
 1842 00ce FFF7FEFF 		bl	_ZN5daisy13AnalogControl13SetSampleRateEf
 1843              	.LVL159:
 207:../src/Pedal.cpp **** 		knobs[i].SetSampleRate(CallbackRate());
 1844              		.loc 1 207 2 is_stmt 1 view .LVU454
 207:../src/Pedal.cpp **** 		knobs[i].SetSampleRate(CallbackRate());
 1845              		.loc 1 207 23 view .LVU455
 1846 00d2 BE42     		cmp	r6, r7
 1847 00d4 F6D1     		bne	.L68
 1848              	.LVL160:
 207:../src/Pedal.cpp **** 		knobs[i].SetSampleRate(CallbackRate());
 1849              		.loc 1 207 23 is_stmt 0 view .LVU456
 1850              	.LBE319:
 1851              	.LBB322:
 210:../src/Pedal.cpp **** 		leds[i].SetSampleRate(CallbackRate());
 1852              		.loc 1 210 23 is_stmt 1 view .LVU457
 1853              		.loc 1 211 3 view .LVU458
ARM GAS  /var/folders/83/vwtnzcdn1v99b_lf0k0gsjzr0000gn/T//ccKcGgHc.s 			page 66


 1854              	.LBB323:
 1855              	.LBI323:
 102:../src/Pedal.cpp **** {
 1856              		.loc 1 102 7 view .LVU459
 1857              	.LBB324:
 104:../src/Pedal.cpp **** }
 1858              		.loc 1 104 2 view .LVU460
 1859              	.LBE324:
 1860              	.LBE323:
 1861              	.LBB329:
 1862              	.LBB330:
 1863              		.loc 2 51 64 is_stmt 0 view .LVU461
 1864 00d6 04F26C56 		addw	r6, r4, #1388
 1865              	.LBE330:
 1866              	.LBE329:
 1867              	.LBB336:
 1868              	.LBB325:
 104:../src/Pedal.cpp **** }
 1869              		.loc 1 104 31 view .LVU462
 1870 00da 2046     		mov	r0, r4
 1871              	.LBE325:
 1872              	.LBE336:
 1873              	.LBB337:
 1874              	.LBB331:
 1875              		.loc 2 51 64 view .LVU463
 1876 00dc 04F5B169 		add	r9, r4, #1416
 1877              	.LBE331:
 1878              	.LBE337:
 1879              	.LBB338:
 1880              	.LBB326:
 104:../src/Pedal.cpp **** }
 1881              		.loc 1 104 31 view .LVU464
 1882 00e0 FFF7FEFF 		bl	_ZNK5daisy9DaisySeed17AudioCallbackRateEv
 1883              	.LVL161:
 104:../src/Pedal.cpp **** }
 1884              		.loc 1 104 31 view .LVU465
 1885              	.LBE326:
 1886              	.LBE338:
 1887              	.LBB339:
 1888              	.LBI329:
 1889              		.loc 2 51 17 is_stmt 1 view .LVU466
 1890              	.LBB332:
 1891              		.loc 2 51 52 view .LVU467
 1892              	.LBE332:
 1893              	.LBE339:
 1894              	.LBB340:
 1895              	.LBB327:
 104:../src/Pedal.cpp **** }
 1896              		.loc 1 104 31 is_stmt 0 view .LVU468
 1897 00e4 2046     		mov	r0, r4
 1898              	.LBE327:
 1899              	.LBE340:
 1900              	.LBB341:
 1901              	.LBB333:
 1902              		.loc 2 51 64 view .LVU469
 1903 00e6 86ED000A 		vstr.32	s0, [r6]
 1904              	.LVL162:
ARM GAS  /var/folders/83/vwtnzcdn1v99b_lf0k0gsjzr0000gn/T//ccKcGgHc.s 			page 67


 1905              		.loc 2 51 64 view .LVU470
 1906              	.LBE333:
 1907              	.LBE341:
 210:../src/Pedal.cpp **** 		leds[i].SetSampleRate(CallbackRate());
 1908              		.loc 1 210 2 is_stmt 1 view .LVU471
 210:../src/Pedal.cpp **** 		leds[i].SetSampleRate(CallbackRate());
 1909              		.loc 1 210 23 view .LVU472
 1910              		.loc 1 211 3 view .LVU473
 1911              	.LBB342:
 102:../src/Pedal.cpp **** {
 1912              		.loc 1 102 7 view .LVU474
 1913              	.LBB328:
 104:../src/Pedal.cpp **** }
