ARM GAS  /var/folders/83/vwtnzcdn1v99b_lf0k0gsjzr0000gn/T//ccSBqmD1.s 			page 1


   1              		.cpu cortex-m7
   2              		.arch armv7e-m
   3              		.fpu fpv5-d16
   4              		.eabi_attribute 28, 1
   5              		.eabi_attribute 20, 1
   6              		.eabi_attribute 21, 1
   7              		.eabi_attribute 23, 3
   8              		.eabi_attribute 24, 1
   9              		.eabi_attribute 25, 1
  10              		.eabi_attribute 26, 1
  11              		.eabi_attribute 30, 2
  12              		.eabi_attribute 34, 1
  13              		.eabi_attribute 18, 4
  14              		.file	"main.cpp"
  15              		.text
  16              	.Ltext0:
  17              		.cfi_sections	.debug_frame
  18              		.file 1 "main.cpp"
  19              		.section	.text._ZN7daisysp9OverdriveD2Ev,"axG",%progbits,_ZN7daisysp9OverdriveD5Ev,comdat
  20              		.align	1
  21              		.p2align 2,,3
  22              		.weak	_ZN7daisysp9OverdriveD2Ev
  23              		.syntax unified
  24              		.thumb
  25              		.thumb_func
  27              	_ZN7daisysp9OverdriveD2Ev:
  28              	.LVL0:
  29              	.LFB4989:
  30              		.file 2 "/Users/amc/git/DaisySP/Source/Effects/overdrive.h"
   1:/Users/amc/git/DaisySP/Source/Effects/overdrive.h **** #pragma once
   2:/Users/amc/git/DaisySP/Source/Effects/overdrive.h **** #ifndef DSY_OVERDRIVE_H
   3:/Users/amc/git/DaisySP/Source/Effects/overdrive.h **** #define DSY_OVERDRIVE_H
   4:/Users/amc/git/DaisySP/Source/Effects/overdrive.h **** 
   5:/Users/amc/git/DaisySP/Source/Effects/overdrive.h **** #include <stdint.h>
   6:/Users/amc/git/DaisySP/Source/Effects/overdrive.h **** #ifdef __cplusplus
   7:/Users/amc/git/DaisySP/Source/Effects/overdrive.h **** 
   8:/Users/amc/git/DaisySP/Source/Effects/overdrive.h **** /** @file overdrive.h */
   9:/Users/amc/git/DaisySP/Source/Effects/overdrive.h **** 
  10:/Users/amc/git/DaisySP/Source/Effects/overdrive.h **** namespace daisysp
  11:/Users/amc/git/DaisySP/Source/Effects/overdrive.h **** {
  12:/Users/amc/git/DaisySP/Source/Effects/overdrive.h **** /**  
  13:/Users/amc/git/DaisySP/Source/Effects/overdrive.h ****        @brief Distortion / Overdrive Module
  14:/Users/amc/git/DaisySP/Source/Effects/overdrive.h ****        @author Ported by Ben Sergentanis 
  15:/Users/amc/git/DaisySP/Source/Effects/overdrive.h ****        @date Jan 2021 
  16:/Users/amc/git/DaisySP/Source/Effects/overdrive.h ****        Ported from pichenettes/eurorack/plaits/dsp/fx/overdrive.h \n
  17:/Users/amc/git/DaisySP/Source/Effects/overdrive.h ****        to an independent module. \n
  18:/Users/amc/git/DaisySP/Source/Effects/overdrive.h ****        Original code written by Emilie Gillet in 2014. \n
  19:/Users/amc/git/DaisySP/Source/Effects/overdrive.h **** */
  20:/Users/amc/git/DaisySP/Source/Effects/overdrive.h **** class Overdrive
  21:/Users/amc/git/DaisySP/Source/Effects/overdrive.h **** {
  22:/Users/amc/git/DaisySP/Source/Effects/overdrive.h ****   public:
  23:/Users/amc/git/DaisySP/Source/Effects/overdrive.h ****     Overdrive() {}
  24:/Users/amc/git/DaisySP/Source/Effects/overdrive.h ****     ~Overdrive() {}
  31              		.loc 2 24 5 view -0
  32              		.cfi_startproc
  33              		@ args = 0, pretend = 0, frame = 0
  34              		@ frame_needed = 0, uses_anonymous_args = 0
ARM GAS  /var/folders/83/vwtnzcdn1v99b_lf0k0gsjzr0000gn/T//ccSBqmD1.s 			page 2


  35              		@ link register save eliminated.
  36              		.loc 2 24 19 is_stmt 0 view .LVU1
  37 0000 7047     		bx	lr
  38              		.cfi_endproc
  39              	.LFE4989:
  41              		.weak	_ZN7daisysp9OverdriveD1Ev
  42              		.thumb_set _ZN7daisysp9OverdriveD1Ev,_ZN7daisysp9OverdriveD2Ev
  43 0002 00BF     		.section	.text._ZN3amc5PedalD2Ev,"axG",%progbits,_ZN3amc5PedalD5Ev,comdat
  44              		.align	1
  45              		.p2align 2,,3
  46              		.weak	_ZN3amc5PedalD2Ev
  47              		.syntax unified
  48              		.thumb
  49              		.thumb_func
  51              	_ZN3amc5PedalD2Ev:
  52              	.LVL1:
  53              	.LFB6358:
  54              		.file 3 "../src/Pedal.h"
   1:../src/Pedal.h **** #pragma once
   2:../src/Pedal.h **** #ifndef PEDAL
   3:../src/Pedal.h **** 
   4:../src/Pedal.h **** #include "daisy_seed.h"
   5:../src/Pedal.h **** #include "dev/oled_ssd130x.h"
   6:../src/Pedal.h **** #include "globals.h"
   7:../src/Pedal.h **** #include "hardware.h"
   8:../src/Pedal.h **** 
   9:../src/Pedal.h **** using namespace daisy;
  10:../src/Pedal.h **** using Oled = OledDisplay<SSD130x4WireSpi128x64Driver>;
  11:../src/Pedal.h **** 
  12:../src/Pedal.h **** namespace amc
  13:../src/Pedal.h **** {
  14:../src/Pedal.h **** 	class Pedal
  15:../src/Pedal.h **** 	{
  16:../src/Pedal.h **** 	public:
  17:../src/Pedal.h **** 		enum KnobI
  18:../src/Pedal.h **** 		{ K1 = 0, K2, K3, K4, K5, K6, KN };
  19:../src/Pedal.h **** 
  20:../src/Pedal.h **** 		enum SwitchI
  21:../src/Pedal.h **** 		{ S1 = 0, S2, SN };
  22:../src/Pedal.h **** 
  23:../src/Pedal.h **** 		enum EncoderI
  24:../src/Pedal.h **** 		{ E1 = 0, EN };
  25:../src/Pedal.h **** 
  26:../src/Pedal.h **** 		enum LedI
  27:../src/Pedal.h **** 		{ L1 = 0, L2, LN };
  28:../src/Pedal.h **** 
  29:../src/Pedal.h **** 		DaisySeed seed;
  30:../src/Pedal.h **** 		Oled display;
  31:../src/Pedal.h **** 
  32:../src/Pedal.h **** 		AnalogControl knobs[KnobI::KN];
  33:../src/Pedal.h **** 		Encoder encoders[EncoderI::EN];
  34:../src/Pedal.h **** 		Switch switches[SwitchI::SN];
  35:../src/Pedal.h **** 		Led leds[LedI::LN];
  36:../src/Pedal.h **** 
  37:../src/Pedal.h **** 		MidiUartHandler midi;
  38:../src/Pedal.h **** 
  39:../src/Pedal.h **** 		GPIO audioBypassTrigger;
ARM GAS  /var/folders/83/vwtnzcdn1v99b_lf0k0gsjzr0000gn/T//ccSBqmD1.s 			page 3


  40:../src/Pedal.h **** 		bool audioBypass;
  41:../src/Pedal.h **** 
  42:../src/Pedal.h **** 		GPIO audioMuteTrigger;
  43:../src/Pedal.h **** 		bool audioMute;
  44:../src/Pedal.h **** 
  45:../src/Pedal.h **** 
  46:../src/Pedal.h **** 		Pedal() { }
  47:../src/Pedal.h **** 		~Pedal() { }
  55              		.loc 3 47 3 is_stmt 1 view -0
  56              		.cfi_startproc
  57              		@ args = 0, pretend = 0, frame = 0
  58              		@ frame_needed = 0, uses_anonymous_args = 0
  59              		@ link register save eliminated.
  60              	.LBB748:
  61              	.LBI748:
  62              		.file 4 "/Users/amc/git/libDaisy/src/hid/midi.h"
   1:/Users/amc/git/libDaisy/src/hid/midi.h **** #pragma once
   2:/Users/amc/git/libDaisy/src/hid/midi.h **** #ifndef DSY_MIDI_H
   3:/Users/amc/git/libDaisy/src/hid/midi.h **** #define DSY_MIDI_H
   4:/Users/amc/git/libDaisy/src/hid/midi.h **** 
   5:/Users/amc/git/libDaisy/src/hid/midi.h **** #include <stdint.h>
   6:/Users/amc/git/libDaisy/src/hid/midi.h **** #include <stdlib.h>
   7:/Users/amc/git/libDaisy/src/hid/midi.h **** #include <algorithm>
   8:/Users/amc/git/libDaisy/src/hid/midi.h **** #include "per/uart.h"
   9:/Users/amc/git/libDaisy/src/hid/midi.h **** #include "util/ringbuffer.h"
  10:/Users/amc/git/libDaisy/src/hid/midi.h **** #include "util/FIFO.h"
  11:/Users/amc/git/libDaisy/src/hid/midi.h **** #include "hid/midi_parser.h"
  12:/Users/amc/git/libDaisy/src/hid/midi.h **** #include "hid/usb_midi.h"
  13:/Users/amc/git/libDaisy/src/hid/midi.h **** #include "sys/dma.h"
  14:/Users/amc/git/libDaisy/src/hid/midi.h **** #include "sys/system.h"
  15:/Users/amc/git/libDaisy/src/hid/midi.h **** 
  16:/Users/amc/git/libDaisy/src/hid/midi.h **** namespace daisy
  17:/Users/amc/git/libDaisy/src/hid/midi.h **** {
  18:/Users/amc/git/libDaisy/src/hid/midi.h **** /** @brief   Transport layer for sending and receiving MIDI data over UART
  19:/Users/amc/git/libDaisy/src/hid/midi.h ****  *  @details This is the mode of communication used for TRS and DIN MIDI
  20:/Users/amc/git/libDaisy/src/hid/midi.h ****  *           There is an additional 2kB of RAM data used within this class
  21:/Users/amc/git/libDaisy/src/hid/midi.h ****  *           for processing bulk data from the UART peripheral
  22:/Users/amc/git/libDaisy/src/hid/midi.h ****  *  @ingroup midi
  23:/Users/amc/git/libDaisy/src/hid/midi.h **** */
  24:/Users/amc/git/libDaisy/src/hid/midi.h **** class MidiUartTransport
  25:/Users/amc/git/libDaisy/src/hid/midi.h **** {
  26:/Users/amc/git/libDaisy/src/hid/midi.h ****   public:
  27:/Users/amc/git/libDaisy/src/hid/midi.h ****     typedef void (*MidiRxParseCallback)(uint8_t* data,
  28:/Users/amc/git/libDaisy/src/hid/midi.h ****                                         size_t   size,
  29:/Users/amc/git/libDaisy/src/hid/midi.h ****                                         void*    context);
  30:/Users/amc/git/libDaisy/src/hid/midi.h **** 
  31:/Users/amc/git/libDaisy/src/hid/midi.h ****     MidiUartTransport() {}
  32:/Users/amc/git/libDaisy/src/hid/midi.h ****     ~MidiUartTransport() {}
  33:/Users/amc/git/libDaisy/src/hid/midi.h **** 
  34:/Users/amc/git/libDaisy/src/hid/midi.h ****     /** @brief Configuration structure for UART MIDI */
  35:/Users/amc/git/libDaisy/src/hid/midi.h ****     struct Config
  36:/Users/amc/git/libDaisy/src/hid/midi.h ****     {
  37:/Users/amc/git/libDaisy/src/hid/midi.h ****         UartHandler::Config::Peripheral periph;
  38:/Users/amc/git/libDaisy/src/hid/midi.h ****         dsy_gpio_pin                    rx;
  39:/Users/amc/git/libDaisy/src/hid/midi.h ****         dsy_gpio_pin                    tx;
  40:/Users/amc/git/libDaisy/src/hid/midi.h **** 
  41:/Users/amc/git/libDaisy/src/hid/midi.h ****         /** Pointer to buffer for DMA UART rx byte transfer in background.
ARM GAS  /var/folders/83/vwtnzcdn1v99b_lf0k0gsjzr0000gn/T//ccSBqmD1.s 			page 4


  42:/Users/amc/git/libDaisy/src/hid/midi.h ****          *
  43:/Users/amc/git/libDaisy/src/hid/midi.h ****          *  @details By default this uses a shared buffer in DMA_BUFFER_MEM_SECTION,
  44:/Users/amc/git/libDaisy/src/hid/midi.h ****          *           which can only be utilized for a single UART peripheral. To
  45:/Users/amc/git/libDaisy/src/hid/midi.h ****          *           use MIDI with multiple UART peripherals, you must provide your own
  46:/Users/amc/git/libDaisy/src/hid/midi.h ****          *           buffer, allocated to a DMA-capable memory section.
  47:/Users/amc/git/libDaisy/src/hid/midi.h ****          */
  48:/Users/amc/git/libDaisy/src/hid/midi.h ****         uint8_t* rx_buffer;
  49:/Users/amc/git/libDaisy/src/hid/midi.h **** 
  50:/Users/amc/git/libDaisy/src/hid/midi.h ****         /** Size in bytes of rx_buffer.
  51:/Users/amc/git/libDaisy/src/hid/midi.h ****          *
  52:/Users/amc/git/libDaisy/src/hid/midi.h ****          *  @details This size determines the maximum Rx bytes readable by the UART in the backgrou
  53:/Users/amc/git/libDaisy/src/hid/midi.h ****          *           By default it's set to the size of the default shared rx_buffer (256 bytes).
  54:/Users/amc/git/libDaisy/src/hid/midi.h ****          *           While much smaller sizes can be used, data can get missed if the buffer is too
  55:/Users/amc/git/libDaisy/src/hid/midi.h ****          */
  56:/Users/amc/git/libDaisy/src/hid/midi.h ****         size_t rx_buffer_size;
  57:/Users/amc/git/libDaisy/src/hid/midi.h **** 
  58:/Users/amc/git/libDaisy/src/hid/midi.h ****         Config();
  59:/Users/amc/git/libDaisy/src/hid/midi.h ****     };
  60:/Users/amc/git/libDaisy/src/hid/midi.h **** 
  61:/Users/amc/git/libDaisy/src/hid/midi.h ****     /** @brief Initialization of UART using config struct */
  62:/Users/amc/git/libDaisy/src/hid/midi.h ****     inline void Init(Config config)
  63:/Users/amc/git/libDaisy/src/hid/midi.h ****     {
  64:/Users/amc/git/libDaisy/src/hid/midi.h ****         UartHandler::Config uart_config;
  65:/Users/amc/git/libDaisy/src/hid/midi.h **** 
  66:/Users/amc/git/libDaisy/src/hid/midi.h ****         //defaults
  67:/Users/amc/git/libDaisy/src/hid/midi.h ****         uart_config.baudrate   = 31250;
  68:/Users/amc/git/libDaisy/src/hid/midi.h ****         uart_config.stopbits   = UartHandler::Config::StopBits::BITS_1;
  69:/Users/amc/git/libDaisy/src/hid/midi.h ****         uart_config.parity     = UartHandler::Config::Parity::NONE;
  70:/Users/amc/git/libDaisy/src/hid/midi.h ****         uart_config.mode       = UartHandler::Config::Mode::TX_RX;
  71:/Users/amc/git/libDaisy/src/hid/midi.h ****         uart_config.wordlength = UartHandler::Config::WordLength::BITS_8;
  72:/Users/amc/git/libDaisy/src/hid/midi.h **** 
  73:/Users/amc/git/libDaisy/src/hid/midi.h ****         //user settings
  74:/Users/amc/git/libDaisy/src/hid/midi.h ****         uart_config.periph        = config.periph;
  75:/Users/amc/git/libDaisy/src/hid/midi.h ****         uart_config.pin_config.rx = config.rx;
  76:/Users/amc/git/libDaisy/src/hid/midi.h ****         uart_config.pin_config.tx = config.tx;
  77:/Users/amc/git/libDaisy/src/hid/midi.h **** 
  78:/Users/amc/git/libDaisy/src/hid/midi.h ****         rx_buffer      = config.rx_buffer;
  79:/Users/amc/git/libDaisy/src/hid/midi.h ****         rx_buffer_size = config.rx_buffer_size;
  80:/Users/amc/git/libDaisy/src/hid/midi.h **** 
  81:/Users/amc/git/libDaisy/src/hid/midi.h ****         /** zero the buffer to ensure emptiness regardless of source memory */
  82:/Users/amc/git/libDaisy/src/hid/midi.h ****         std::fill(rx_buffer, rx_buffer + rx_buffer_size, 0);
  83:/Users/amc/git/libDaisy/src/hid/midi.h **** 
  84:/Users/amc/git/libDaisy/src/hid/midi.h ****         uart_.Init(uart_config);
  85:/Users/amc/git/libDaisy/src/hid/midi.h ****     }
  86:/Users/amc/git/libDaisy/src/hid/midi.h **** 
  87:/Users/amc/git/libDaisy/src/hid/midi.h ****     /** @brief Start the UART peripheral in listening mode.
  88:/Users/amc/git/libDaisy/src/hid/midi.h ****      *  This will fill an internal data structure in the background */
  89:/Users/amc/git/libDaisy/src/hid/midi.h ****     inline void StartRx(MidiRxParseCallback parse_callback, void* context)
  90:/Users/amc/git/libDaisy/src/hid/midi.h ****     {
  91:/Users/amc/git/libDaisy/src/hid/midi.h ****         parse_context_  = context;
  92:/Users/amc/git/libDaisy/src/hid/midi.h ****         parse_callback_ = parse_callback;
  93:/Users/amc/git/libDaisy/src/hid/midi.h ****         dsy_dma_clear_cache_for_buffer((uint8_t*)this,
  94:/Users/amc/git/libDaisy/src/hid/midi.h ****                                        sizeof(MidiUartTransport));
  95:/Users/amc/git/libDaisy/src/hid/midi.h ****         uart_.DmaListenStart(
  96:/Users/amc/git/libDaisy/src/hid/midi.h ****             rx_buffer, rx_buffer_size, MidiUartTransport::rxCallback, this);
  97:/Users/amc/git/libDaisy/src/hid/midi.h ****     }
  98:/Users/amc/git/libDaisy/src/hid/midi.h **** 
ARM GAS  /var/folders/83/vwtnzcdn1v99b_lf0k0gsjzr0000gn/T//ccSBqmD1.s 			page 5


  99:/Users/amc/git/libDaisy/src/hid/midi.h ****     /** @brief returns whether the UART peripheral is actively listening in the background or not *
 100:/Users/amc/git/libDaisy/src/hid/midi.h ****     inline bool RxActive() { return uart_.IsListening(); }
 101:/Users/amc/git/libDaisy/src/hid/midi.h **** 
 102:/Users/amc/git/libDaisy/src/hid/midi.h ****     /** @brief This is a no-op for UART transport - Rx is via DMA callback with circular buffer */
 103:/Users/amc/git/libDaisy/src/hid/midi.h ****     inline void FlushRx() {}
 104:/Users/amc/git/libDaisy/src/hid/midi.h **** 
 105:/Users/amc/git/libDaisy/src/hid/midi.h ****     /** @brief sends the buffer of bytes out of the UART peripheral */
 106:/Users/amc/git/libDaisy/src/hid/midi.h ****     inline void Tx(uint8_t* buff, size_t size) { uart_.PollTx(buff, size); }
 107:/Users/amc/git/libDaisy/src/hid/midi.h **** 
 108:/Users/amc/git/libDaisy/src/hid/midi.h ****   private:
 109:/Users/amc/git/libDaisy/src/hid/midi.h ****     UartHandler         uart_;
 110:/Users/amc/git/libDaisy/src/hid/midi.h ****     uint8_t*            rx_buffer;
 111:/Users/amc/git/libDaisy/src/hid/midi.h ****     size_t              rx_buffer_size;
 112:/Users/amc/git/libDaisy/src/hid/midi.h ****     void*               parse_context_;
 113:/Users/amc/git/libDaisy/src/hid/midi.h ****     MidiRxParseCallback parse_callback_;
 114:/Users/amc/git/libDaisy/src/hid/midi.h **** 
 115:/Users/amc/git/libDaisy/src/hid/midi.h ****     /** Static callback for Uart MIDI that occurs when
 116:/Users/amc/git/libDaisy/src/hid/midi.h ****          *  new data is available from the peripheral.
 117:/Users/amc/git/libDaisy/src/hid/midi.h ****          *  The new data is transferred from the peripheral to the
 118:/Users/amc/git/libDaisy/src/hid/midi.h ****          *  MIDI instance's byte FIFO that feeds the MIDI parser.
 119:/Users/amc/git/libDaisy/src/hid/midi.h ****          *
 120:/Users/amc/git/libDaisy/src/hid/midi.h ****          *  TODO: Handle UartHandler errors better/at all.
 121:/Users/amc/git/libDaisy/src/hid/midi.h ****          *  (If there is a UART error, there's not really any recovery
 122:/Users/amc/git/libDaisy/src/hid/midi.h ****          *  option at the moment)
 123:/Users/amc/git/libDaisy/src/hid/midi.h ****          */
 124:/Users/amc/git/libDaisy/src/hid/midi.h ****     static void rxCallback(uint8_t*            data,
 125:/Users/amc/git/libDaisy/src/hid/midi.h ****                            size_t              size,
 126:/Users/amc/git/libDaisy/src/hid/midi.h ****                            void*               context,
 127:/Users/amc/git/libDaisy/src/hid/midi.h ****                            UartHandler::Result res)
 128:/Users/amc/git/libDaisy/src/hid/midi.h ****     {
 129:/Users/amc/git/libDaisy/src/hid/midi.h ****         /** Read context as transport type */
 130:/Users/amc/git/libDaisy/src/hid/midi.h ****         MidiUartTransport* transport
 131:/Users/amc/git/libDaisy/src/hid/midi.h ****             = reinterpret_cast<MidiUartTransport*>(context);
 132:/Users/amc/git/libDaisy/src/hid/midi.h ****         if(res == UartHandler::Result::OK)
 133:/Users/amc/git/libDaisy/src/hid/midi.h ****         {
 134:/Users/amc/git/libDaisy/src/hid/midi.h ****             if(transport->parse_callback_)
 135:/Users/amc/git/libDaisy/src/hid/midi.h ****             {
 136:/Users/amc/git/libDaisy/src/hid/midi.h ****                 transport->parse_callback_(
 137:/Users/amc/git/libDaisy/src/hid/midi.h ****                     data, size, transport->parse_context_);
 138:/Users/amc/git/libDaisy/src/hid/midi.h ****             }
 139:/Users/amc/git/libDaisy/src/hid/midi.h ****         }
 140:/Users/amc/git/libDaisy/src/hid/midi.h ****     }
 141:/Users/amc/git/libDaisy/src/hid/midi.h **** };
 142:/Users/amc/git/libDaisy/src/hid/midi.h **** 
 143:/Users/amc/git/libDaisy/src/hid/midi.h **** /**
 144:/Users/amc/git/libDaisy/src/hid/midi.h ****     @brief Simple MIDI Handler \n
 145:/Users/amc/git/libDaisy/src/hid/midi.h ****     Parses bytes from an input into valid MidiEvents. \n
 146:/Users/amc/git/libDaisy/src/hid/midi.h ****     The MidiEvents fill a FIFO queue that the user can pop messages from.
 147:/Users/amc/git/libDaisy/src/hid/midi.h ****     @author shensley
 148:/Users/amc/git/libDaisy/src/hid/midi.h ****     @date March 2020
 149:/Users/amc/git/libDaisy/src/hid/midi.h ****     @ingroup midi
 150:/Users/amc/git/libDaisy/src/hid/midi.h **** */
 151:/Users/amc/git/libDaisy/src/hid/midi.h **** template <typename Transport>
 152:/Users/amc/git/libDaisy/src/hid/midi.h **** class MidiHandler
 153:/Users/amc/git/libDaisy/src/hid/midi.h **** {
 154:/Users/amc/git/libDaisy/src/hid/midi.h ****   public:
 155:/Users/amc/git/libDaisy/src/hid/midi.h ****     MidiHandler() {}
ARM GAS  /var/folders/83/vwtnzcdn1v99b_lf0k0gsjzr0000gn/T//ccSBqmD1.s 			page 6


 156:/Users/amc/git/libDaisy/src/hid/midi.h ****     ~MidiHandler() {}
  63              		.loc 4 156 5 view .LVU3
  64              	.LBB749:
  65              	.LBI749:
  66              		.file 5 "/Users/amc/git/libDaisy/src/util/FIFO.h"
   1:/Users/amc/git/libDaisy/src/util/FIFO.h **** #pragma once
   2:/Users/amc/git/libDaisy/src/util/FIFO.h **** 
   3:/Users/amc/git/libDaisy/src/util/FIFO.h **** #include <stdint.h>
   4:/Users/amc/git/libDaisy/src/util/FIFO.h **** #include <stddef.h>
   5:/Users/amc/git/libDaisy/src/util/FIFO.h **** #include <initializer_list>
   6:/Users/amc/git/libDaisy/src/util/FIFO.h **** 
   7:/Users/amc/git/libDaisy/src/util/FIFO.h **** namespace daisy
   8:/Users/amc/git/libDaisy/src/util/FIFO.h **** {
   9:/Users/amc/git/libDaisy/src/util/FIFO.h **** /** Capacity-independent base class for FIFO. Use FIFO instead. */
  10:/Users/amc/git/libDaisy/src/util/FIFO.h **** template <typename T>
  11:/Users/amc/git/libDaisy/src/util/FIFO.h **** class FIFOBase
  12:/Users/amc/git/libDaisy/src/util/FIFO.h **** {
  13:/Users/amc/git/libDaisy/src/util/FIFO.h ****   protected:
  14:/Users/amc/git/libDaisy/src/util/FIFO.h ****     FIFOBase(T* buffer, size_t bufferSize)
  15:/Users/amc/git/libDaisy/src/util/FIFO.h ****     : buffer_(buffer), bufferSize_(bufferSize), bufferIn_(0), bufferOut_(0)
  16:/Users/amc/git/libDaisy/src/util/FIFO.h ****     {
  17:/Users/amc/git/libDaisy/src/util/FIFO.h ****     }
  18:/Users/amc/git/libDaisy/src/util/FIFO.h **** 
  19:/Users/amc/git/libDaisy/src/util/FIFO.h ****     FIFOBase(T* buffer, size_t bufferSize, std::initializer_list<T> valuesToAdd)
  20:/Users/amc/git/libDaisy/src/util/FIFO.h ****     : buffer_(buffer), bufferSize_(bufferSize), bufferIn_(0), bufferOut_(0)
  21:/Users/amc/git/libDaisy/src/util/FIFO.h ****     {
  22:/Users/amc/git/libDaisy/src/util/FIFO.h ****         PushBack(valuesToAdd);
  23:/Users/amc/git/libDaisy/src/util/FIFO.h ****     }
  24:/Users/amc/git/libDaisy/src/util/FIFO.h **** 
  25:/Users/amc/git/libDaisy/src/util/FIFO.h ****   public:
  26:/Users/amc/git/libDaisy/src/util/FIFO.h ****     /** Copies all elements from another FIFO */
  27:/Users/amc/git/libDaisy/src/util/FIFO.h ****     FIFOBase<T>& operator=(const FIFOBase<T>& other)
  28:/Users/amc/git/libDaisy/src/util/FIFO.h ****     {
  29:/Users/amc/git/libDaisy/src/util/FIFO.h ****         bufferIn_ = bufferOut_ = 0;
  30:/Users/amc/git/libDaisy/src/util/FIFO.h ****         if(!other.IsEmpty())
  31:/Users/amc/git/libDaisy/src/util/FIFO.h ****         {
  32:/Users/amc/git/libDaisy/src/util/FIFO.h ****             int readPtr = other.bufferOut_;
  33:/Users/amc/git/libDaisy/src/util/FIFO.h ****             while((readPtr != other.bufferIn_) && (bufferIn_ < bufferSize_))
  34:/Users/amc/git/libDaisy/src/util/FIFO.h ****             {
  35:/Users/amc/git/libDaisy/src/util/FIFO.h ****                 buffer_[bufferIn_++] = other.buffer_[readPtr++];
  36:/Users/amc/git/libDaisy/src/util/FIFO.h ****                 if(readPtr >= other.bufferSize_)
  37:/Users/amc/git/libDaisy/src/util/FIFO.h ****                     readPtr -= other.bufferSize_;
  38:/Users/amc/git/libDaisy/src/util/FIFO.h ****             }
  39:/Users/amc/git/libDaisy/src/util/FIFO.h ****         }
  40:/Users/amc/git/libDaisy/src/util/FIFO.h ****         return *this;
  41:/Users/amc/git/libDaisy/src/util/FIFO.h ****     }
  42:/Users/amc/git/libDaisy/src/util/FIFO.h ****     ~FIFOBase() {}
  43:/Users/amc/git/libDaisy/src/util/FIFO.h **** 
  44:/Users/amc/git/libDaisy/src/util/FIFO.h ****     /** Removes all elements from the FIFO */
  45:/Users/amc/git/libDaisy/src/util/FIFO.h ****     void Clear() { bufferIn_ = bufferOut_ = 0; }
  46:/Users/amc/git/libDaisy/src/util/FIFO.h **** 
  47:/Users/amc/git/libDaisy/src/util/FIFO.h ****     /** Adds an element to the back of the buffer, returning true on
  48:/Users/amc/git/libDaisy/src/util/FIFO.h ****         success */
  49:/Users/amc/git/libDaisy/src/util/FIFO.h ****     bool PushBack(const T& elementToAdd)
  50:/Users/amc/git/libDaisy/src/util/FIFO.h ****     {
  51:/Users/amc/git/libDaisy/src/util/FIFO.h ****         if(!IsFull())
  52:/Users/amc/git/libDaisy/src/util/FIFO.h ****         {
ARM GAS  /var/folders/83/vwtnzcdn1v99b_lf0k0gsjzr0000gn/T//ccSBqmD1.s 			page 7


  53:/Users/amc/git/libDaisy/src/util/FIFO.h ****             buffer_[bufferIn_++] = elementToAdd;
  54:/Users/amc/git/libDaisy/src/util/FIFO.h ****             if(bufferIn_ >= bufferSize_)
  55:/Users/amc/git/libDaisy/src/util/FIFO.h ****                 bufferIn_ -= bufferSize_;
  56:/Users/amc/git/libDaisy/src/util/FIFO.h ****             return true;
  57:/Users/amc/git/libDaisy/src/util/FIFO.h ****         }
  58:/Users/amc/git/libDaisy/src/util/FIFO.h ****         return false;
  59:/Users/amc/git/libDaisy/src/util/FIFO.h ****     }
  60:/Users/amc/git/libDaisy/src/util/FIFO.h **** 
  61:/Users/amc/git/libDaisy/src/util/FIFO.h ****     /** Adds multiple elements and returns the number of elements that were added */
  62:/Users/amc/git/libDaisy/src/util/FIFO.h ****     int PushBack(std::initializer_list<T> valuesToAdd)
  63:/Users/amc/git/libDaisy/src/util/FIFO.h ****     {
  64:/Users/amc/git/libDaisy/src/util/FIFO.h ****         int numAdded = 0;
  65:/Users/amc/git/libDaisy/src/util/FIFO.h ****         for(const auto& v : valuesToAdd)
  66:/Users/amc/git/libDaisy/src/util/FIFO.h ****         {
  67:/Users/amc/git/libDaisy/src/util/FIFO.h ****             if(IsFull())
  68:/Users/amc/git/libDaisy/src/util/FIFO.h ****                 return numAdded;
  69:/Users/amc/git/libDaisy/src/util/FIFO.h **** 
  70:/Users/amc/git/libDaisy/src/util/FIFO.h ****             PushBack(v);
  71:/Users/amc/git/libDaisy/src/util/FIFO.h ****             numAdded++;
  72:/Users/amc/git/libDaisy/src/util/FIFO.h ****         }
  73:/Users/amc/git/libDaisy/src/util/FIFO.h ****         return numAdded;
  74:/Users/amc/git/libDaisy/src/util/FIFO.h ****     }
  75:/Users/amc/git/libDaisy/src/util/FIFO.h **** 
  76:/Users/amc/git/libDaisy/src/util/FIFO.h ****     /** returns a reference to the last element */
  77:/Users/amc/git/libDaisy/src/util/FIFO.h ****     T& Back()
  78:/Users/amc/git/libDaisy/src/util/FIFO.h ****     {
  79:/Users/amc/git/libDaisy/src/util/FIFO.h ****         if(IsEmpty())
  80:/Users/amc/git/libDaisy/src/util/FIFO.h ****             // invalid, but better not pass a temporary T() object as a reference...
  81:/Users/amc/git/libDaisy/src/util/FIFO.h ****             return buffer_[0];
  82:/Users/amc/git/libDaisy/src/util/FIFO.h ****         int idx = bufferIn_ - 1;
  83:/Users/amc/git/libDaisy/src/util/FIFO.h ****         if(idx < 0)
  84:/Users/amc/git/libDaisy/src/util/FIFO.h ****             idx += bufferSize_;
  85:/Users/amc/git/libDaisy/src/util/FIFO.h ****         return buffer_[idx];
  86:/Users/amc/git/libDaisy/src/util/FIFO.h ****     }
  87:/Users/amc/git/libDaisy/src/util/FIFO.h **** 
  88:/Users/amc/git/libDaisy/src/util/FIFO.h ****     /** returns a reference to the last element */
  89:/Users/amc/git/libDaisy/src/util/FIFO.h ****     const T& Back() const
  90:/Users/amc/git/libDaisy/src/util/FIFO.h ****     {
  91:/Users/amc/git/libDaisy/src/util/FIFO.h ****         if(IsEmpty())
  92:/Users/amc/git/libDaisy/src/util/FIFO.h ****             // invalid, but better not pass a temporary T() object as a reference...
  93:/Users/amc/git/libDaisy/src/util/FIFO.h ****             return buffer_[0];
  94:/Users/amc/git/libDaisy/src/util/FIFO.h ****         int idx = bufferIn_ - 1;
  95:/Users/amc/git/libDaisy/src/util/FIFO.h ****         if(idx < 0)
  96:/Users/amc/git/libDaisy/src/util/FIFO.h ****             idx += bufferSize_;
  97:/Users/amc/git/libDaisy/src/util/FIFO.h ****         return buffer_[idx];
  98:/Users/amc/git/libDaisy/src/util/FIFO.h ****     }
  99:/Users/amc/git/libDaisy/src/util/FIFO.h **** 
 100:/Users/amc/git/libDaisy/src/util/FIFO.h ****     /** removes and returns an element from the front of the buffer */
 101:/Users/amc/git/libDaisy/src/util/FIFO.h ****     T PopFront()
 102:/Users/amc/git/libDaisy/src/util/FIFO.h ****     {
 103:/Users/amc/git/libDaisy/src/util/FIFO.h ****         if(IsEmpty())
 104:/Users/amc/git/libDaisy/src/util/FIFO.h ****             return T();
 105:/Users/amc/git/libDaisy/src/util/FIFO.h ****         else
 106:/Users/amc/git/libDaisy/src/util/FIFO.h ****         {
 107:/Users/amc/git/libDaisy/src/util/FIFO.h ****             const auto result = buffer_[bufferOut_];
 108:/Users/amc/git/libDaisy/src/util/FIFO.h ****             bufferOut_++;
 109:/Users/amc/git/libDaisy/src/util/FIFO.h ****             if(bufferOut_ >= bufferSize_)
ARM GAS  /var/folders/83/vwtnzcdn1v99b_lf0k0gsjzr0000gn/T//ccSBqmD1.s 			page 8


 110:/Users/amc/git/libDaisy/src/util/FIFO.h ****                 bufferOut_ -= bufferSize_;
 111:/Users/amc/git/libDaisy/src/util/FIFO.h ****             return result;
 112:/Users/amc/git/libDaisy/src/util/FIFO.h ****         }
 113:/Users/amc/git/libDaisy/src/util/FIFO.h ****     }
 114:/Users/amc/git/libDaisy/src/util/FIFO.h **** 
 115:/Users/amc/git/libDaisy/src/util/FIFO.h ****     /** returns a copy of the first element */
 116:/Users/amc/git/libDaisy/src/util/FIFO.h ****     T& Front()
 117:/Users/amc/git/libDaisy/src/util/FIFO.h ****     {
 118:/Users/amc/git/libDaisy/src/util/FIFO.h ****         if(IsEmpty())
 119:/Users/amc/git/libDaisy/src/util/FIFO.h ****             // invalid, but better not pass a temporary T() object as a reference...
 120:/Users/amc/git/libDaisy/src/util/FIFO.h ****             return buffer_[0];
 121:/Users/amc/git/libDaisy/src/util/FIFO.h ****         return buffer_[bufferOut_];
 122:/Users/amc/git/libDaisy/src/util/FIFO.h ****     }
 123:/Users/amc/git/libDaisy/src/util/FIFO.h **** 
 124:/Users/amc/git/libDaisy/src/util/FIFO.h ****     /** returns a reference to the first element */
 125:/Users/amc/git/libDaisy/src/util/FIFO.h ****     const T& Front() const
 126:/Users/amc/git/libDaisy/src/util/FIFO.h ****     {
 127:/Users/amc/git/libDaisy/src/util/FIFO.h ****         if(IsEmpty())
 128:/Users/amc/git/libDaisy/src/util/FIFO.h ****             // invalid, but better not pass a temporary T() object as a reference...
 129:/Users/amc/git/libDaisy/src/util/FIFO.h ****             return buffer_[0];
 130:/Users/amc/git/libDaisy/src/util/FIFO.h ****         return buffer_[bufferOut_];
 131:/Users/amc/git/libDaisy/src/util/FIFO.h ****     }
 132:/Users/amc/git/libDaisy/src/util/FIFO.h **** 
 133:/Users/amc/git/libDaisy/src/util/FIFO.h ****     /** Returns true if the buffer contains an element equal to the provided value */
 134:/Users/amc/git/libDaisy/src/util/FIFO.h ****     bool Contains(const T& element)
 135:/Users/amc/git/libDaisy/src/util/FIFO.h ****     {
 136:/Users/amc/git/libDaisy/src/util/FIFO.h ****         auto idx = bufferOut_;
 137:/Users/amc/git/libDaisy/src/util/FIFO.h ****         while(idx != bufferIn_)
 138:/Users/amc/git/libDaisy/src/util/FIFO.h ****         {
 139:/Users/amc/git/libDaisy/src/util/FIFO.h ****             if(buffer_[idx] == element)
 140:/Users/amc/git/libDaisy/src/util/FIFO.h ****                 return true;
 141:/Users/amc/git/libDaisy/src/util/FIFO.h ****             idx++;
 142:/Users/amc/git/libDaisy/src/util/FIFO.h ****             if(idx >= bufferSize_)
 143:/Users/amc/git/libDaisy/src/util/FIFO.h ****                 idx -= bufferSize_;
 144:/Users/amc/git/libDaisy/src/util/FIFO.h ****         }
 145:/Users/amc/git/libDaisy/src/util/FIFO.h ****         return false;
 146:/Users/amc/git/libDaisy/src/util/FIFO.h ****     }
 147:/Users/amc/git/libDaisy/src/util/FIFO.h **** 
 148:/Users/amc/git/libDaisy/src/util/FIFO.h ****     /** Returns the number of elements in the buffer that are equal to the provided value */
 149:/Users/amc/git/libDaisy/src/util/FIFO.h ****     size_t CountEqualTo(const T& element)
 150:/Users/amc/git/libDaisy/src/util/FIFO.h ****     {
 151:/Users/amc/git/libDaisy/src/util/FIFO.h ****         size_t result = 0;
 152:/Users/amc/git/libDaisy/src/util/FIFO.h ****         size_t idx    = bufferOut_;
 153:/Users/amc/git/libDaisy/src/util/FIFO.h ****         while(idx != bufferIn_)
 154:/Users/amc/git/libDaisy/src/util/FIFO.h ****         {
 155:/Users/amc/git/libDaisy/src/util/FIFO.h ****             if(buffer_[idx] == element)
 156:/Users/amc/git/libDaisy/src/util/FIFO.h ****                 result++;
 157:/Users/amc/git/libDaisy/src/util/FIFO.h ****             idx++;
 158:/Users/amc/git/libDaisy/src/util/FIFO.h ****             if(idx >= bufferSize_)
 159:/Users/amc/git/libDaisy/src/util/FIFO.h ****                 idx -= bufferSize_;
 160:/Users/amc/git/libDaisy/src/util/FIFO.h ****         }
 161:/Users/amc/git/libDaisy/src/util/FIFO.h ****         return result;
 162:/Users/amc/git/libDaisy/src/util/FIFO.h ****     }
 163:/Users/amc/git/libDaisy/src/util/FIFO.h **** 
 164:/Users/amc/git/libDaisy/src/util/FIFO.h ****     /** returns true, if the buffer is empty */
 165:/Users/amc/git/libDaisy/src/util/FIFO.h ****     bool IsEmpty() const { return bufferIn_ == bufferOut_; }
 166:/Users/amc/git/libDaisy/src/util/FIFO.h **** 
ARM GAS  /var/folders/83/vwtnzcdn1v99b_lf0k0gsjzr0000gn/T//ccSBqmD1.s 			page 9


 167:/Users/amc/git/libDaisy/src/util/FIFO.h ****     /** returns true, if the buffer is Full */
 168:/Users/amc/git/libDaisy/src/util/FIFO.h ****     bool IsFull() const { return GetNumElements() == bufferSize_ - 1; }
 169:/Users/amc/git/libDaisy/src/util/FIFO.h **** 
 170:/Users/amc/git/libDaisy/src/util/FIFO.h ****     /** returns the number of elements in the buffer */
 171:/Users/amc/git/libDaisy/src/util/FIFO.h ****     size_t GetNumElements() const
 172:/Users/amc/git/libDaisy/src/util/FIFO.h ****     {
 173:/Users/amc/git/libDaisy/src/util/FIFO.h ****         int32_t numElements = bufferIn_ - bufferOut_;
 174:/Users/amc/git/libDaisy/src/util/FIFO.h ****         if(numElements < 0)
 175:/Users/amc/git/libDaisy/src/util/FIFO.h ****             numElements += bufferSize_;
 176:/Users/amc/git/libDaisy/src/util/FIFO.h ****         return size_t(numElements);
 177:/Users/amc/git/libDaisy/src/util/FIFO.h ****     }
 178:/Users/amc/git/libDaisy/src/util/FIFO.h **** 
 179:/Users/amc/git/libDaisy/src/util/FIFO.h ****     /** inserts an element "idx" positions behind the first element and returns true if successful 
 180:/Users/amc/git/libDaisy/src/util/FIFO.h ****     bool Insert(size_t idx, const T& element)
 181:/Users/amc/git/libDaisy/src/util/FIFO.h ****     {
 182:/Users/amc/git/libDaisy/src/util/FIFO.h ****         if(idx > GetNumElements())
 183:/Users/amc/git/libDaisy/src/util/FIFO.h ****             return false;
 184:/Users/amc/git/libDaisy/src/util/FIFO.h ****         if(IsFull())
 185:/Users/amc/git/libDaisy/src/util/FIFO.h ****             return false;
 186:/Users/amc/git/libDaisy/src/util/FIFO.h ****         if(idx == GetNumElements())
 187:/Users/amc/git/libDaisy/src/util/FIFO.h ****         {
 188:/Users/amc/git/libDaisy/src/util/FIFO.h ****             PushBack(element);
 189:/Users/amc/git/libDaisy/src/util/FIFO.h ****             return true;
 190:/Users/amc/git/libDaisy/src/util/FIFO.h ****         }
 191:/Users/amc/git/libDaisy/src/util/FIFO.h ****         // copy last element
 192:/Users/amc/git/libDaisy/src/util/FIFO.h ****         PushBack(Back());
 193:/Users/amc/git/libDaisy/src/util/FIFO.h ****         // move remaining elements: n => n+1
 194:/Users/amc/git/libDaisy/src/util/FIFO.h ****         for(int i = GetNumElements() - 2; i > int(idx); i--)
 195:/Users/amc/git/libDaisy/src/util/FIFO.h ****             (*this)[i] = (*this)[i - 1];
 196:/Users/amc/git/libDaisy/src/util/FIFO.h ****         // insert element
 197:/Users/amc/git/libDaisy/src/util/FIFO.h ****         (*this)[idx] = element;
 198:/Users/amc/git/libDaisy/src/util/FIFO.h ****         return true;
 199:/Users/amc/git/libDaisy/src/util/FIFO.h ****     }
 200:/Users/amc/git/libDaisy/src/util/FIFO.h **** 
 201:/Users/amc/git/libDaisy/src/util/FIFO.h ****     /** removes the element "idx" positions behind the first element 
 202:/Users/amc/git/libDaisy/src/util/FIFO.h ****      *  and returns true if successful */
 203:/Users/amc/git/libDaisy/src/util/FIFO.h ****     bool Remove(size_t idx)
 204:/Users/amc/git/libDaisy/src/util/FIFO.h ****     {
 205:/Users/amc/git/libDaisy/src/util/FIFO.h ****         if(idx >= GetNumElements())
 206:/Users/amc/git/libDaisy/src/util/FIFO.h ****             return false;
 207:/Users/amc/git/libDaisy/src/util/FIFO.h **** 
 208:/Users/amc/git/libDaisy/src/util/FIFO.h ****         size_t index = bufferOut_ + idx;
 209:/Users/amc/git/libDaisy/src/util/FIFO.h ****         if(index >= bufferSize_)
 210:/Users/amc/git/libDaisy/src/util/FIFO.h ****             index -= bufferSize_;
 211:/Users/amc/git/libDaisy/src/util/FIFO.h ****         size_t nextIndex = index + 1;
 212:/Users/amc/git/libDaisy/src/util/FIFO.h ****         if(nextIndex >= bufferSize_)
 213:/Users/amc/git/libDaisy/src/util/FIFO.h ****             nextIndex -= bufferSize_;
 214:/Users/amc/git/libDaisy/src/util/FIFO.h **** 
 215:/Users/amc/git/libDaisy/src/util/FIFO.h ****         while(nextIndex != bufferIn_)
 216:/Users/amc/git/libDaisy/src/util/FIFO.h ****         {
 217:/Users/amc/git/libDaisy/src/util/FIFO.h ****             buffer_[index] = buffer_[nextIndex];
 218:/Users/amc/git/libDaisy/src/util/FIFO.h ****             index++;
 219:/Users/amc/git/libDaisy/src/util/FIFO.h ****             nextIndex++;
 220:/Users/amc/git/libDaisy/src/util/FIFO.h ****             if(index >= bufferSize_)
 221:/Users/amc/git/libDaisy/src/util/FIFO.h ****                 index -= bufferSize_;
 222:/Users/amc/git/libDaisy/src/util/FIFO.h ****             if(nextIndex >= bufferSize_)
 223:/Users/amc/git/libDaisy/src/util/FIFO.h ****                 nextIndex -= bufferSize_;
ARM GAS  /var/folders/83/vwtnzcdn1v99b_lf0k0gsjzr0000gn/T//ccSBqmD1.s 			page 10


 224:/Users/amc/git/libDaisy/src/util/FIFO.h ****         }
 225:/Users/amc/git/libDaisy/src/util/FIFO.h **** 
 226:/Users/amc/git/libDaisy/src/util/FIFO.h ****         int32_t nextBufferIn = int32_t(bufferIn_) - 1;
 227:/Users/amc/git/libDaisy/src/util/FIFO.h ****         if(nextBufferIn < 0)
 228:/Users/amc/git/libDaisy/src/util/FIFO.h ****             nextBufferIn += bufferSize_;
 229:/Users/amc/git/libDaisy/src/util/FIFO.h ****         bufferIn_ = size_t(nextBufferIn);
 230:/Users/amc/git/libDaisy/src/util/FIFO.h **** 
 231:/Users/amc/git/libDaisy/src/util/FIFO.h ****         return true;
 232:/Users/amc/git/libDaisy/src/util/FIFO.h ****     }
 233:/Users/amc/git/libDaisy/src/util/FIFO.h **** 
 234:/Users/amc/git/libDaisy/src/util/FIFO.h ****     /** removes all elements from the buffer for which
 235:/Users/amc/git/libDaisy/src/util/FIFO.h ****         (buffer(index) == element) returns true and returns the number of
 236:/Users/amc/git/libDaisy/src/util/FIFO.h ****         elements that were removed. */
 237:/Users/amc/git/libDaisy/src/util/FIFO.h ****     size_t RemoveAllEqualTo(const T& element)
 238:/Users/amc/git/libDaisy/src/util/FIFO.h ****     {
 239:/Users/amc/git/libDaisy/src/util/FIFO.h ****         size_t numRemoved = 0;
 240:/Users/amc/git/libDaisy/src/util/FIFO.h ****         int    idx        = GetNumElements() - 1;
 241:/Users/amc/git/libDaisy/src/util/FIFO.h ****         while(idx >= 0)
 242:/Users/amc/git/libDaisy/src/util/FIFO.h ****         {
 243:/Users/amc/git/libDaisy/src/util/FIFO.h ****             if((*this)[idx] == element)
 244:/Users/amc/git/libDaisy/src/util/FIFO.h ****             {
 245:/Users/amc/git/libDaisy/src/util/FIFO.h ****                 numRemoved++;
 246:/Users/amc/git/libDaisy/src/util/FIFO.h ****                 Remove(idx);
 247:/Users/amc/git/libDaisy/src/util/FIFO.h ****                 // was that the last element?
 248:/Users/amc/git/libDaisy/src/util/FIFO.h ****                 if(idx == int(GetNumElements()) - 1)
 249:/Users/amc/git/libDaisy/src/util/FIFO.h ****                     idx--;
 250:/Users/amc/git/libDaisy/src/util/FIFO.h ****             }
 251:/Users/amc/git/libDaisy/src/util/FIFO.h ****             else
 252:/Users/amc/git/libDaisy/src/util/FIFO.h ****                 idx--;
 253:/Users/amc/git/libDaisy/src/util/FIFO.h ****         }
 254:/Users/amc/git/libDaisy/src/util/FIFO.h ****         return numRemoved;
 255:/Users/amc/git/libDaisy/src/util/FIFO.h ****     }
 256:/Users/amc/git/libDaisy/src/util/FIFO.h **** 
 257:/Users/amc/git/libDaisy/src/util/FIFO.h ****     /** returns the element "idx" positions behind the first element */
 258:/Users/amc/git/libDaisy/src/util/FIFO.h ****     T& operator[](size_t idx)
 259:/Users/amc/git/libDaisy/src/util/FIFO.h ****     {
 260:/Users/amc/git/libDaisy/src/util/FIFO.h ****         if(idx >= GetNumElements())
 261:/Users/amc/git/libDaisy/src/util/FIFO.h ****             // invalid, but better not pass a temporary T() object as a reference...
 262:/Users/amc/git/libDaisy/src/util/FIFO.h ****             return buffer_[0];
 263:/Users/amc/git/libDaisy/src/util/FIFO.h **** 
 264:/Users/amc/git/libDaisy/src/util/FIFO.h ****         size_t index = bufferOut_ + idx;
 265:/Users/amc/git/libDaisy/src/util/FIFO.h ****         if(index >= bufferSize_)
 266:/Users/amc/git/libDaisy/src/util/FIFO.h ****             index -= bufferSize_;
 267:/Users/amc/git/libDaisy/src/util/FIFO.h ****         return buffer_[index];
 268:/Users/amc/git/libDaisy/src/util/FIFO.h ****     }
 269:/Users/amc/git/libDaisy/src/util/FIFO.h **** 
 270:/Users/amc/git/libDaisy/src/util/FIFO.h ****     /** returns the element "idx" positions behind the first element */
 271:/Users/amc/git/libDaisy/src/util/FIFO.h ****     const T& operator[](size_t idx) const
 272:/Users/amc/git/libDaisy/src/util/FIFO.h ****     {
 273:/Users/amc/git/libDaisy/src/util/FIFO.h ****         if(idx >= GetNumElements())
 274:/Users/amc/git/libDaisy/src/util/FIFO.h ****             // invalid, but better not pass a temporary T() object as a reference...
 275:/Users/amc/git/libDaisy/src/util/FIFO.h ****             return buffer_[0];
 276:/Users/amc/git/libDaisy/src/util/FIFO.h **** 
 277:/Users/amc/git/libDaisy/src/util/FIFO.h ****         size_t index = bufferOut_ + idx;
 278:/Users/amc/git/libDaisy/src/util/FIFO.h ****         if(index >= bufferSize_)
 279:/Users/amc/git/libDaisy/src/util/FIFO.h ****             index -= bufferSize_;
 280:/Users/amc/git/libDaisy/src/util/FIFO.h ****         return buffer_[index];
ARM GAS  /var/folders/83/vwtnzcdn1v99b_lf0k0gsjzr0000gn/T//ccSBqmD1.s 			page 11


 281:/Users/amc/git/libDaisy/src/util/FIFO.h ****     }
 282:/Users/amc/git/libDaisy/src/util/FIFO.h **** 
 283:/Users/amc/git/libDaisy/src/util/FIFO.h ****     /** returns the total capacity */
 284:/Users/amc/git/libDaisy/src/util/FIFO.h ****     size_t GetCapacity() const { return bufferSize_ - 1; }
 285:/Users/amc/git/libDaisy/src/util/FIFO.h **** 
 286:/Users/amc/git/libDaisy/src/util/FIFO.h ****   private:
 287:/Users/amc/git/libDaisy/src/util/FIFO.h ****     FIFOBase(const FIFOBase<T>&) {} // non copyable
 288:/Users/amc/git/libDaisy/src/util/FIFO.h **** 
 289:/Users/amc/git/libDaisy/src/util/FIFO.h ****   private:
 290:/Users/amc/git/libDaisy/src/util/FIFO.h ****     T*           buffer_;
 291:/Users/amc/git/libDaisy/src/util/FIFO.h ****     const size_t bufferSize_;
 292:/Users/amc/git/libDaisy/src/util/FIFO.h ****     size_t       bufferIn_;
 293:/Users/amc/git/libDaisy/src/util/FIFO.h ****     size_t       bufferOut_;
 294:/Users/amc/git/libDaisy/src/util/FIFO.h **** };
 295:/Users/amc/git/libDaisy/src/util/FIFO.h **** 
 296:/Users/amc/git/libDaisy/src/util/FIFO.h **** /** A simple FIFO ring buffer with a fixed size. */
 297:/Users/amc/git/libDaisy/src/util/FIFO.h **** template <typename T, size_t capacity>
 298:/Users/amc/git/libDaisy/src/util/FIFO.h **** class FIFO : public FIFOBase<T>
  67              		.loc 5 298 7 view .LVU4
  68              	.LBB750:
  69              	.LBI750:
  42:/Users/amc/git/libDaisy/src/util/FIFO.h **** 
  70              		.loc 5 42 5 view .LVU5
  42:/Users/amc/git/libDaisy/src/util/FIFO.h **** 
  71              		.loc 5 42 5 is_stmt 0 view .LVU6
  72              	.LBE750:
  73              	.LBE749:
  74              	.LBB751:
  75              	.LBI751:
  76              		.file 6 "/Users/amc/git/libDaisy/src/hid/midi_parser.h"
   1:/Users/amc/git/libDaisy/src/hid/midi_parser.h **** #pragma once
   2:/Users/amc/git/libDaisy/src/hid/midi_parser.h **** #ifndef DSY_MIDI_PARSER_H
   3:/Users/amc/git/libDaisy/src/hid/midi_parser.h **** #define DSY_MIDI_PARSER_H
   4:/Users/amc/git/libDaisy/src/hid/midi_parser.h **** 
   5:/Users/amc/git/libDaisy/src/hid/midi_parser.h **** #include <stdint.h>
   6:/Users/amc/git/libDaisy/src/hid/midi_parser.h **** #include <stdlib.h>
   7:/Users/amc/git/libDaisy/src/hid/midi_parser.h **** #include "hid/MidiEvent.h"
   8:/Users/amc/git/libDaisy/src/hid/midi_parser.h **** 
   9:/Users/amc/git/libDaisy/src/hid/midi_parser.h **** namespace daisy
  10:/Users/amc/git/libDaisy/src/hid/midi_parser.h **** {
  11:/Users/amc/git/libDaisy/src/hid/midi_parser.h **** /** @brief   Utility class for parsing raw byte streams into MIDI messages
  12:/Users/amc/git/libDaisy/src/hid/midi_parser.h ****  *  @details Implemented as a state machine designed to parse one byte at a time
  13:/Users/amc/git/libDaisy/src/hid/midi_parser.h ****  *  @ingroup midi
  14:/Users/amc/git/libDaisy/src/hid/midi_parser.h ****  */
  15:/Users/amc/git/libDaisy/src/hid/midi_parser.h **** class MidiParser
  16:/Users/amc/git/libDaisy/src/hid/midi_parser.h **** {
  17:/Users/amc/git/libDaisy/src/hid/midi_parser.h ****   public:
  18:/Users/amc/git/libDaisy/src/hid/midi_parser.h ****     MidiParser(){};
  19:/Users/amc/git/libDaisy/src/hid/midi_parser.h ****     ~MidiParser() {}
  77              		.loc 6 19 5 is_stmt 1 view .LVU7
  78              		.loc 6 19 5 is_stmt 0 view .LVU8
  79              	.LBE751:
  80              	.LBB752:
  81              	.LBI752:
  32:/Users/amc/git/libDaisy/src/hid/midi.h **** 
  82              		.loc 4 32 5 is_stmt 1 view .LVU9
  32:/Users/amc/git/libDaisy/src/hid/midi.h **** 
ARM GAS  /var/folders/83/vwtnzcdn1v99b_lf0k0gsjzr0000gn/T//ccSBqmD1.s 			page 12


  83              		.loc 4 32 5 is_stmt 0 view .LVU10
  84              	.LBE752:
  85              	.LBE748:
  86              	.LBB753:
  87              	.LBI753:
  88              		.file 7 "/Users/amc/git/libDaisy/src/hid/disp/oled_display.h"
   1:/Users/amc/git/libDaisy/src/hid/disp/oled_display.h **** #pragma once
   2:/Users/amc/git/libDaisy/src/hid/disp/oled_display.h **** #ifndef DSY_OLED_DISPLAY_H
   3:/Users/amc/git/libDaisy/src/hid/disp/oled_display.h **** #define DSY_OLED_DISPLAY_H /**< Macro */
   4:/Users/amc/git/libDaisy/src/hid/disp/oled_display.h **** 
   5:/Users/amc/git/libDaisy/src/hid/disp/oled_display.h **** #include "display.h"
   6:/Users/amc/git/libDaisy/src/hid/disp/oled_display.h **** 
   7:/Users/amc/git/libDaisy/src/hid/disp/oled_display.h **** namespace daisy
   8:/Users/amc/git/libDaisy/src/hid/disp/oled_display.h **** {
   9:/Users/amc/git/libDaisy/src/hid/disp/oled_display.h **** /** 
  10:/Users/amc/git/libDaisy/src/hid/disp/oled_display.h ****  * This class is for drawing to a monochrome OLED display. 
  11:/Users/amc/git/libDaisy/src/hid/disp/oled_display.h ****  * @ingroup device
  12:/Users/amc/git/libDaisy/src/hid/disp/oled_display.h **** */
  13:/Users/amc/git/libDaisy/src/hid/disp/oled_display.h **** template <typename DisplayDriver>
  14:/Users/amc/git/libDaisy/src/hid/disp/oled_display.h **** class OledDisplay : public OneBitGraphicsDisplayImpl<OledDisplay<DisplayDriver>>
  15:/Users/amc/git/libDaisy/src/hid/disp/oled_display.h **** {
  16:/Users/amc/git/libDaisy/src/hid/disp/oled_display.h ****   public:
  17:/Users/amc/git/libDaisy/src/hid/disp/oled_display.h ****     OledDisplay() {}
  18:/Users/amc/git/libDaisy/src/hid/disp/oled_display.h ****     virtual ~OledDisplay() {}
  89              		.loc 7 18 13 is_stmt 1 view .LVU11
  90              	.LBB754:
  91              	.LBI754:
  92              		.file 8 "/Users/amc/git/libDaisy/src/hid/disp/display.h"
   1:/Users/amc/git/libDaisy/src/hid/disp/display.h **** #pragma once
   2:/Users/amc/git/libDaisy/src/hid/disp/display.h **** #ifndef DSY_DISPLAY_H
   3:/Users/amc/git/libDaisy/src/hid/disp/display.h **** #define DSY_DISPLAY_H /**< Macro */
   4:/Users/amc/git/libDaisy/src/hid/disp/display.h **** #include <cmath>
   5:/Users/amc/git/libDaisy/src/hid/disp/display.h **** #include "util/oled_fonts.h"
   6:/Users/amc/git/libDaisy/src/hid/disp/display.h **** #include "daisy_core.h"
   7:/Users/amc/git/libDaisy/src/hid/disp/display.h **** #include "graphics_common.h"
   8:/Users/amc/git/libDaisy/src/hid/disp/display.h **** 
   9:/Users/amc/git/libDaisy/src/hid/disp/display.h **** #ifndef deg2rad
  10:/Users/amc/git/libDaisy/src/hid/disp/display.h **** #define deg2rad(deg) ((deg)*3.141592 / 180.0)
  11:/Users/amc/git/libDaisy/src/hid/disp/display.h **** #endif
  12:/Users/amc/git/libDaisy/src/hid/disp/display.h **** 
  13:/Users/amc/git/libDaisy/src/hid/disp/display.h **** namespace daisy
  14:/Users/amc/git/libDaisy/src/hid/disp/display.h **** {
  15:/Users/amc/git/libDaisy/src/hid/disp/display.h **** /** 
  16:/Users/amc/git/libDaisy/src/hid/disp/display.h ****  * This interface is used as a base class for all types of 1bit-per-pixel
  17:/Users/amc/git/libDaisy/src/hid/disp/display.h ****  * graphics displays.
  18:/Users/amc/git/libDaisy/src/hid/disp/display.h **** */
  19:/Users/amc/git/libDaisy/src/hid/disp/display.h **** class OneBitGraphicsDisplay
  20:/Users/amc/git/libDaisy/src/hid/disp/display.h **** {
  21:/Users/amc/git/libDaisy/src/hid/disp/display.h ****   public:
  22:/Users/amc/git/libDaisy/src/hid/disp/display.h ****     OneBitGraphicsDisplay() {}
  23:/Users/amc/git/libDaisy/src/hid/disp/display.h ****     virtual ~OneBitGraphicsDisplay() {}
  24:/Users/amc/git/libDaisy/src/hid/disp/display.h **** 
  25:/Users/amc/git/libDaisy/src/hid/disp/display.h ****     virtual uint16_t Height() const = 0;
  26:/Users/amc/git/libDaisy/src/hid/disp/display.h ****     virtual uint16_t Width() const  = 0;
  27:/Users/amc/git/libDaisy/src/hid/disp/display.h **** 
  28:/Users/amc/git/libDaisy/src/hid/disp/display.h ****     Rectangle GetBounds() const
  29:/Users/amc/git/libDaisy/src/hid/disp/display.h ****     {
ARM GAS  /var/folders/83/vwtnzcdn1v99b_lf0k0gsjzr0000gn/T//ccSBqmD1.s 			page 13


  30:/Users/amc/git/libDaisy/src/hid/disp/display.h ****         return Rectangle(int16_t(Width()), int16_t(Height()));
  31:/Users/amc/git/libDaisy/src/hid/disp/display.h ****     }
  32:/Users/amc/git/libDaisy/src/hid/disp/display.h **** 
  33:/Users/amc/git/libDaisy/src/hid/disp/display.h **** 
  34:/Users/amc/git/libDaisy/src/hid/disp/display.h ****     size_t CurrentX() { return currentX_; };
  35:/Users/amc/git/libDaisy/src/hid/disp/display.h ****     size_t CurrentY() { return currentY_; };
  36:/Users/amc/git/libDaisy/src/hid/disp/display.h **** 
  37:/Users/amc/git/libDaisy/src/hid/disp/display.h ****     /** 
  38:/Users/amc/git/libDaisy/src/hid/disp/display.h ****     Fills the entire display with either on/off.
  39:/Users/amc/git/libDaisy/src/hid/disp/display.h ****     \param on Sets on or off.
  40:/Users/amc/git/libDaisy/src/hid/disp/display.h ****     */
  41:/Users/amc/git/libDaisy/src/hid/disp/display.h ****     virtual void Fill(bool on) = 0;
  42:/Users/amc/git/libDaisy/src/hid/disp/display.h **** 
  43:/Users/amc/git/libDaisy/src/hid/disp/display.h ****     /**
  44:/Users/amc/git/libDaisy/src/hid/disp/display.h ****     Sets the pixel at the specified coordinate to be on/off.
  45:/Users/amc/git/libDaisy/src/hid/disp/display.h ****     \param x   x Coordinate
  46:/Users/amc/git/libDaisy/src/hid/disp/display.h ****     \param y   y coordinate
  47:/Users/amc/git/libDaisy/src/hid/disp/display.h ****     \param on  on or off
  48:/Users/amc/git/libDaisy/src/hid/disp/display.h ****     */
  49:/Users/amc/git/libDaisy/src/hid/disp/display.h ****     virtual void DrawPixel(uint_fast8_t x, uint_fast8_t y, bool on) = 0;
  50:/Users/amc/git/libDaisy/src/hid/disp/display.h **** 
  51:/Users/amc/git/libDaisy/src/hid/disp/display.h ****     /**
  52:/Users/amc/git/libDaisy/src/hid/disp/display.h ****     Draws a line from (x1, y1) to (y1, y2)
  53:/Users/amc/git/libDaisy/src/hid/disp/display.h ****     \param x1  x Coordinate of the starting point
  54:/Users/amc/git/libDaisy/src/hid/disp/display.h ****     \param y1  y Coordinate of the starting point
  55:/Users/amc/git/libDaisy/src/hid/disp/display.h ****     \param x2  x Coordinate of the ending point
  56:/Users/amc/git/libDaisy/src/hid/disp/display.h ****     \param y2  y Coordinate of the ending point
  57:/Users/amc/git/libDaisy/src/hid/disp/display.h ****     \param on  on or off
  58:/Users/amc/git/libDaisy/src/hid/disp/display.h ****     */
  59:/Users/amc/git/libDaisy/src/hid/disp/display.h ****     virtual void DrawLine(uint_fast8_t x1,
  60:/Users/amc/git/libDaisy/src/hid/disp/display.h ****                           uint_fast8_t y1,
  61:/Users/amc/git/libDaisy/src/hid/disp/display.h ****                           uint_fast8_t x2,
  62:/Users/amc/git/libDaisy/src/hid/disp/display.h ****                           uint_fast8_t y2,
  63:/Users/amc/git/libDaisy/src/hid/disp/display.h ****                           bool         on)
  64:/Users/amc/git/libDaisy/src/hid/disp/display.h ****         = 0;
  65:/Users/amc/git/libDaisy/src/hid/disp/display.h **** 
  66:/Users/amc/git/libDaisy/src/hid/disp/display.h ****     /**
  67:/Users/amc/git/libDaisy/src/hid/disp/display.h ****     Draws a rectangle based on two coordinates.
  68:/Users/amc/git/libDaisy/src/hid/disp/display.h ****     \param x1 x Coordinate of the first point
  69:/Users/amc/git/libDaisy/src/hid/disp/display.h ****     \param y1 y Coordinate of the first point
  70:/Users/amc/git/libDaisy/src/hid/disp/display.h ****     \param x2 x Coordinate of the second point
  71:/Users/amc/git/libDaisy/src/hid/disp/display.h ****     \param y2 y Coordinate of the second point
  72:/Users/amc/git/libDaisy/src/hid/disp/display.h ****     \param on on or off
  73:/Users/amc/git/libDaisy/src/hid/disp/display.h ****     \param fill fill the rectangle or draw only the outline
  74:/Users/amc/git/libDaisy/src/hid/disp/display.h ****     */
  75:/Users/amc/git/libDaisy/src/hid/disp/display.h ****     virtual void DrawRect(uint_fast8_t x1,
  76:/Users/amc/git/libDaisy/src/hid/disp/display.h ****                           uint_fast8_t y1,
  77:/Users/amc/git/libDaisy/src/hid/disp/display.h ****                           uint_fast8_t x2,
  78:/Users/amc/git/libDaisy/src/hid/disp/display.h ****                           uint_fast8_t y2,
  79:/Users/amc/git/libDaisy/src/hid/disp/display.h ****                           bool         on,
  80:/Users/amc/git/libDaisy/src/hid/disp/display.h ****                           bool         fill = false)
  81:/Users/amc/git/libDaisy/src/hid/disp/display.h ****         = 0;
  82:/Users/amc/git/libDaisy/src/hid/disp/display.h **** 
  83:/Users/amc/git/libDaisy/src/hid/disp/display.h ****     /**
  84:/Users/amc/git/libDaisy/src/hid/disp/display.h ****     Draws a rectangle.
  85:/Users/amc/git/libDaisy/src/hid/disp/display.h ****     \param rect the rectangle
  86:/Users/amc/git/libDaisy/src/hid/disp/display.h ****     \param on   on or off
ARM GAS  /var/folders/83/vwtnzcdn1v99b_lf0k0gsjzr0000gn/T//ccSBqmD1.s 			page 14


  87:/Users/amc/git/libDaisy/src/hid/disp/display.h ****     \param fill fill the rectangle or draw only the outline
  88:/Users/amc/git/libDaisy/src/hid/disp/display.h ****     */
  89:/Users/amc/git/libDaisy/src/hid/disp/display.h ****     void DrawRect(const Rectangle& rect, bool on, bool fill = false)
  90:/Users/amc/git/libDaisy/src/hid/disp/display.h ****     {
  91:/Users/amc/git/libDaisy/src/hid/disp/display.h ****         DrawRect(rect.GetX(),
  92:/Users/amc/git/libDaisy/src/hid/disp/display.h ****                  rect.GetY(),
  93:/Users/amc/git/libDaisy/src/hid/disp/display.h ****                  rect.GetRight(),
  94:/Users/amc/git/libDaisy/src/hid/disp/display.h ****                  rect.GetBottom(),
  95:/Users/amc/git/libDaisy/src/hid/disp/display.h ****                  on,
  96:/Users/amc/git/libDaisy/src/hid/disp/display.h ****                  fill);
  97:/Users/amc/git/libDaisy/src/hid/disp/display.h ****     }
  98:/Users/amc/git/libDaisy/src/hid/disp/display.h **** 
  99:/Users/amc/git/libDaisy/src/hid/disp/display.h ****     /**
 100:/Users/amc/git/libDaisy/src/hid/disp/display.h ****     Draws an arc around the specified coordinate
 101:/Users/amc/git/libDaisy/src/hid/disp/display.h ****     \param x           x Coordinate of the center of the arc
 102:/Users/amc/git/libDaisy/src/hid/disp/display.h ****     \param y           y Coordinate of the center of the arc
 103:/Users/amc/git/libDaisy/src/hid/disp/display.h ****     \param radius      radius of the arc
 104:/Users/amc/git/libDaisy/src/hid/disp/display.h ****     \param start_angle angle where to start the arc
 105:/Users/amc/git/libDaisy/src/hid/disp/display.h ****     \param sweep       total angle of the arc
 106:/Users/amc/git/libDaisy/src/hid/disp/display.h ****     \param on  on or off
 107:/Users/amc/git/libDaisy/src/hid/disp/display.h ****     */
 108:/Users/amc/git/libDaisy/src/hid/disp/display.h ****     virtual void DrawArc(uint_fast8_t x,
 109:/Users/amc/git/libDaisy/src/hid/disp/display.h ****                          uint_fast8_t y,
 110:/Users/amc/git/libDaisy/src/hid/disp/display.h ****                          uint_fast8_t radius,
 111:/Users/amc/git/libDaisy/src/hid/disp/display.h ****                          int_fast16_t start_angle,
 112:/Users/amc/git/libDaisy/src/hid/disp/display.h ****                          int_fast16_t sweep,
 113:/Users/amc/git/libDaisy/src/hid/disp/display.h ****                          bool         on)
 114:/Users/amc/git/libDaisy/src/hid/disp/display.h ****         = 0;
 115:/Users/amc/git/libDaisy/src/hid/disp/display.h **** 
 116:/Users/amc/git/libDaisy/src/hid/disp/display.h ****     /**
 117:/Users/amc/git/libDaisy/src/hid/disp/display.h ****     Draws a circle around the specified coordinate
 118:/Users/amc/git/libDaisy/src/hid/disp/display.h ****     \param x           x Coordinate of the center of the circle
 119:/Users/amc/git/libDaisy/src/hid/disp/display.h ****     \param y           y Coordinate of the center of the circle
 120:/Users/amc/git/libDaisy/src/hid/disp/display.h ****     \param radius      radius of the circle
 121:/Users/amc/git/libDaisy/src/hid/disp/display.h ****     \param on  on or off
 122:/Users/amc/git/libDaisy/src/hid/disp/display.h ****     */
 123:/Users/amc/git/libDaisy/src/hid/disp/display.h ****     void
 124:/Users/amc/git/libDaisy/src/hid/disp/display.h ****     DrawCircle(uint_fast8_t x, uint_fast8_t y, uint_fast8_t radius, bool on)
 125:/Users/amc/git/libDaisy/src/hid/disp/display.h ****     {
 126:/Users/amc/git/libDaisy/src/hid/disp/display.h ****         DrawArc(x, y, radius, 0, 360, on);
 127:/Users/amc/git/libDaisy/src/hid/disp/display.h ****     };
 128:/Users/amc/git/libDaisy/src/hid/disp/display.h **** 
 129:/Users/amc/git/libDaisy/src/hid/disp/display.h ****     /** 
 130:/Users/amc/git/libDaisy/src/hid/disp/display.h ****     Writes the character with the specific FontDef
 131:/Users/amc/git/libDaisy/src/hid/disp/display.h ****     to the display buffer at the current Cursor position.
 132:/Users/amc/git/libDaisy/src/hid/disp/display.h ****     \param ch character to be written
 133:/Users/amc/git/libDaisy/src/hid/disp/display.h ****     \param font font to be written in
 134:/Users/amc/git/libDaisy/src/hid/disp/display.h ****     \param on    on or off
 135:/Users/amc/git/libDaisy/src/hid/disp/display.h ****     \return &
 136:/Users/amc/git/libDaisy/src/hid/disp/display.h ****     */
 137:/Users/amc/git/libDaisy/src/hid/disp/display.h ****     virtual char WriteChar(char ch, FontDef font, bool on) = 0;
 138:/Users/amc/git/libDaisy/src/hid/disp/display.h **** 
 139:/Users/amc/git/libDaisy/src/hid/disp/display.h ****     /** 
 140:/Users/amc/git/libDaisy/src/hid/disp/display.h ****     Similar to WriteChar, except it will handle an entire String.
 141:/Users/amc/git/libDaisy/src/hid/disp/display.h ****     Wrapping does not happen automatically, so the width
 142:/Users/amc/git/libDaisy/src/hid/disp/display.h ****     of the string must be kept within the dimensions of the screen.
 143:/Users/amc/git/libDaisy/src/hid/disp/display.h ****     \param str string to be written
ARM GAS  /var/folders/83/vwtnzcdn1v99b_lf0k0gsjzr0000gn/T//ccSBqmD1.s 			page 15


 144:/Users/amc/git/libDaisy/src/hid/disp/display.h ****     \param font font to use
 145:/Users/amc/git/libDaisy/src/hid/disp/display.h ****     \param on  on or off
 146:/Users/amc/git/libDaisy/src/hid/disp/display.h ****     \return &
 147:/Users/amc/git/libDaisy/src/hid/disp/display.h ****     */
 148:/Users/amc/git/libDaisy/src/hid/disp/display.h ****     virtual char WriteString(const char* str, FontDef font, bool on) = 0;
 149:/Users/amc/git/libDaisy/src/hid/disp/display.h **** 
 150:/Users/amc/git/libDaisy/src/hid/disp/display.h ****     /** 
 151:/Users/amc/git/libDaisy/src/hid/disp/display.h ****     Similar to WriteString but justified within a bounding box.
 152:/Users/amc/git/libDaisy/src/hid/disp/display.h ****     \param str          string to be written
 153:/Users/amc/git/libDaisy/src/hid/disp/display.h ****     \param font         font to use
 154:/Users/amc/git/libDaisy/src/hid/disp/display.h ****     \param boundingBox  the bounding box to draw the text in
 155:/Users/amc/git/libDaisy/src/hid/disp/display.h ****     \param alignment    the alignment to use
 156:/Users/amc/git/libDaisy/src/hid/disp/display.h ****     \param on           on or off
 157:/Users/amc/git/libDaisy/src/hid/disp/display.h ****     \return The rectangle that was drawn to
 158:/Users/amc/git/libDaisy/src/hid/disp/display.h ****     */
 159:/Users/amc/git/libDaisy/src/hid/disp/display.h ****     virtual Rectangle WriteStringAligned(const char*    str,
 160:/Users/amc/git/libDaisy/src/hid/disp/display.h ****                                          const FontDef& font,
 161:/Users/amc/git/libDaisy/src/hid/disp/display.h ****                                          Rectangle      boundingBox,
 162:/Users/amc/git/libDaisy/src/hid/disp/display.h ****                                          Alignment      alignment,
 163:/Users/amc/git/libDaisy/src/hid/disp/display.h ****                                          bool           on)
 164:/Users/amc/git/libDaisy/src/hid/disp/display.h ****         = 0;
 165:/Users/amc/git/libDaisy/src/hid/disp/display.h **** 
 166:/Users/amc/git/libDaisy/src/hid/disp/display.h ****     /** 
 167:/Users/amc/git/libDaisy/src/hid/disp/display.h ****     Moves the 'Cursor' position used for WriteChar, and WriteStr to the specified coordinate.
 168:/Users/amc/git/libDaisy/src/hid/disp/display.h ****     \param x x pos
 169:/Users/amc/git/libDaisy/src/hid/disp/display.h ****     \param y y pos
 170:/Users/amc/git/libDaisy/src/hid/disp/display.h ****     */
 171:/Users/amc/git/libDaisy/src/hid/disp/display.h ****     void SetCursor(uint16_t x, uint16_t y)
 172:/Users/amc/git/libDaisy/src/hid/disp/display.h ****     {
 173:/Users/amc/git/libDaisy/src/hid/disp/display.h ****         currentX_ = (x >= Width()) ? Width() - 1 : x;
 174:/Users/amc/git/libDaisy/src/hid/disp/display.h ****         currentY_ = (y >= Height()) ? Height() - 1 : y;
 175:/Users/amc/git/libDaisy/src/hid/disp/display.h ****     }
 176:/Users/amc/git/libDaisy/src/hid/disp/display.h **** 
 177:/Users/amc/git/libDaisy/src/hid/disp/display.h ****     /** 
 178:/Users/amc/git/libDaisy/src/hid/disp/display.h ****     Writes the current display buffer to the OLED device using SPI or I2C depending on 
 179:/Users/amc/git/libDaisy/src/hid/disp/display.h ****     how the object was initialized.
 180:/Users/amc/git/libDaisy/src/hid/disp/display.h ****     */
 181:/Users/amc/git/libDaisy/src/hid/disp/display.h ****     virtual void Update() = 0;
 182:/Users/amc/git/libDaisy/src/hid/disp/display.h **** 
 183:/Users/amc/git/libDaisy/src/hid/disp/display.h ****   protected:
 184:/Users/amc/git/libDaisy/src/hid/disp/display.h ****     uint16_t currentX_;
 185:/Users/amc/git/libDaisy/src/hid/disp/display.h ****     uint16_t currentY_;
 186:/Users/amc/git/libDaisy/src/hid/disp/display.h **** };
 187:/Users/amc/git/libDaisy/src/hid/disp/display.h **** 
 188:/Users/amc/git/libDaisy/src/hid/disp/display.h **** /** This class is intended as a intermediary class for your actual implementation of the OneBitGrap
 189:/Users/amc/git/libDaisy/src/hid/disp/display.h ****  *  interface. It uses the CRTP design pattern where the template argument is the child class. It p
 190:/Users/amc/git/libDaisy/src/hid/disp/display.h ****  *  implementations for most of the functions, except DrawPixel(), Update() and Fill(), which you'l
 191:/Users/amc/git/libDaisy/src/hid/disp/display.h ****  *  to provide in your child class.
 192:/Users/amc/git/libDaisy/src/hid/disp/display.h ****  *  The main goal of this class is to provide common drawing functions without relying on massive a
 193:/Users/amc/git/libDaisy/src/hid/disp/display.h ****  *  virtual function calls that would result in a performance loss. To achieve this, any drawing fu
 194:/Users/amc/git/libDaisy/src/hid/disp/display.h ****  *  is implemented here and internally calls other drawing functions (e.g. DrawRect() which interna
 195:/Users/amc/git/libDaisy/src/hid/disp/display.h ****  *  DrawPixel() and DrawLine()) makes these calls via the qualified name of these functions to expl
 196:/Users/amc/git/libDaisy/src/hid/disp/display.h ****  *  suppress the virtual dispatch mechanism like this:
 197:/Users/amc/git/libDaisy/src/hid/disp/display.h ****  * 
 198:/Users/amc/git/libDaisy/src/hid/disp/display.h ****  *      ChildType::DrawPixel(...); // no virtual function call; direct call into the child class fu
 199:/Users/amc/git/libDaisy/src/hid/disp/display.h ****  *  
 200:/Users/amc/git/libDaisy/src/hid/disp/display.h ****  *  To create a custom OneBitGraphicsDisplay implementation, you can 
ARM GAS  /var/folders/83/vwtnzcdn1v99b_lf0k0gsjzr0000gn/T//ccSBqmD1.s 			page 16


 201:/Users/amc/git/libDaisy/src/hid/disp/display.h ****  *  A) inherit from OneBitGraphicsDisplay directly and provide all the drawing functions yourself
 202:/Users/amc/git/libDaisy/src/hid/disp/display.h ****  *  B) Inherit from OneBitGraphicsDisplayImpl and only provide DrawPixel(), Fill() and Update()
 203:/Users/amc/git/libDaisy/src/hid/disp/display.h ****  *     like this:
 204:/Users/amc/git/libDaisy/src/hid/disp/display.h ****  *  
 205:/Users/amc/git/libDaisy/src/hid/disp/display.h ****  *      class MyDisplayClass : public OneBitGraphicsDisplayImpl<MyDisplayClass> 
 206:/Users/amc/git/libDaisy/src/hid/disp/display.h ****  *      {
 207:/Users/amc/git/libDaisy/src/hid/disp/display.h ****  *      public:
 208:/Users/amc/git/libDaisy/src/hid/disp/display.h ****  *          void Fill() override { ... };
 209:/Users/amc/git/libDaisy/src/hid/disp/display.h ****  *          void DrawPixel(uint_fast8_t x, uint_fast8_t y, bool on) override { ... };
 210:/Users/amc/git/libDaisy/src/hid/disp/display.h ****  *          void Update() override { ... }
 211:/Users/amc/git/libDaisy/src/hid/disp/display.h ****  *      };
 212:/Users/amc/git/libDaisy/src/hid/disp/display.h ****  *  
 213:/Users/amc/git/libDaisy/src/hid/disp/display.h ****  */
 214:/Users/amc/git/libDaisy/src/hid/disp/display.h **** template <class ChildType>
 215:/Users/amc/git/libDaisy/src/hid/disp/display.h **** class OneBitGraphicsDisplayImpl : public OneBitGraphicsDisplay
 216:/Users/amc/git/libDaisy/src/hid/disp/display.h **** {
 217:/Users/amc/git/libDaisy/src/hid/disp/display.h ****   public:
 218:/Users/amc/git/libDaisy/src/hid/disp/display.h ****     OneBitGraphicsDisplayImpl() {}
 219:/Users/amc/git/libDaisy/src/hid/disp/display.h ****     virtual ~OneBitGraphicsDisplayImpl() {}
  93              		.loc 8 219 13 view .LVU12
  94              	.LBB755:
  95              	.LBI755:
  23:/Users/amc/git/libDaisy/src/hid/disp/display.h **** 
  96              		.loc 8 23 13 view .LVU13
  23:/Users/amc/git/libDaisy/src/hid/disp/display.h **** 
  97              		.loc 8 23 13 is_stmt 0 view .LVU14
  98              	.LBE755:
  99              	.LBE754:
 100              	.LBE753:
 101              	.LBB756:
 102              	.LBI756:
 103              		.file 9 "/Users/amc/git/libDaisy/src/daisy_seed.h"
   1:/Users/amc/git/libDaisy/src/daisy_seed.h **** #pragma once
   2:/Users/amc/git/libDaisy/src/daisy_seed.h **** #ifndef DSY_SEED_H
   3:/Users/amc/git/libDaisy/src/daisy_seed.h **** #define DSY_SEED_H
   4:/Users/amc/git/libDaisy/src/daisy_seed.h **** 
   5:/Users/amc/git/libDaisy/src/daisy_seed.h **** #include "daisy.h"
   6:/Users/amc/git/libDaisy/src/daisy_seed.h **** 
   7:/Users/amc/git/libDaisy/src/daisy_seed.h **** //Uncomment this out if you're still using the rev2 hardware
   8:/Users/amc/git/libDaisy/src/daisy_seed.h **** //#define SEED_REV2
   9:/Users/amc/git/libDaisy/src/daisy_seed.h **** 
  10:/Users/amc/git/libDaisy/src/daisy_seed.h **** namespace daisy
  11:/Users/amc/git/libDaisy/src/daisy_seed.h **** {
  12:/Users/amc/git/libDaisy/src/daisy_seed.h **** /**
  13:/Users/amc/git/libDaisy/src/daisy_seed.h ****    @brief This is the higher-level interface for the Daisy board. \n 
  14:/Users/amc/git/libDaisy/src/daisy_seed.h ****     All basic peripheral configuration/initialization is setup here. \n
  15:/Users/amc/git/libDaisy/src/daisy_seed.h **** 
  16:/Users/amc/git/libDaisy/src/daisy_seed.h ****    @ingroup boards
  17:/Users/amc/git/libDaisy/src/daisy_seed.h **** */
  18:/Users/amc/git/libDaisy/src/daisy_seed.h **** class DaisySeed
  19:/Users/amc/git/libDaisy/src/daisy_seed.h **** {
  20:/Users/amc/git/libDaisy/src/daisy_seed.h ****   public:
  21:/Users/amc/git/libDaisy/src/daisy_seed.h ****     DaisySeed() {}
  22:/Users/amc/git/libDaisy/src/daisy_seed.h ****     ~DaisySeed() {}
 104              		.loc 9 22 5 is_stmt 1 view .LVU15
 105              	.LBB757:
 106              	.LBI757:
ARM GAS  /var/folders/83/vwtnzcdn1v99b_lf0k0gsjzr0000gn/T//ccSBqmD1.s 			page 17


 107              		.file 10 "/Users/amc/git/libDaisy/src/sys/system.h"
   1:/Users/amc/git/libDaisy/src/sys/system.h **** #ifndef DSY_SYSTEM_H
   2:/Users/amc/git/libDaisy/src/sys/system.h **** #define DSY_SYSTEM_H
   3:/Users/amc/git/libDaisy/src/sys/system.h **** 
   4:/Users/amc/git/libDaisy/src/sys/system.h **** #ifndef UNIT_TEST // for unit tests, a dummy implementation is provided below
   5:/Users/amc/git/libDaisy/src/sys/system.h **** 
   6:/Users/amc/git/libDaisy/src/sys/system.h **** #include <cstdint>
   7:/Users/amc/git/libDaisy/src/sys/system.h **** #include "per/tim.h"
   8:/Users/amc/git/libDaisy/src/sys/system.h **** 
   9:/Users/amc/git/libDaisy/src/sys/system.h **** namespace daisy
  10:/Users/amc/git/libDaisy/src/sys/system.h **** {
  11:/Users/amc/git/libDaisy/src/sys/system.h **** /** A handle for interacting with the Core System.
  12:/Users/amc/git/libDaisy/src/sys/system.h ****  ** This includes the Clock tree, MPU, global DMA initialization,
  13:/Users/amc/git/libDaisy/src/sys/system.h ****  ** cache handling, and any other necessary global initiailzation
  14:/Users/amc/git/libDaisy/src/sys/system.h ****  **
  15:/Users/amc/git/libDaisy/src/sys/system.h ****  ** @author shensley
  16:/Users/amc/git/libDaisy/src/sys/system.h ****  ** @ingroup system
  17:/Users/amc/git/libDaisy/src/sys/system.h ****  */
  18:/Users/amc/git/libDaisy/src/sys/system.h **** class System
  19:/Users/amc/git/libDaisy/src/sys/system.h **** {
  20:/Users/amc/git/libDaisy/src/sys/system.h ****   public:
  21:/Users/amc/git/libDaisy/src/sys/system.h ****     /** Contains settings for initializing the System */
  22:/Users/amc/git/libDaisy/src/sys/system.h ****     struct Config
  23:/Users/amc/git/libDaisy/src/sys/system.h ****     {
  24:/Users/amc/git/libDaisy/src/sys/system.h ****         /** Specifies the system clock frequency that feeds APB/AHB clocks, etc. */
  25:/Users/amc/git/libDaisy/src/sys/system.h ****         enum class SysClkFreq
  26:/Users/amc/git/libDaisy/src/sys/system.h ****         {
  27:/Users/amc/git/libDaisy/src/sys/system.h ****             FREQ_400MHZ,
  28:/Users/amc/git/libDaisy/src/sys/system.h ****             FREQ_480MHZ,
  29:/Users/amc/git/libDaisy/src/sys/system.h ****         };
  30:/Users/amc/git/libDaisy/src/sys/system.h **** 
  31:/Users/amc/git/libDaisy/src/sys/system.h ****         /** Method to call on the struct to set to defaults
  32:/Users/amc/git/libDaisy/src/sys/system.h ****          ** CPU Freq set to 400MHz
  33:/Users/amc/git/libDaisy/src/sys/system.h ****          ** Cache Enabled
  34:/Users/amc/git/libDaisy/src/sys/system.h ****          ** */
  35:/Users/amc/git/libDaisy/src/sys/system.h ****         void Defaults()
  36:/Users/amc/git/libDaisy/src/sys/system.h ****         {
  37:/Users/amc/git/libDaisy/src/sys/system.h ****             cpu_freq    = SysClkFreq::FREQ_400MHZ;
  38:/Users/amc/git/libDaisy/src/sys/system.h ****             use_dcache  = true;
  39:/Users/amc/git/libDaisy/src/sys/system.h ****             use_icache  = true;
  40:/Users/amc/git/libDaisy/src/sys/system.h ****             skip_clocks = false;
  41:/Users/amc/git/libDaisy/src/sys/system.h ****         }
  42:/Users/amc/git/libDaisy/src/sys/system.h **** 
  43:/Users/amc/git/libDaisy/src/sys/system.h ****         /** Method to call on the struct to set to boost mode:
  44:/Users/amc/git/libDaisy/src/sys/system.h ****          ** CPU Freq set to 480MHz
  45:/Users/amc/git/libDaisy/src/sys/system.h ****          ** Cache Enabled
  46:/Users/amc/git/libDaisy/src/sys/system.h ****          ** */
  47:/Users/amc/git/libDaisy/src/sys/system.h ****         void Boost()
  48:/Users/amc/git/libDaisy/src/sys/system.h ****         {
  49:/Users/amc/git/libDaisy/src/sys/system.h ****             cpu_freq    = SysClkFreq::FREQ_480MHZ;
  50:/Users/amc/git/libDaisy/src/sys/system.h ****             use_dcache  = true;
  51:/Users/amc/git/libDaisy/src/sys/system.h ****             use_icache  = true;
  52:/Users/amc/git/libDaisy/src/sys/system.h ****             skip_clocks = false;
  53:/Users/amc/git/libDaisy/src/sys/system.h ****         }
  54:/Users/amc/git/libDaisy/src/sys/system.h **** 
  55:/Users/amc/git/libDaisy/src/sys/system.h ****         SysClkFreq cpu_freq;
  56:/Users/amc/git/libDaisy/src/sys/system.h ****         bool       use_dcache;
ARM GAS  /var/folders/83/vwtnzcdn1v99b_lf0k0gsjzr0000gn/T//ccSBqmD1.s 			page 18


  57:/Users/amc/git/libDaisy/src/sys/system.h ****         bool       use_icache;
  58:/Users/amc/git/libDaisy/src/sys/system.h ****         bool       skip_clocks;
  59:/Users/amc/git/libDaisy/src/sys/system.h ****     };
  60:/Users/amc/git/libDaisy/src/sys/system.h **** 
  61:/Users/amc/git/libDaisy/src/sys/system.h ****     /** Describes the different regions of memory available to the Daisy */
  62:/Users/amc/git/libDaisy/src/sys/system.h ****     enum MemoryRegion
  63:/Users/amc/git/libDaisy/src/sys/system.h ****     {
  64:/Users/amc/git/libDaisy/src/sys/system.h ****         INTERNAL_FLASH = 0,
  65:/Users/amc/git/libDaisy/src/sys/system.h ****         ITCMRAM,
  66:/Users/amc/git/libDaisy/src/sys/system.h ****         DTCMRAM,
  67:/Users/amc/git/libDaisy/src/sys/system.h ****         SRAM_D1,
  68:/Users/amc/git/libDaisy/src/sys/system.h ****         SRAM_D2,
  69:/Users/amc/git/libDaisy/src/sys/system.h ****         SRAM_D3,
  70:/Users/amc/git/libDaisy/src/sys/system.h ****         SDRAM,
  71:/Users/amc/git/libDaisy/src/sys/system.h ****         QSPI,
  72:/Users/amc/git/libDaisy/src/sys/system.h ****         INVALID_ADDRESS,
  73:/Users/amc/git/libDaisy/src/sys/system.h ****     };
  74:/Users/amc/git/libDaisy/src/sys/system.h **** 
  75:/Users/amc/git/libDaisy/src/sys/system.h ****     /** Bootloader struct for controlling bootloading parameters */
  76:/Users/amc/git/libDaisy/src/sys/system.h ****     struct BootInfo
  77:/Users/amc/git/libDaisy/src/sys/system.h ****     {
  78:/Users/amc/git/libDaisy/src/sys/system.h ****         enum class Type : uint32_t
  79:/Users/amc/git/libDaisy/src/sys/system.h ****         {
  80:/Users/amc/git/libDaisy/src/sys/system.h ****             INVALID      = 0x00000000,
  81:/Users/amc/git/libDaisy/src/sys/system.h ****             JUMP         = 0xDEADBEEF,
  82:/Users/amc/git/libDaisy/src/sys/system.h ****             SKIP_TIMEOUT = 0x5AFEB007,
  83:/Users/amc/git/libDaisy/src/sys/system.h ****             INF_TIMEOUT  = 0xB0074EFA,
  84:/Users/amc/git/libDaisy/src/sys/system.h ****         } status;
  85:/Users/amc/git/libDaisy/src/sys/system.h ****         uint32_t data;
  86:/Users/amc/git/libDaisy/src/sys/system.h ****         enum class Version : uint32_t
  87:/Users/amc/git/libDaisy/src/sys/system.h ****         {
  88:/Users/amc/git/libDaisy/src/sys/system.h ****             LT_v6_0 = 0, // Less than v6.0
  89:/Users/amc/git/libDaisy/src/sys/system.h ****             NONE,        // No bootloader present
  90:/Users/amc/git/libDaisy/src/sys/system.h ****             v6_0,        // v6.0
  91:/Users/amc/git/libDaisy/src/sys/system.h ****             v6_1,        // v6.1 or greater
  92:/Users/amc/git/libDaisy/src/sys/system.h ****             LAST
  93:/Users/amc/git/libDaisy/src/sys/system.h ****         } version;
  94:/Users/amc/git/libDaisy/src/sys/system.h ****     };
  95:/Users/amc/git/libDaisy/src/sys/system.h **** 
  96:/Users/amc/git/libDaisy/src/sys/system.h ****     System() {}
  97:/Users/amc/git/libDaisy/src/sys/system.h ****     ~System() {}
 108              		.loc 10 97 5 view .LVU16
 109              		.loc 10 97 5 is_stmt 0 view .LVU17
 110              	.LBE757:
 111              	.LBB758:
 112              	.LBI758:
 113              		.file 11 "/Users/amc/git/libDaisy/src/hid/usb.h"
   1:/Users/amc/git/libDaisy/src/hid/usb.h **** #pragma once
   2:/Users/amc/git/libDaisy/src/hid/usb.h **** #ifndef DSY_HID_USB_H
   3:/Users/amc/git/libDaisy/src/hid/usb.h **** #define DSY_HID_USB_H
   4:/Users/amc/git/libDaisy/src/hid/usb.h **** #include <stdint.h>
   5:/Users/amc/git/libDaisy/src/hid/usb.h **** #include <stdlib.h>
   6:/Users/amc/git/libDaisy/src/hid/usb.h **** 
   7:/Users/amc/git/libDaisy/src/hid/usb.h **** namespace daisy
   8:/Users/amc/git/libDaisy/src/hid/usb.h **** /** @addtogroup human_interface
   9:/Users/amc/git/libDaisy/src/hid/usb.h ****     @{
  10:/Users/amc/git/libDaisy/src/hid/usb.h **** */
ARM GAS  /var/folders/83/vwtnzcdn1v99b_lf0k0gsjzr0000gn/T//ccSBqmD1.s 			page 19


  11:/Users/amc/git/libDaisy/src/hid/usb.h **** 
  12:/Users/amc/git/libDaisy/src/hid/usb.h **** {
  13:/Users/amc/git/libDaisy/src/hid/usb.h **** /** 
  14:/Users/amc/git/libDaisy/src/hid/usb.h ****     @brief Interface for initializing and using the USB Peripherals on the daisy
  15:/Users/amc/git/libDaisy/src/hid/usb.h ****     @author Stephen Hensley
  16:/Users/amc/git/libDaisy/src/hid/usb.h ****     @date December 2019
  17:/Users/amc/git/libDaisy/src/hid/usb.h **** */
  18:/Users/amc/git/libDaisy/src/hid/usb.h **** class UsbHandle
  19:/Users/amc/git/libDaisy/src/hid/usb.h **** {
  20:/Users/amc/git/libDaisy/src/hid/usb.h ****   public:
  21:/Users/amc/git/libDaisy/src/hid/usb.h ****     /** Return values for USBHandle Functions */
  22:/Users/amc/git/libDaisy/src/hid/usb.h ****     enum class Result
  23:/Users/amc/git/libDaisy/src/hid/usb.h ****     {
  24:/Users/amc/git/libDaisy/src/hid/usb.h ****         OK,
  25:/Users/amc/git/libDaisy/src/hid/usb.h ****         ERR,
  26:/Users/amc/git/libDaisy/src/hid/usb.h ****     };
  27:/Users/amc/git/libDaisy/src/hid/usb.h **** 
  28:/Users/amc/git/libDaisy/src/hid/usb.h ****     /** Specified which of the two USB Peripherals to initialize. */
  29:/Users/amc/git/libDaisy/src/hid/usb.h ****     enum UsbPeriph
  30:/Users/amc/git/libDaisy/src/hid/usb.h ****     {
  31:/Users/amc/git/libDaisy/src/hid/usb.h ****         FS_INTERNAL, /**< Internal pin */
  32:/Users/amc/git/libDaisy/src/hid/usb.h ****         FS_EXTERNAL, /**< FS External D+ pin is Pin 38 (GPIO32). FS External D- pin is Pin 37 (GPIO
  33:/Users/amc/git/libDaisy/src/hid/usb.h ****         FS_BOTH,     /**< Both */
  34:/Users/amc/git/libDaisy/src/hid/usb.h ****     };
  35:/Users/amc/git/libDaisy/src/hid/usb.h **** 
  36:/Users/amc/git/libDaisy/src/hid/usb.h **** 
  37:/Users/amc/git/libDaisy/src/hid/usb.h ****     /** Function called upon reception of a buffer */
  38:/Users/amc/git/libDaisy/src/hid/usb.h ****     typedef void (*ReceiveCallback)(uint8_t* buff, uint32_t* len);
  39:/Users/amc/git/libDaisy/src/hid/usb.h **** 
  40:/Users/amc/git/libDaisy/src/hid/usb.h ****     UsbHandle() {}
  41:/Users/amc/git/libDaisy/src/hid/usb.h **** 
  42:/Users/amc/git/libDaisy/src/hid/usb.h ****     ~UsbHandle() {}
 114              		.loc 11 42 5 is_stmt 1 view .LVU18
 115              		.loc 11 42 5 is_stmt 0 view .LVU19
 116              	.LBE758:
 117              	.LBB759:
 118              	.LBI759:
 119              		.file 12 "/Users/amc/git/libDaisy/src/per/adc.h"
   1:/Users/amc/git/libDaisy/src/per/adc.h **** #pragma once
   2:/Users/amc/git/libDaisy/src/per/adc.h **** #ifndef DSY_ADC_H
   3:/Users/amc/git/libDaisy/src/per/adc.h **** #define DSY_ADC_H /**< Macro */
   4:/Users/amc/git/libDaisy/src/per/adc.h **** #include <stdint.h>
   5:/Users/amc/git/libDaisy/src/per/adc.h **** #include <stdlib.h>
   6:/Users/amc/git/libDaisy/src/per/adc.h **** #include "daisy_core.h"
   7:/Users/amc/git/libDaisy/src/per/adc.h **** #include "per/gpio.h"
   8:/Users/amc/git/libDaisy/src/per/adc.h **** 
   9:/Users/amc/git/libDaisy/src/per/adc.h **** #define DSY_ADC_MAX_CHANNELS 16 /**< Maximum number of ADC channels */
  10:/Users/amc/git/libDaisy/src/per/adc.h **** 
  11:/Users/amc/git/libDaisy/src/per/adc.h **** namespace daisy
  12:/Users/amc/git/libDaisy/src/per/adc.h **** {
  13:/Users/amc/git/libDaisy/src/per/adc.h **** /** @addtogroup per_analog
  14:/Users/amc/git/libDaisy/src/per/adc.h ****     @{
  15:/Users/amc/git/libDaisy/src/per/adc.h **** */
  16:/Users/amc/git/libDaisy/src/per/adc.h **** 
  17:/Users/amc/git/libDaisy/src/per/adc.h **** /* While there may not be many configuration options here,
  18:/Users/amc/git/libDaisy/src/per/adc.h **** using a struct like this allows us to add more configuration
  19:/Users/amc/git/libDaisy/src/per/adc.h **** later without breaking existing functionality.
ARM GAS  /var/folders/83/vwtnzcdn1v99b_lf0k0gsjzr0000gn/T//ccSBqmD1.s 			page 20


  20:/Users/amc/git/libDaisy/src/per/adc.h **** */
  21:/Users/amc/git/libDaisy/src/per/adc.h **** 
  22:/Users/amc/git/libDaisy/src/per/adc.h **** /** @brief   Configuration Structure for an ADC Channel 
  23:/Users/amc/git/libDaisy/src/per/adc.h ****  *  @details This can be used to configure a a single input, 
  24:/Users/amc/git/libDaisy/src/per/adc.h ****  *           or a multiplexed input, allowing up to 8 inputs on 
  25:/Users/amc/git/libDaisy/src/per/adc.h ****  *           one channel.
  26:/Users/amc/git/libDaisy/src/per/adc.h ****  *  @note    Sharing data lines to multiple muxes _is_ possible, but
  27:/Users/amc/git/libDaisy/src/per/adc.h ****  *           each channel sharing data lines must be set to the maximum
  28:/Users/amc/git/libDaisy/src/per/adc.h ****  *           number of channels, even if some multiplexers have fewer
  29:/Users/amc/git/libDaisy/src/per/adc.h ****  *           inputs connected.
  30:/Users/amc/git/libDaisy/src/per/adc.h **** */
  31:/Users/amc/git/libDaisy/src/per/adc.h **** struct AdcChannelConfig
  32:/Users/amc/git/libDaisy/src/per/adc.h **** {
  33:/Users/amc/git/libDaisy/src/per/adc.h ****     /** Which pin to use for multiplexing */
  34:/Users/amc/git/libDaisy/src/per/adc.h ****     enum MuxPin
  35:/Users/amc/git/libDaisy/src/per/adc.h ****     {
  36:/Users/amc/git/libDaisy/src/per/adc.h ****         MUX_SEL_0,    /**< & */
  37:/Users/amc/git/libDaisy/src/per/adc.h ****         MUX_SEL_1,    /**< & */
  38:/Users/amc/git/libDaisy/src/per/adc.h ****         MUX_SEL_2,    /**< & */
  39:/Users/amc/git/libDaisy/src/per/adc.h ****         MUX_SEL_LAST, /**< & */
  40:/Users/amc/git/libDaisy/src/per/adc.h ****     };
  41:/Users/amc/git/libDaisy/src/per/adc.h **** 
  42:/Users/amc/git/libDaisy/src/per/adc.h ****     /** \brief per channel conversion speed added to fixed time based on bitdepth, etc. */
  43:/Users/amc/git/libDaisy/src/per/adc.h ****     enum ConversionSpeed
  44:/Users/amc/git/libDaisy/src/per/adc.h ****     {
  45:/Users/amc/git/libDaisy/src/per/adc.h ****         SPEED_1CYCLES_5,
  46:/Users/amc/git/libDaisy/src/per/adc.h ****         SPEED_2CYCLES_5,
  47:/Users/amc/git/libDaisy/src/per/adc.h ****         SPEED_8CYCLES_5,
  48:/Users/amc/git/libDaisy/src/per/adc.h ****         SPEED_16CYCLES_5,
  49:/Users/amc/git/libDaisy/src/per/adc.h ****         SPEED_32CYCLES_5,
  50:/Users/amc/git/libDaisy/src/per/adc.h ****         SPEED_64CYCLES_5,
  51:/Users/amc/git/libDaisy/src/per/adc.h ****         SPEED_387CYCLES_5,
  52:/Users/amc/git/libDaisy/src/per/adc.h ****         SPEED_810CYCLES_5,
  53:/Users/amc/git/libDaisy/src/per/adc.h ****     };
  54:/Users/amc/git/libDaisy/src/per/adc.h **** 
  55:/Users/amc/git/libDaisy/src/per/adc.h ****     /** Initializes a single ADC pin as an ADC. 
  56:/Users/amc/git/libDaisy/src/per/adc.h ****     \param pin Pin to init.
  57:/Users/amc/git/libDaisy/src/per/adc.h ****     \param speed conversion speed for this pin defaults to 8.5 cycles
  58:/Users/amc/git/libDaisy/src/per/adc.h ****      */
  59:/Users/amc/git/libDaisy/src/per/adc.h ****     void InitSingle(dsy_gpio_pin pin, ConversionSpeed speed = SPEED_8CYCLES_5);
  60:/Users/amc/git/libDaisy/src/per/adc.h **** 
  61:/Users/amc/git/libDaisy/src/per/adc.h ****     /** 
  62:/Users/amc/git/libDaisy/src/per/adc.h ****     Initializes a single ADC pin as a Multiplexed ADC.
  63:/Users/amc/git/libDaisy/src/per/adc.h ****     Requires a CD405X Multiplexer connected to the pin.
  64:/Users/amc/git/libDaisy/src/per/adc.h ****     You only need to supply the mux pins that are required,
  65:/Users/amc/git/libDaisy/src/per/adc.h ****     e.g. a 4052 mux would only require mux_0 and mux_1.
  66:/Users/amc/git/libDaisy/src/per/adc.h ****     Internal Callbacks handle the pin addressing.
  67:/Users/amc/git/libDaisy/src/per/adc.h ****     \param adc_pin &
  68:/Users/amc/git/libDaisy/src/per/adc.h ****     \param mux_channels must be 1-8
  69:/Users/amc/git/libDaisy/src/per/adc.h ****     \param mux_0 First mux pin
  70:/Users/amc/git/libDaisy/src/per/adc.h ****     \param mux_1 Second mux pin
  71:/Users/amc/git/libDaisy/src/per/adc.h ****     \param mux_2 Third mux pin
  72:/Users/amc/git/libDaisy/src/per/adc.h ****     \param speed conversion speed for this pin defaults to 8.5 cycles
  73:/Users/amc/git/libDaisy/src/per/adc.h ****     */
  74:/Users/amc/git/libDaisy/src/per/adc.h ****     void InitMux(dsy_gpio_pin    adc_pin,
  75:/Users/amc/git/libDaisy/src/per/adc.h ****                  size_t          mux_channels,
  76:/Users/amc/git/libDaisy/src/per/adc.h ****                  dsy_gpio_pin    mux_0,
ARM GAS  /var/folders/83/vwtnzcdn1v99b_lf0k0gsjzr0000gn/T//ccSBqmD1.s 			page 21


  77:/Users/amc/git/libDaisy/src/per/adc.h ****                  dsy_gpio_pin    mux_1 = {DSY_GPIOX, 0},
  78:/Users/amc/git/libDaisy/src/per/adc.h ****                  dsy_gpio_pin    mux_2 = {DSY_GPIOX, 0},
  79:/Users/amc/git/libDaisy/src/per/adc.h ****                  ConversionSpeed speed = SPEED_8CYCLES_5);
  80:/Users/amc/git/libDaisy/src/per/adc.h **** 
  81:/Users/amc/git/libDaisy/src/per/adc.h ****     dsy_gpio        pin_;                   /**< & */
  82:/Users/amc/git/libDaisy/src/per/adc.h ****     dsy_gpio        mux_pin_[MUX_SEL_LAST]; /**< & */
  83:/Users/amc/git/libDaisy/src/per/adc.h ****     uint8_t         mux_channels_;          /**< & */
  84:/Users/amc/git/libDaisy/src/per/adc.h ****     ConversionSpeed speed_;
  85:/Users/amc/git/libDaisy/src/per/adc.h **** };
  86:/Users/amc/git/libDaisy/src/per/adc.h **** 
  87:/Users/amc/git/libDaisy/src/per/adc.h **** /**
  88:/Users/amc/git/libDaisy/src/per/adc.h ****    @brief Handler for analog to digital conversion
  89:/Users/amc/git/libDaisy/src/per/adc.h **** */
  90:/Users/amc/git/libDaisy/src/per/adc.h **** class AdcHandle
  91:/Users/amc/git/libDaisy/src/per/adc.h **** {
  92:/Users/amc/git/libDaisy/src/per/adc.h ****   public:
  93:/Users/amc/git/libDaisy/src/per/adc.h ****     /** Supported oversampling amounts */
  94:/Users/amc/git/libDaisy/src/per/adc.h ****     enum OverSampling
  95:/Users/amc/git/libDaisy/src/per/adc.h ****     {
  96:/Users/amc/git/libDaisy/src/per/adc.h ****         OVS_NONE, /**< & */
  97:/Users/amc/git/libDaisy/src/per/adc.h ****         OVS_4,    /**< & */
  98:/Users/amc/git/libDaisy/src/per/adc.h ****         OVS_8,    /**< & */
  99:/Users/amc/git/libDaisy/src/per/adc.h ****         OVS_16,   /**< & */
 100:/Users/amc/git/libDaisy/src/per/adc.h ****         OVS_32,   /**< & */
 101:/Users/amc/git/libDaisy/src/per/adc.h ****         OVS_64,   /**< & */
 102:/Users/amc/git/libDaisy/src/per/adc.h ****         OVS_128,  /**< & */
 103:/Users/amc/git/libDaisy/src/per/adc.h ****         OVS_256,  /**< & */
 104:/Users/amc/git/libDaisy/src/per/adc.h ****         OVS_512,  /**< & */
 105:/Users/amc/git/libDaisy/src/per/adc.h ****         OVS_1024, /**< & */
 106:/Users/amc/git/libDaisy/src/per/adc.h ****         OVS_LAST, /**< & */
 107:/Users/amc/git/libDaisy/src/per/adc.h ****     };
 108:/Users/amc/git/libDaisy/src/per/adc.h **** 
 109:/Users/amc/git/libDaisy/src/per/adc.h ****     AdcHandle() {}
 110:/Users/amc/git/libDaisy/src/per/adc.h ****     ~AdcHandle() {}
 120              		.loc 12 110 5 is_stmt 1 view .LVU20
 121              		.loc 12 110 5 is_stmt 0 view .LVU21
 122              	.LBE759:
 123              	.LBB760:
 124              	.LBI760:
 125              		.file 13 "/Users/amc/git/libDaisy/src/hid/audio.h"
   1:/Users/amc/git/libDaisy/src/hid/audio.h **** #ifndef DSY_AUDIO_H
   2:/Users/amc/git/libDaisy/src/hid/audio.h **** #define DSY_AUDIO_H /**< & */
   3:/Users/amc/git/libDaisy/src/hid/audio.h **** 
   4:/Users/amc/git/libDaisy/src/hid/audio.h **** #include "per/sai.h"
   5:/Users/amc/git/libDaisy/src/hid/audio.h **** 
   6:/Users/amc/git/libDaisy/src/hid/audio.h **** namespace daisy
   7:/Users/amc/git/libDaisy/src/hid/audio.h **** {
   8:/Users/amc/git/libDaisy/src/hid/audio.h **** /** @brief Audio Engine Handle
   9:/Users/amc/git/libDaisy/src/hid/audio.h ****  *  @ingroup audio 
  10:/Users/amc/git/libDaisy/src/hid/audio.h ****  *  @details This class allows for higher level access to an audio engine.
  11:/Users/amc/git/libDaisy/src/hid/audio.h ****  *           If you're using a SOM like the DaisySeed or DaisyPatchSM (or any 
  12:/Users/amc/git/libDaisy/src/hid/audio.h ****  *            board that includes one of those objects) then the intialization
  13:/Users/amc/git/libDaisy/src/hid/audio.h ****  *            is already taken  care of.
  14:/Users/amc/git/libDaisy/src/hid/audio.h ****  *           If you're setting up your own custom hardware, or need to make changes
  15:/Users/amc/git/libDaisy/src/hid/audio.h ****  *           you will have to take the following steps:
  16:/Users/amc/git/libDaisy/src/hid/audio.h ****  *             1. Create and Initialize an SaiHandle or two depending on your requirements
  17:/Users/amc/git/libDaisy/src/hid/audio.h ****  *             2. Initialize the Audio Handle with the desired settings and the Initialized SaiHand
ARM GAS  /var/folders/83/vwtnzcdn1v99b_lf0k0gsjzr0000gn/T//ccSBqmD1.s 			page 22


  18:/Users/amc/git/libDaisy/src/hid/audio.h ****  *             3. If the connected codec requires special configuration or initialization, do so
  19:/Users/amc/git/libDaisy/src/hid/audio.h ****  *             4. Write a callback method using either the AudioCallback or the InterleavingAudioCa
  20:/Users/amc/git/libDaisy/src/hid/audio.h ****  *             5. Start the Audio using one of the StartAudio function
  21:/Users/amc/git/libDaisy/src/hid/audio.h ****  */
  22:/Users/amc/git/libDaisy/src/hid/audio.h **** class AudioHandle
  23:/Users/amc/git/libDaisy/src/hid/audio.h **** {
  24:/Users/amc/git/libDaisy/src/hid/audio.h ****   public:
  25:/Users/amc/git/libDaisy/src/hid/audio.h ****     /** Manually configurable details about the Audio Engine */
  26:/Users/amc/git/libDaisy/src/hid/audio.h ****     /** TODO: Figure out how to get samplerate in here. */
  27:/Users/amc/git/libDaisy/src/hid/audio.h ****     struct Config
  28:/Users/amc/git/libDaisy/src/hid/audio.h ****     {
  29:/Users/amc/git/libDaisy/src/hid/audio.h ****         /** number of samples to process per callback */
  30:/Users/amc/git/libDaisy/src/hid/audio.h ****         size_t blocksize;
  31:/Users/amc/git/libDaisy/src/hid/audio.h **** 
  32:/Users/amc/git/libDaisy/src/hid/audio.h ****         /**< Sample rate of audio */
  33:/Users/amc/git/libDaisy/src/hid/audio.h ****         SaiHandle::Config::SampleRate samplerate;
  34:/Users/amc/git/libDaisy/src/hid/audio.h **** 
  35:/Users/amc/git/libDaisy/src/hid/audio.h ****         /** factor for adjustment before and after callback for hardware that may have extra headro
  36:/Users/amc/git/libDaisy/src/hid/audio.h ****         float postgain;
  37:/Users/amc/git/libDaisy/src/hid/audio.h **** 
  38:/Users/amc/git/libDaisy/src/hid/audio.h ****         /** factor for additional one-sided compensation to audio path for hardware that may
  39:/Users/amc/git/libDaisy/src/hid/audio.h ****          *  have unequal input/output ranges
  40:/Users/amc/git/libDaisy/src/hid/audio.h ****          */
  41:/Users/amc/git/libDaisy/src/hid/audio.h ****         float output_compensation;
  42:/Users/amc/git/libDaisy/src/hid/audio.h **** 
  43:/Users/amc/git/libDaisy/src/hid/audio.h ****         /** Sets default values for config struct */
  44:/Users/amc/git/libDaisy/src/hid/audio.h ****         Config()
  45:/Users/amc/git/libDaisy/src/hid/audio.h ****         : blocksize(48),
  46:/Users/amc/git/libDaisy/src/hid/audio.h ****           samplerate(SaiHandle::Config::SampleRate::SAI_48KHZ),
  47:/Users/amc/git/libDaisy/src/hid/audio.h ****           postgain(1.f),
  48:/Users/amc/git/libDaisy/src/hid/audio.h ****           output_compensation(1.f)
  49:/Users/amc/git/libDaisy/src/hid/audio.h ****         {
  50:/Users/amc/git/libDaisy/src/hid/audio.h ****         }
  51:/Users/amc/git/libDaisy/src/hid/audio.h ****     };
  52:/Users/amc/git/libDaisy/src/hid/audio.h **** 
  53:/Users/amc/git/libDaisy/src/hid/audio.h ****     enum class Result
  54:/Users/amc/git/libDaisy/src/hid/audio.h ****     {
  55:/Users/amc/git/libDaisy/src/hid/audio.h ****         OK,
  56:/Users/amc/git/libDaisy/src/hid/audio.h ****         ERR,
  57:/Users/amc/git/libDaisy/src/hid/audio.h ****     };
  58:/Users/amc/git/libDaisy/src/hid/audio.h **** 
  59:/Users/amc/git/libDaisy/src/hid/audio.h ****     /** Non-Interleaving input buffer
  60:/Users/amc/git/libDaisy/src/hid/audio.h ****      * Buffer arranged by float[chn][sample] 
  61:/Users/amc/git/libDaisy/src/hid/audio.h ****      * const so that the user can't modify the input
  62:/Users/amc/git/libDaisy/src/hid/audio.h ****      */
  63:/Users/amc/git/libDaisy/src/hid/audio.h ****     typedef const float* const* InputBuffer;
  64:/Users/amc/git/libDaisy/src/hid/audio.h **** 
  65:/Users/amc/git/libDaisy/src/hid/audio.h ****     /** Non-Interleaving output buffer
  66:/Users/amc/git/libDaisy/src/hid/audio.h ****      * Arranged by float[chn][sample] 
  67:/Users/amc/git/libDaisy/src/hid/audio.h ****      */
  68:/Users/amc/git/libDaisy/src/hid/audio.h ****     typedef float** OutputBuffer;
  69:/Users/amc/git/libDaisy/src/hid/audio.h **** 
  70:/Users/amc/git/libDaisy/src/hid/audio.h ****     /** Type for a Non-Interleaving audio callback 
  71:/Users/amc/git/libDaisy/src/hid/audio.h ****      * Non-Interleaving audio callbacks in daisy will be of this type
  72:/Users/amc/git/libDaisy/src/hid/audio.h ****      */
  73:/Users/amc/git/libDaisy/src/hid/audio.h ****     typedef void (*AudioCallback)(InputBuffer  in,
  74:/Users/amc/git/libDaisy/src/hid/audio.h ****                                   OutputBuffer out,
ARM GAS  /var/folders/83/vwtnzcdn1v99b_lf0k0gsjzr0000gn/T//ccSBqmD1.s 			page 23


  75:/Users/amc/git/libDaisy/src/hid/audio.h ****                                   size_t       size);
  76:/Users/amc/git/libDaisy/src/hid/audio.h **** 
  77:/Users/amc/git/libDaisy/src/hid/audio.h ****     /** Interleaving Input buffer
  78:/Users/amc/git/libDaisy/src/hid/audio.h ****      ** audio is prepared as { L0, R0, L1, R1, . . . LN, RN }]
  79:/Users/amc/git/libDaisy/src/hid/audio.h ****      ** this is const, as the user shouldn't modify it
  80:/Users/amc/git/libDaisy/src/hid/audio.h ****     */
  81:/Users/amc/git/libDaisy/src/hid/audio.h ****     typedef const float* InterleavingInputBuffer;
  82:/Users/amc/git/libDaisy/src/hid/audio.h **** 
  83:/Users/amc/git/libDaisy/src/hid/audio.h ****     /** Interleaving Output buffer 
  84:/Users/amc/git/libDaisy/src/hid/audio.h ****      ** audio is prepared as { L0, R0, L1, R1, . . . LN, RN }
  85:/Users/amc/git/libDaisy/src/hid/audio.h ****     */
  86:/Users/amc/git/libDaisy/src/hid/audio.h ****     typedef float* InterleavingOutputBuffer;
  87:/Users/amc/git/libDaisy/src/hid/audio.h **** 
  88:/Users/amc/git/libDaisy/src/hid/audio.h ****     /** Interleaving Audio Callback 
  89:/Users/amc/git/libDaisy/src/hid/audio.h ****      * Interleaving audio callbacks in daisy must be of this type
  90:/Users/amc/git/libDaisy/src/hid/audio.h ****      */
  91:/Users/amc/git/libDaisy/src/hid/audio.h ****     typedef void (*InterleavingAudioCallback)(InterleavingInputBuffer  in,
  92:/Users/amc/git/libDaisy/src/hid/audio.h ****                                               InterleavingOutputBuffer out,
  93:/Users/amc/git/libDaisy/src/hid/audio.h ****                                               size_t                   size);
  94:/Users/amc/git/libDaisy/src/hid/audio.h **** 
  95:/Users/amc/git/libDaisy/src/hid/audio.h ****     AudioHandle() : pimpl_(nullptr) {}
  96:/Users/amc/git/libDaisy/src/hid/audio.h ****     ~AudioHandle() {}
 126              		.loc 13 96 5 is_stmt 1 view .LVU22
 127              		.loc 13 96 5 is_stmt 0 view .LVU23
 128              	.LBE760:
 129              	.LBE756:
 130              		.loc 3 47 14 view .LVU24
 131 0000 7047     		bx	lr
 132              		.cfi_endproc
 133              	.LFE6358:
 135              		.weak	_ZN3amc5PedalD1Ev
 136              		.thumb_set _ZN3amc5PedalD1Ev,_ZN3amc5PedalD2Ev
 137 0002 00BF     		.section	.text._ZN5daisy11OledDisplayINS_13SSD130xDriverILj128ELj64ENS_24SSD130x4WireSpiTransportE
 138              		.align	1
 139              		.p2align 2,,3
 140              		.weak	_ZN5daisy11OledDisplayINS_13SSD130xDriverILj128ELj64ENS_24SSD130x4WireSpiTransportEEEED2Ev
 141              		.syntax unified
 142              		.thumb
 143              		.thumb_func
 145              	_ZN5daisy11OledDisplayINS_13SSD130xDriverILj128ELj64ENS_24SSD130x4WireSpiTransportEEEED2Ev:
 146              	.LVL2:
 147              	.LFB6765:
 148              		.loc 7 18 13 is_stmt 1 view -0
 149              		.cfi_startproc
 150              		@ args = 0, pretend = 0, frame = 0
 151              		@ frame_needed = 0, uses_anonymous_args = 0
 152              		@ link register save eliminated.
 153              	.LBB761:
 154              	.LBI761:
 155              		.loc 8 219 13 view .LVU26
 156              	.LBB762:
 157              	.LBI762:
  23:/Users/amc/git/libDaisy/src/hid/disp/display.h **** 
 158              		.loc 8 23 13 view .LVU27
  23:/Users/amc/git/libDaisy/src/hid/disp/display.h **** 
 159              		.loc 8 23 13 is_stmt 0 view .LVU28
 160              	.LBE762:
ARM GAS  /var/folders/83/vwtnzcdn1v99b_lf0k0gsjzr0000gn/T//ccSBqmD1.s 			page 24


 161              	.LBE761:
 162              		.loc 7 18 29 view .LVU29
 163 0000 7047     		bx	lr
 164              		.cfi_endproc
 165              	.LFE6765:
 167              		.weak	_ZN5daisy11OledDisplayINS_13SSD130xDriverILj128ELj64ENS_24SSD130x4WireSpiTransportEEEED1Ev
 168              		.thumb_set _ZN5daisy11OledDisplayINS_13SSD130xDriverILj128ELj64ENS_24SSD130x4WireSpiTransportEEEED
 169 0002 00BF     		.section	.text._ZN5daisy11OledDisplayINS_13SSD130xDriverILj128ELj64ENS_24SSD130x4WireSpiTransportE
 170              		.align	1
 171              		.p2align 2,,3
 172              		.weak	_ZN5daisy11OledDisplayINS_13SSD130xDriverILj128ELj64ENS_24SSD130x4WireSpiTransportEEEE4FillE
 173              		.syntax unified
 174              		.thumb
 175              		.thumb_func
 177              	_ZN5daisy11OledDisplayINS_13SSD130xDriverILj128ELj64ENS_24SSD130x4WireSpiTransportEEEE4FillEb:
 178              	.LVL3:
 179              	.LFB6788:
  19:/Users/amc/git/libDaisy/src/hid/disp/oled_display.h **** 
  20:/Users/amc/git/libDaisy/src/hid/disp/oled_display.h ****     struct Config
  21:/Users/amc/git/libDaisy/src/hid/disp/oled_display.h ****     {
  22:/Users/amc/git/libDaisy/src/hid/disp/oled_display.h ****         typename DisplayDriver::Config driver_config;
  23:/Users/amc/git/libDaisy/src/hid/disp/oled_display.h ****     };
  24:/Users/amc/git/libDaisy/src/hid/disp/oled_display.h **** 
  25:/Users/amc/git/libDaisy/src/hid/disp/oled_display.h ****     void Init(Config config) { driver_.Init(config.driver_config); }
  26:/Users/amc/git/libDaisy/src/hid/disp/oled_display.h **** 
  27:/Users/amc/git/libDaisy/src/hid/disp/oled_display.h ****     uint16_t Height() const override { return driver_.Height(); }
  28:/Users/amc/git/libDaisy/src/hid/disp/oled_display.h ****     uint16_t Width() const override { return driver_.Width(); }
  29:/Users/amc/git/libDaisy/src/hid/disp/oled_display.h **** 
  30:/Users/amc/git/libDaisy/src/hid/disp/oled_display.h ****     /** 
  31:/Users/amc/git/libDaisy/src/hid/disp/oled_display.h ****     Fills the entire display with either on/off.
  32:/Users/amc/git/libDaisy/src/hid/disp/oled_display.h ****     \param on Sets on or off.
  33:/Users/amc/git/libDaisy/src/hid/disp/oled_display.h ****     */
  34:/Users/amc/git/libDaisy/src/hid/disp/oled_display.h ****     void Fill(bool on) override { driver_.Fill(on); }
 180              		.loc 7 34 10 is_stmt 1 view -0
 181              		.cfi_startproc
 182              		@ args = 0, pretend = 0, frame = 0
 183              		@ frame_needed = 0, uses_anonymous_args = 0
 184              		@ link register save eliminated.
 185              	.LBB763:
 186              	.LBI763:
 187              		.file 14 "/Users/amc/git/libDaisy/src/dev/oled_ssd130x.h"
   1:/Users/amc/git/libDaisy/src/dev/oled_ssd130x.h **** #pragma once
   2:/Users/amc/git/libDaisy/src/dev/oled_ssd130x.h **** #ifndef SA_OLED_SSD130X_H
   3:/Users/amc/git/libDaisy/src/dev/oled_ssd130x.h **** #define SA_OLED_SSD130X_H /**< & */
   4:/Users/amc/git/libDaisy/src/dev/oled_ssd130x.h **** 
   5:/Users/amc/git/libDaisy/src/dev/oled_ssd130x.h **** #include "per/i2c.h"
   6:/Users/amc/git/libDaisy/src/dev/oled_ssd130x.h **** #include "per/spi.h"
   7:/Users/amc/git/libDaisy/src/dev/oled_ssd130x.h **** #include "per/gpio.h"
   8:/Users/amc/git/libDaisy/src/dev/oled_ssd130x.h **** #include "sys/system.h"
   9:/Users/amc/git/libDaisy/src/dev/oled_ssd130x.h **** 
  10:/Users/amc/git/libDaisy/src/dev/oled_ssd130x.h **** namespace daisy
  11:/Users/amc/git/libDaisy/src/dev/oled_ssd130x.h **** {
  12:/Users/amc/git/libDaisy/src/dev/oled_ssd130x.h **** /**
  13:/Users/amc/git/libDaisy/src/dev/oled_ssd130x.h ****  * I2C Transport for SSD1306 / SSD1309 OLED display devices
  14:/Users/amc/git/libDaisy/src/dev/oled_ssd130x.h ****  */
  15:/Users/amc/git/libDaisy/src/dev/oled_ssd130x.h **** class SSD130xI2CTransport
  16:/Users/amc/git/libDaisy/src/dev/oled_ssd130x.h **** {
ARM GAS  /var/folders/83/vwtnzcdn1v99b_lf0k0gsjzr0000gn/T//ccSBqmD1.s 			page 25


  17:/Users/amc/git/libDaisy/src/dev/oled_ssd130x.h ****   public:
  18:/Users/amc/git/libDaisy/src/dev/oled_ssd130x.h ****     struct Config
  19:/Users/amc/git/libDaisy/src/dev/oled_ssd130x.h ****     {
  20:/Users/amc/git/libDaisy/src/dev/oled_ssd130x.h ****         Config()
  21:/Users/amc/git/libDaisy/src/dev/oled_ssd130x.h ****         {
  22:/Users/amc/git/libDaisy/src/dev/oled_ssd130x.h ****             // Intialize using defaults
  23:/Users/amc/git/libDaisy/src/dev/oled_ssd130x.h ****             Defaults();
  24:/Users/amc/git/libDaisy/src/dev/oled_ssd130x.h ****         }
  25:/Users/amc/git/libDaisy/src/dev/oled_ssd130x.h ****         I2CHandle::Config i2c_config;
  26:/Users/amc/git/libDaisy/src/dev/oled_ssd130x.h ****         uint8_t           i2c_address;
  27:/Users/amc/git/libDaisy/src/dev/oled_ssd130x.h ****         void              Defaults()
  28:/Users/amc/git/libDaisy/src/dev/oled_ssd130x.h ****         {
  29:/Users/amc/git/libDaisy/src/dev/oled_ssd130x.h ****             i2c_config.periph         = I2CHandle::Config::Peripheral::I2C_1;
  30:/Users/amc/git/libDaisy/src/dev/oled_ssd130x.h ****             i2c_config.speed          = I2CHandle::Config::Speed::I2C_1MHZ;
  31:/Users/amc/git/libDaisy/src/dev/oled_ssd130x.h ****             i2c_config.mode           = I2CHandle::Config::Mode::I2C_MASTER;
  32:/Users/amc/git/libDaisy/src/dev/oled_ssd130x.h ****             i2c_config.pin_config.scl = {DSY_GPIOB, 8};
  33:/Users/amc/git/libDaisy/src/dev/oled_ssd130x.h ****             i2c_config.pin_config.sda = {DSY_GPIOB, 9};
  34:/Users/amc/git/libDaisy/src/dev/oled_ssd130x.h ****             i2c_address               = 0x3C;
  35:/Users/amc/git/libDaisy/src/dev/oled_ssd130x.h ****         }
  36:/Users/amc/git/libDaisy/src/dev/oled_ssd130x.h ****     };
  37:/Users/amc/git/libDaisy/src/dev/oled_ssd130x.h ****     void Init(const Config& config)
  38:/Users/amc/git/libDaisy/src/dev/oled_ssd130x.h ****     {
  39:/Users/amc/git/libDaisy/src/dev/oled_ssd130x.h ****         i2c_address_ = config.i2c_address;
  40:/Users/amc/git/libDaisy/src/dev/oled_ssd130x.h ****         i2c_.Init(config.i2c_config);
  41:/Users/amc/git/libDaisy/src/dev/oled_ssd130x.h ****     };
  42:/Users/amc/git/libDaisy/src/dev/oled_ssd130x.h ****     void SendCommand(uint8_t cmd)
  43:/Users/amc/git/libDaisy/src/dev/oled_ssd130x.h ****     {
  44:/Users/amc/git/libDaisy/src/dev/oled_ssd130x.h ****         uint8_t buf[2] = {0X00, cmd};
  45:/Users/amc/git/libDaisy/src/dev/oled_ssd130x.h ****         i2c_.TransmitBlocking(i2c_address_, buf, 2, 1000);
  46:/Users/amc/git/libDaisy/src/dev/oled_ssd130x.h ****     };
  47:/Users/amc/git/libDaisy/src/dev/oled_ssd130x.h **** 
  48:/Users/amc/git/libDaisy/src/dev/oled_ssd130x.h ****     void SendData(uint8_t* buff, size_t size)
  49:/Users/amc/git/libDaisy/src/dev/oled_ssd130x.h ****     {
  50:/Users/amc/git/libDaisy/src/dev/oled_ssd130x.h ****         for(size_t i = 0; i < size; i++)
  51:/Users/amc/git/libDaisy/src/dev/oled_ssd130x.h ****         {
  52:/Users/amc/git/libDaisy/src/dev/oled_ssd130x.h ****             uint8_t buf[2] = {0X40, buff[i]};
  53:/Users/amc/git/libDaisy/src/dev/oled_ssd130x.h ****             i2c_.TransmitBlocking(i2c_address_, buf, 2, 1000);
  54:/Users/amc/git/libDaisy/src/dev/oled_ssd130x.h ****         }
  55:/Users/amc/git/libDaisy/src/dev/oled_ssd130x.h ****     };
  56:/Users/amc/git/libDaisy/src/dev/oled_ssd130x.h **** 
  57:/Users/amc/git/libDaisy/src/dev/oled_ssd130x.h ****   private:
  58:/Users/amc/git/libDaisy/src/dev/oled_ssd130x.h ****     daisy::I2CHandle i2c_;
  59:/Users/amc/git/libDaisy/src/dev/oled_ssd130x.h ****     uint8_t          i2c_address_;
  60:/Users/amc/git/libDaisy/src/dev/oled_ssd130x.h **** };
  61:/Users/amc/git/libDaisy/src/dev/oled_ssd130x.h **** 
  62:/Users/amc/git/libDaisy/src/dev/oled_ssd130x.h **** /**
  63:/Users/amc/git/libDaisy/src/dev/oled_ssd130x.h ****  * 4 Wire SPI Transport for SSD1306 / SSD1309 OLED display devices
  64:/Users/amc/git/libDaisy/src/dev/oled_ssd130x.h ****  */
  65:/Users/amc/git/libDaisy/src/dev/oled_ssd130x.h **** class SSD130x4WireSpiTransport
  66:/Users/amc/git/libDaisy/src/dev/oled_ssd130x.h **** {
  67:/Users/amc/git/libDaisy/src/dev/oled_ssd130x.h ****   public:
  68:/Users/amc/git/libDaisy/src/dev/oled_ssd130x.h ****     struct Config
  69:/Users/amc/git/libDaisy/src/dev/oled_ssd130x.h ****     {
  70:/Users/amc/git/libDaisy/src/dev/oled_ssd130x.h ****         Config()
  71:/Users/amc/git/libDaisy/src/dev/oled_ssd130x.h ****         {
  72:/Users/amc/git/libDaisy/src/dev/oled_ssd130x.h ****             // Initialize using defaults
  73:/Users/amc/git/libDaisy/src/dev/oled_ssd130x.h ****             Defaults();
ARM GAS  /var/folders/83/vwtnzcdn1v99b_lf0k0gsjzr0000gn/T//ccSBqmD1.s 			page 26


  74:/Users/amc/git/libDaisy/src/dev/oled_ssd130x.h ****         }
  75:/Users/amc/git/libDaisy/src/dev/oled_ssd130x.h ****         SpiHandle::Config spi_config;
  76:/Users/amc/git/libDaisy/src/dev/oled_ssd130x.h ****         struct
  77:/Users/amc/git/libDaisy/src/dev/oled_ssd130x.h ****         {
  78:/Users/amc/git/libDaisy/src/dev/oled_ssd130x.h ****             dsy_gpio_pin dc;    /**< & */
  79:/Users/amc/git/libDaisy/src/dev/oled_ssd130x.h ****             dsy_gpio_pin reset; /**< & */
  80:/Users/amc/git/libDaisy/src/dev/oled_ssd130x.h ****         } pin_config;
  81:/Users/amc/git/libDaisy/src/dev/oled_ssd130x.h ****         void Defaults()
  82:/Users/amc/git/libDaisy/src/dev/oled_ssd130x.h ****         {
  83:/Users/amc/git/libDaisy/src/dev/oled_ssd130x.h ****             // SPI peripheral config
  84:/Users/amc/git/libDaisy/src/dev/oled_ssd130x.h ****             spi_config.periph = SpiHandle::Config::Peripheral::SPI_1;
  85:/Users/amc/git/libDaisy/src/dev/oled_ssd130x.h ****             spi_config.mode   = SpiHandle::Config::Mode::MASTER;
  86:/Users/amc/git/libDaisy/src/dev/oled_ssd130x.h ****             spi_config.direction
  87:/Users/amc/git/libDaisy/src/dev/oled_ssd130x.h ****                 = SpiHandle::Config::Direction::TWO_LINES_TX_ONLY;
  88:/Users/amc/git/libDaisy/src/dev/oled_ssd130x.h ****             spi_config.datasize       = 8;
  89:/Users/amc/git/libDaisy/src/dev/oled_ssd130x.h ****             spi_config.clock_polarity = SpiHandle::Config::ClockPolarity::LOW;
  90:/Users/amc/git/libDaisy/src/dev/oled_ssd130x.h ****             spi_config.clock_phase    = SpiHandle::Config::ClockPhase::ONE_EDGE;
  91:/Users/amc/git/libDaisy/src/dev/oled_ssd130x.h ****             spi_config.nss            = SpiHandle::Config::NSS::HARD_OUTPUT;
  92:/Users/amc/git/libDaisy/src/dev/oled_ssd130x.h ****             spi_config.baud_prescaler = SpiHandle::Config::BaudPrescaler::PS_8;
  93:/Users/amc/git/libDaisy/src/dev/oled_ssd130x.h ****             // SPI pin config
  94:/Users/amc/git/libDaisy/src/dev/oled_ssd130x.h ****             spi_config.pin_config.sclk = {DSY_GPIOG, 11};
  95:/Users/amc/git/libDaisy/src/dev/oled_ssd130x.h ****             spi_config.pin_config.miso = {DSY_GPIOX, 0};
  96:/Users/amc/git/libDaisy/src/dev/oled_ssd130x.h ****             spi_config.pin_config.mosi = {DSY_GPIOB, 5};
  97:/Users/amc/git/libDaisy/src/dev/oled_ssd130x.h ****             spi_config.pin_config.nss  = {DSY_GPIOG, 10};
  98:/Users/amc/git/libDaisy/src/dev/oled_ssd130x.h ****             // SSD130x control pin config
  99:/Users/amc/git/libDaisy/src/dev/oled_ssd130x.h ****             pin_config.dc    = {DSY_GPIOB, 4};
 100:/Users/amc/git/libDaisy/src/dev/oled_ssd130x.h ****             pin_config.reset = {DSY_GPIOB, 15};
 101:/Users/amc/git/libDaisy/src/dev/oled_ssd130x.h ****         }
 102:/Users/amc/git/libDaisy/src/dev/oled_ssd130x.h ****     };
 103:/Users/amc/git/libDaisy/src/dev/oled_ssd130x.h ****     void Init(const Config& config)
 104:/Users/amc/git/libDaisy/src/dev/oled_ssd130x.h ****     {
 105:/Users/amc/git/libDaisy/src/dev/oled_ssd130x.h ****         // Initialize both GPIO
 106:/Users/amc/git/libDaisy/src/dev/oled_ssd130x.h ****         pin_dc_.mode = DSY_GPIO_MODE_OUTPUT_PP;
 107:/Users/amc/git/libDaisy/src/dev/oled_ssd130x.h ****         pin_dc_.pin  = config.pin_config.dc;
 108:/Users/amc/git/libDaisy/src/dev/oled_ssd130x.h ****         dsy_gpio_init(&pin_dc_);
 109:/Users/amc/git/libDaisy/src/dev/oled_ssd130x.h ****         pin_reset_.mode = DSY_GPIO_MODE_OUTPUT_PP;
 110:/Users/amc/git/libDaisy/src/dev/oled_ssd130x.h ****         pin_reset_.pin  = config.pin_config.reset;
 111:/Users/amc/git/libDaisy/src/dev/oled_ssd130x.h ****         dsy_gpio_init(&pin_reset_);
 112:/Users/amc/git/libDaisy/src/dev/oled_ssd130x.h **** 
 113:/Users/amc/git/libDaisy/src/dev/oled_ssd130x.h ****         // Initialize SPI
 114:/Users/amc/git/libDaisy/src/dev/oled_ssd130x.h ****         spi_.Init(config.spi_config);
 115:/Users/amc/git/libDaisy/src/dev/oled_ssd130x.h **** 
 116:/Users/amc/git/libDaisy/src/dev/oled_ssd130x.h ****         // Reset and Configure OLED.
 117:/Users/amc/git/libDaisy/src/dev/oled_ssd130x.h ****         dsy_gpio_write(&pin_reset_, 0);
 118:/Users/amc/git/libDaisy/src/dev/oled_ssd130x.h ****         System::Delay(10);
 119:/Users/amc/git/libDaisy/src/dev/oled_ssd130x.h ****         dsy_gpio_write(&pin_reset_, 1);
 120:/Users/amc/git/libDaisy/src/dev/oled_ssd130x.h ****         System::Delay(10);
 121:/Users/amc/git/libDaisy/src/dev/oled_ssd130x.h ****     };
 122:/Users/amc/git/libDaisy/src/dev/oled_ssd130x.h ****     void SendCommand(uint8_t cmd)
 123:/Users/amc/git/libDaisy/src/dev/oled_ssd130x.h ****     {
 124:/Users/amc/git/libDaisy/src/dev/oled_ssd130x.h ****         dsy_gpio_write(&pin_dc_, 0);
 125:/Users/amc/git/libDaisy/src/dev/oled_ssd130x.h ****         spi_.BlockingTransmit(&cmd, 1);
 126:/Users/amc/git/libDaisy/src/dev/oled_ssd130x.h ****     };
 127:/Users/amc/git/libDaisy/src/dev/oled_ssd130x.h **** 
 128:/Users/amc/git/libDaisy/src/dev/oled_ssd130x.h ****     void SendData(uint8_t* buff, size_t size)
 129:/Users/amc/git/libDaisy/src/dev/oled_ssd130x.h ****     {
 130:/Users/amc/git/libDaisy/src/dev/oled_ssd130x.h ****         dsy_gpio_write(&pin_dc_, 1);
ARM GAS  /var/folders/83/vwtnzcdn1v99b_lf0k0gsjzr0000gn/T//ccSBqmD1.s 			page 27


 131:/Users/amc/git/libDaisy/src/dev/oled_ssd130x.h ****         spi_.BlockingTransmit(buff, size);
 132:/Users/amc/git/libDaisy/src/dev/oled_ssd130x.h ****     };
 133:/Users/amc/git/libDaisy/src/dev/oled_ssd130x.h **** 
 134:/Users/amc/git/libDaisy/src/dev/oled_ssd130x.h ****   private:
 135:/Users/amc/git/libDaisy/src/dev/oled_ssd130x.h ****     SpiHandle spi_;
 136:/Users/amc/git/libDaisy/src/dev/oled_ssd130x.h ****     dsy_gpio  pin_reset_;
 137:/Users/amc/git/libDaisy/src/dev/oled_ssd130x.h ****     dsy_gpio  pin_dc_;
 138:/Users/amc/git/libDaisy/src/dev/oled_ssd130x.h **** };
 139:/Users/amc/git/libDaisy/src/dev/oled_ssd130x.h **** 
 140:/Users/amc/git/libDaisy/src/dev/oled_ssd130x.h **** /**
 141:/Users/amc/git/libDaisy/src/dev/oled_ssd130x.h ****  * Soft SPI Transport for SSD1306 / SSD1309 OLED display devices
 142:/Users/amc/git/libDaisy/src/dev/oled_ssd130x.h ****  */
 143:/Users/amc/git/libDaisy/src/dev/oled_ssd130x.h **** class SSD130x4WireSoftSpiTransport
 144:/Users/amc/git/libDaisy/src/dev/oled_ssd130x.h **** {
 145:/Users/amc/git/libDaisy/src/dev/oled_ssd130x.h ****   public:
 146:/Users/amc/git/libDaisy/src/dev/oled_ssd130x.h ****     struct Config
 147:/Users/amc/git/libDaisy/src/dev/oled_ssd130x.h ****     {
 148:/Users/amc/git/libDaisy/src/dev/oled_ssd130x.h ****         Config()
 149:/Users/amc/git/libDaisy/src/dev/oled_ssd130x.h ****         {
 150:/Users/amc/git/libDaisy/src/dev/oled_ssd130x.h ****             // Initialize using defaults
 151:/Users/amc/git/libDaisy/src/dev/oled_ssd130x.h ****             Defaults();
 152:/Users/amc/git/libDaisy/src/dev/oled_ssd130x.h ****         }
 153:/Users/amc/git/libDaisy/src/dev/oled_ssd130x.h ****         struct
 154:/Users/amc/git/libDaisy/src/dev/oled_ssd130x.h ****         {
 155:/Users/amc/git/libDaisy/src/dev/oled_ssd130x.h ****             uint32_t     sclk_delay;
 156:/Users/amc/git/libDaisy/src/dev/oled_ssd130x.h ****             dsy_gpio_pin sclk;
 157:/Users/amc/git/libDaisy/src/dev/oled_ssd130x.h ****             dsy_gpio_pin mosi;
 158:/Users/amc/git/libDaisy/src/dev/oled_ssd130x.h ****             dsy_gpio_pin dc;
 159:/Users/amc/git/libDaisy/src/dev/oled_ssd130x.h ****             dsy_gpio_pin reset;
 160:/Users/amc/git/libDaisy/src/dev/oled_ssd130x.h ****         } pin_config;
 161:/Users/amc/git/libDaisy/src/dev/oled_ssd130x.h ****         void Defaults()
 162:/Users/amc/git/libDaisy/src/dev/oled_ssd130x.h ****         {
 163:/Users/amc/git/libDaisy/src/dev/oled_ssd130x.h ****             pin_config.sclk_delay = 0; // fast as possible?!
 164:/Users/amc/git/libDaisy/src/dev/oled_ssd130x.h ****             // SPI peripheral config
 165:/Users/amc/git/libDaisy/src/dev/oled_ssd130x.h ****             pin_config.sclk = {DSY_GPIOD, 3}; /**< D10 - SPI2 SCK  */
 166:/Users/amc/git/libDaisy/src/dev/oled_ssd130x.h ****             pin_config.mosi = {DSY_GPIOC, 3}; /**< D9  - SPI2 MOSI */
 167:/Users/amc/git/libDaisy/src/dev/oled_ssd130x.h ****             // SSD130x control pin config
 168:/Users/amc/git/libDaisy/src/dev/oled_ssd130x.h ****             pin_config.dc    = {DSY_GPIOC, 11}; //D2
 169:/Users/amc/git/libDaisy/src/dev/oled_ssd130x.h ****             pin_config.reset = {DSY_GPIOC, 10}; //D3
 170:/Users/amc/git/libDaisy/src/dev/oled_ssd130x.h ****         }
 171:/Users/amc/git/libDaisy/src/dev/oled_ssd130x.h ****     };
 172:/Users/amc/git/libDaisy/src/dev/oled_ssd130x.h ****     void Init(const Config& config)
 173:/Users/amc/git/libDaisy/src/dev/oled_ssd130x.h ****     {
 174:/Users/amc/git/libDaisy/src/dev/oled_ssd130x.h ****         // Initialize both GPIO
 175:/Users/amc/git/libDaisy/src/dev/oled_ssd130x.h ****         pin_sclk_.mode = DSY_GPIO_MODE_OUTPUT_PP;
 176:/Users/amc/git/libDaisy/src/dev/oled_ssd130x.h ****         pin_sclk_.pin  = config.pin_config.sclk;
 177:/Users/amc/git/libDaisy/src/dev/oled_ssd130x.h ****         dsy_gpio_init(&pin_sclk_);
 178:/Users/amc/git/libDaisy/src/dev/oled_ssd130x.h ****         dsy_gpio_write(&pin_sclk_, 1); //ClockPolarity::LOW
 179:/Users/amc/git/libDaisy/src/dev/oled_ssd130x.h ****         clk_delay      = config.pin_config.sclk_delay;
 180:/Users/amc/git/libDaisy/src/dev/oled_ssd130x.h ****         pin_mosi_.mode = DSY_GPIO_MODE_OUTPUT_PP;
 181:/Users/amc/git/libDaisy/src/dev/oled_ssd130x.h ****         pin_mosi_.pin  = config.pin_config.mosi;
 182:/Users/amc/git/libDaisy/src/dev/oled_ssd130x.h ****         dsy_gpio_init(&pin_mosi_);
 183:/Users/amc/git/libDaisy/src/dev/oled_ssd130x.h ****         dsy_gpio_write(&pin_mosi_, 0);
 184:/Users/amc/git/libDaisy/src/dev/oled_ssd130x.h **** 
 185:/Users/amc/git/libDaisy/src/dev/oled_ssd130x.h ****         pin_dc_.mode = DSY_GPIO_MODE_OUTPUT_PP;
 186:/Users/amc/git/libDaisy/src/dev/oled_ssd130x.h ****         pin_dc_.pin  = config.pin_config.dc;
 187:/Users/amc/git/libDaisy/src/dev/oled_ssd130x.h ****         dsy_gpio_init(&pin_dc_);
ARM GAS  /var/folders/83/vwtnzcdn1v99b_lf0k0gsjzr0000gn/T//ccSBqmD1.s 			page 28


 188:/Users/amc/git/libDaisy/src/dev/oled_ssd130x.h ****         pin_reset_.mode = DSY_GPIO_MODE_OUTPUT_PP;
 189:/Users/amc/git/libDaisy/src/dev/oled_ssd130x.h ****         pin_reset_.pin  = config.pin_config.reset;
 190:/Users/amc/git/libDaisy/src/dev/oled_ssd130x.h ****         dsy_gpio_init(&pin_reset_);
 191:/Users/amc/git/libDaisy/src/dev/oled_ssd130x.h **** 
 192:/Users/amc/git/libDaisy/src/dev/oled_ssd130x.h ****         // Reset and Configure OLED.
 193:/Users/amc/git/libDaisy/src/dev/oled_ssd130x.h ****         dsy_gpio_write(&pin_reset_, 0);
 194:/Users/amc/git/libDaisy/src/dev/oled_ssd130x.h ****         System::Delay(10);
 195:/Users/amc/git/libDaisy/src/dev/oled_ssd130x.h ****         dsy_gpio_write(&pin_reset_, 1);
 196:/Users/amc/git/libDaisy/src/dev/oled_ssd130x.h ****         System::Delay(10);
 197:/Users/amc/git/libDaisy/src/dev/oled_ssd130x.h ****     };
 198:/Users/amc/git/libDaisy/src/dev/oled_ssd130x.h ****     void SendCommand(uint8_t cmd)
 199:/Users/amc/git/libDaisy/src/dev/oled_ssd130x.h ****     {
 200:/Users/amc/git/libDaisy/src/dev/oled_ssd130x.h ****         dsy_gpio_write(&pin_dc_, 0);
 201:/Users/amc/git/libDaisy/src/dev/oled_ssd130x.h ****         SoftSpiTransmit(cmd);
 202:/Users/amc/git/libDaisy/src/dev/oled_ssd130x.h ****     };
 203:/Users/amc/git/libDaisy/src/dev/oled_ssd130x.h **** 
 204:/Users/amc/git/libDaisy/src/dev/oled_ssd130x.h ****     void SendData(uint8_t* buff, size_t size)
 205:/Users/amc/git/libDaisy/src/dev/oled_ssd130x.h ****     {
 206:/Users/amc/git/libDaisy/src/dev/oled_ssd130x.h ****         dsy_gpio_write(&pin_dc_, 1);
 207:/Users/amc/git/libDaisy/src/dev/oled_ssd130x.h ****         for(size_t i = 0; i < size; i++)
 208:/Users/amc/git/libDaisy/src/dev/oled_ssd130x.h ****             SoftSpiTransmit(buff[i]);
 209:/Users/amc/git/libDaisy/src/dev/oled_ssd130x.h ****     };
 210:/Users/amc/git/libDaisy/src/dev/oled_ssd130x.h **** 
 211:/Users/amc/git/libDaisy/src/dev/oled_ssd130x.h ****   private:
 212:/Users/amc/git/libDaisy/src/dev/oled_ssd130x.h ****     void SoftSpiTransmit(uint8_t val)
 213:/Users/amc/git/libDaisy/src/dev/oled_ssd130x.h ****     {
 214:/Users/amc/git/libDaisy/src/dev/oled_ssd130x.h ****         // bit flip
 215:/Users/amc/git/libDaisy/src/dev/oled_ssd130x.h ****         val = ((val & 0x01) << 7) | ((val & 0x02) << 5) | ((val & 0x04) << 3)
 216:/Users/amc/git/libDaisy/src/dev/oled_ssd130x.h ****               | ((val & 0x08) << 1) | ((val & 0x10) >> 1) | ((val & 0x20) >> 3)
 217:/Users/amc/git/libDaisy/src/dev/oled_ssd130x.h ****               | ((val & 0x40) >> 5) | ((val & 0x80) >> 7);
 218:/Users/amc/git/libDaisy/src/dev/oled_ssd130x.h **** 
 219:/Users/amc/git/libDaisy/src/dev/oled_ssd130x.h ****         for(uint8_t bit = 0u; bit < 8u; bit++)
 220:/Users/amc/git/libDaisy/src/dev/oled_ssd130x.h ****         {
 221:/Users/amc/git/libDaisy/src/dev/oled_ssd130x.h ****             dsy_gpio_write(&pin_mosi_, ((val & (1 << bit)) ? 1 : 0));
 222:/Users/amc/git/libDaisy/src/dev/oled_ssd130x.h **** 
 223:/Users/amc/git/libDaisy/src/dev/oled_ssd130x.h ****             System::DelayTicks(clk_delay);
 224:/Users/amc/git/libDaisy/src/dev/oled_ssd130x.h **** 
 225:/Users/amc/git/libDaisy/src/dev/oled_ssd130x.h ****             dsy_gpio_toggle(&pin_sclk_);
 226:/Users/amc/git/libDaisy/src/dev/oled_ssd130x.h **** 
 227:/Users/amc/git/libDaisy/src/dev/oled_ssd130x.h ****             System::DelayTicks(clk_delay);
 228:/Users/amc/git/libDaisy/src/dev/oled_ssd130x.h **** 
 229:/Users/amc/git/libDaisy/src/dev/oled_ssd130x.h ****             dsy_gpio_toggle(&pin_sclk_);
 230:/Users/amc/git/libDaisy/src/dev/oled_ssd130x.h ****         }
 231:/Users/amc/git/libDaisy/src/dev/oled_ssd130x.h ****     }
 232:/Users/amc/git/libDaisy/src/dev/oled_ssd130x.h **** 
 233:/Users/amc/git/libDaisy/src/dev/oled_ssd130x.h ****     uint32_t clk_delay;
 234:/Users/amc/git/libDaisy/src/dev/oled_ssd130x.h ****     dsy_gpio pin_sclk_;
 235:/Users/amc/git/libDaisy/src/dev/oled_ssd130x.h ****     dsy_gpio pin_mosi_;
 236:/Users/amc/git/libDaisy/src/dev/oled_ssd130x.h ****     dsy_gpio pin_reset_;
 237:/Users/amc/git/libDaisy/src/dev/oled_ssd130x.h ****     dsy_gpio pin_dc_;
 238:/Users/amc/git/libDaisy/src/dev/oled_ssd130x.h **** };
 239:/Users/amc/git/libDaisy/src/dev/oled_ssd130x.h **** 
 240:/Users/amc/git/libDaisy/src/dev/oled_ssd130x.h **** 
 241:/Users/amc/git/libDaisy/src/dev/oled_ssd130x.h **** /**
 242:/Users/amc/git/libDaisy/src/dev/oled_ssd130x.h ****  * A driver implementation for the SSD1306/SSD1309
 243:/Users/amc/git/libDaisy/src/dev/oled_ssd130x.h ****  */
 244:/Users/amc/git/libDaisy/src/dev/oled_ssd130x.h **** template <size_t width, size_t height, typename Transport>
ARM GAS  /var/folders/83/vwtnzcdn1v99b_lf0k0gsjzr0000gn/T//ccSBqmD1.s 			page 29


 245:/Users/amc/git/libDaisy/src/dev/oled_ssd130x.h **** class SSD130xDriver
 246:/Users/amc/git/libDaisy/src/dev/oled_ssd130x.h **** {
 247:/Users/amc/git/libDaisy/src/dev/oled_ssd130x.h ****   public:
 248:/Users/amc/git/libDaisy/src/dev/oled_ssd130x.h ****     struct Config
 249:/Users/amc/git/libDaisy/src/dev/oled_ssd130x.h ****     {
 250:/Users/amc/git/libDaisy/src/dev/oled_ssd130x.h ****         typename Transport::Config transport_config;
 251:/Users/amc/git/libDaisy/src/dev/oled_ssd130x.h ****     };
 252:/Users/amc/git/libDaisy/src/dev/oled_ssd130x.h **** 
 253:/Users/amc/git/libDaisy/src/dev/oled_ssd130x.h ****     void Init(Config config)
 254:/Users/amc/git/libDaisy/src/dev/oled_ssd130x.h ****     {
 255:/Users/amc/git/libDaisy/src/dev/oled_ssd130x.h ****         transport_.Init(config.transport_config);
 256:/Users/amc/git/libDaisy/src/dev/oled_ssd130x.h **** 
 257:/Users/amc/git/libDaisy/src/dev/oled_ssd130x.h ****         // Init routine...
 258:/Users/amc/git/libDaisy/src/dev/oled_ssd130x.h **** 
 259:/Users/amc/git/libDaisy/src/dev/oled_ssd130x.h ****         // Display Off
 260:/Users/amc/git/libDaisy/src/dev/oled_ssd130x.h ****         transport_.SendCommand(0xaE);
 261:/Users/amc/git/libDaisy/src/dev/oled_ssd130x.h ****         // Dimension dependent commands...
 262:/Users/amc/git/libDaisy/src/dev/oled_ssd130x.h ****         switch(height)
 263:/Users/amc/git/libDaisy/src/dev/oled_ssd130x.h ****         {
 264:/Users/amc/git/libDaisy/src/dev/oled_ssd130x.h ****             case 16:
 265:/Users/amc/git/libDaisy/src/dev/oled_ssd130x.h ****                 // Display Clock Divide Ratio
 266:/Users/amc/git/libDaisy/src/dev/oled_ssd130x.h ****                 transport_.SendCommand(0xD5);
 267:/Users/amc/git/libDaisy/src/dev/oled_ssd130x.h ****                 transport_.SendCommand(0x60);
 268:/Users/amc/git/libDaisy/src/dev/oled_ssd130x.h ****                 // Multiplex Ratio
 269:/Users/amc/git/libDaisy/src/dev/oled_ssd130x.h ****                 transport_.SendCommand(0xA8);
 270:/Users/amc/git/libDaisy/src/dev/oled_ssd130x.h ****                 transport_.SendCommand(0x0F);
 271:/Users/amc/git/libDaisy/src/dev/oled_ssd130x.h ****                 // COM Pins
 272:/Users/amc/git/libDaisy/src/dev/oled_ssd130x.h ****                 transport_.SendCommand(0xDA);
 273:/Users/amc/git/libDaisy/src/dev/oled_ssd130x.h ****                 transport_.SendCommand(0x02);
 274:/Users/amc/git/libDaisy/src/dev/oled_ssd130x.h ****                 break;
 275:/Users/amc/git/libDaisy/src/dev/oled_ssd130x.h ****             case 32:
 276:/Users/amc/git/libDaisy/src/dev/oled_ssd130x.h ****                 // Display Clock Divide Ratio
 277:/Users/amc/git/libDaisy/src/dev/oled_ssd130x.h ****                 transport_.SendCommand(0xD5);
 278:/Users/amc/git/libDaisy/src/dev/oled_ssd130x.h ****                 transport_.SendCommand(0x80);
 279:/Users/amc/git/libDaisy/src/dev/oled_ssd130x.h ****                 // Multiplex Ratio
 280:/Users/amc/git/libDaisy/src/dev/oled_ssd130x.h ****                 transport_.SendCommand(0xA8);
 281:/Users/amc/git/libDaisy/src/dev/oled_ssd130x.h ****                 transport_.SendCommand(0x1F);
 282:/Users/amc/git/libDaisy/src/dev/oled_ssd130x.h ****                 // COM Pins
 283:/Users/amc/git/libDaisy/src/dev/oled_ssd130x.h ****                 transport_.SendCommand(0xDA);
 284:/Users/amc/git/libDaisy/src/dev/oled_ssd130x.h ****                 if(width == 64)
 285:/Users/amc/git/libDaisy/src/dev/oled_ssd130x.h ****                 {
 286:/Users/amc/git/libDaisy/src/dev/oled_ssd130x.h ****                     transport_.SendCommand(0x12);
 287:/Users/amc/git/libDaisy/src/dev/oled_ssd130x.h ****                 }
 288:/Users/amc/git/libDaisy/src/dev/oled_ssd130x.h ****                 else
 289:/Users/amc/git/libDaisy/src/dev/oled_ssd130x.h ****                 {
 290:/Users/amc/git/libDaisy/src/dev/oled_ssd130x.h ****                     transport_.SendCommand(0x02);
 291:/Users/amc/git/libDaisy/src/dev/oled_ssd130x.h ****                 }
 292:/Users/amc/git/libDaisy/src/dev/oled_ssd130x.h **** 
 293:/Users/amc/git/libDaisy/src/dev/oled_ssd130x.h ****                 break;
 294:/Users/amc/git/libDaisy/src/dev/oled_ssd130x.h ****             case 48:
 295:/Users/amc/git/libDaisy/src/dev/oled_ssd130x.h ****                 // Display Clock Divide Ratio
 296:/Users/amc/git/libDaisy/src/dev/oled_ssd130x.h ****                 transport_.SendCommand(0xD5);
 297:/Users/amc/git/libDaisy/src/dev/oled_ssd130x.h ****                 transport_.SendCommand(0x80);
 298:/Users/amc/git/libDaisy/src/dev/oled_ssd130x.h ****                 // Multiplex Ratio
 299:/Users/amc/git/libDaisy/src/dev/oled_ssd130x.h ****                 transport_.SendCommand(0xA8);
 300:/Users/amc/git/libDaisy/src/dev/oled_ssd130x.h ****                 transport_.SendCommand(0x2F);
 301:/Users/amc/git/libDaisy/src/dev/oled_ssd130x.h ****                 // COM Pins
ARM GAS  /var/folders/83/vwtnzcdn1v99b_lf0k0gsjzr0000gn/T//ccSBqmD1.s 			page 30


 302:/Users/amc/git/libDaisy/src/dev/oled_ssd130x.h ****                 transport_.SendCommand(0xDA);
 303:/Users/amc/git/libDaisy/src/dev/oled_ssd130x.h ****                 transport_.SendCommand(0x12);
 304:/Users/amc/git/libDaisy/src/dev/oled_ssd130x.h ****                 break;
 305:/Users/amc/git/libDaisy/src/dev/oled_ssd130x.h ****             default: // 128
 306:/Users/amc/git/libDaisy/src/dev/oled_ssd130x.h ****                 // Display Clock Divide Ratio
 307:/Users/amc/git/libDaisy/src/dev/oled_ssd130x.h ****                 transport_.SendCommand(0xD5);
 308:/Users/amc/git/libDaisy/src/dev/oled_ssd130x.h ****                 transport_.SendCommand(0x80);
 309:/Users/amc/git/libDaisy/src/dev/oled_ssd130x.h ****                 // Multiplex Ratio
 310:/Users/amc/git/libDaisy/src/dev/oled_ssd130x.h ****                 transport_.SendCommand(0xA8);
 311:/Users/amc/git/libDaisy/src/dev/oled_ssd130x.h ****                 transport_.SendCommand(0x3F);
 312:/Users/amc/git/libDaisy/src/dev/oled_ssd130x.h ****                 // COM Pins
 313:/Users/amc/git/libDaisy/src/dev/oled_ssd130x.h ****                 transport_.SendCommand(0xDA);
 314:/Users/amc/git/libDaisy/src/dev/oled_ssd130x.h ****                 transport_.SendCommand(0x12);
 315:/Users/amc/git/libDaisy/src/dev/oled_ssd130x.h ****                 break;
 316:/Users/amc/git/libDaisy/src/dev/oled_ssd130x.h ****         }
 317:/Users/amc/git/libDaisy/src/dev/oled_ssd130x.h **** 
 318:/Users/amc/git/libDaisy/src/dev/oled_ssd130x.h ****         // Display Offset
 319:/Users/amc/git/libDaisy/src/dev/oled_ssd130x.h ****         transport_.SendCommand(0xD3);
 320:/Users/amc/git/libDaisy/src/dev/oled_ssd130x.h ****         transport_.SendCommand(0x00);
 321:/Users/amc/git/libDaisy/src/dev/oled_ssd130x.h ****         // Start Line Address
 322:/Users/amc/git/libDaisy/src/dev/oled_ssd130x.h ****         transport_.SendCommand(0x40);
 323:/Users/amc/git/libDaisy/src/dev/oled_ssd130x.h ****         // Normal Display
 324:/Users/amc/git/libDaisy/src/dev/oled_ssd130x.h ****         transport_.SendCommand(0xA6);
 325:/Users/amc/git/libDaisy/src/dev/oled_ssd130x.h ****         // All On Resume
 326:/Users/amc/git/libDaisy/src/dev/oled_ssd130x.h ****         transport_.SendCommand(0xA4);
 327:/Users/amc/git/libDaisy/src/dev/oled_ssd130x.h ****         // Charge Pump
 328:/Users/amc/git/libDaisy/src/dev/oled_ssd130x.h ****         transport_.SendCommand(0x8D);
 329:/Users/amc/git/libDaisy/src/dev/oled_ssd130x.h ****         transport_.SendCommand(0x14);
 330:/Users/amc/git/libDaisy/src/dev/oled_ssd130x.h ****         // Set Segment Remap
 331:/Users/amc/git/libDaisy/src/dev/oled_ssd130x.h ****         transport_.SendCommand(0xA1);
 332:/Users/amc/git/libDaisy/src/dev/oled_ssd130x.h ****         // COM Output Scan Direction
 333:/Users/amc/git/libDaisy/src/dev/oled_ssd130x.h ****         transport_.SendCommand(0xC8);
 334:/Users/amc/git/libDaisy/src/dev/oled_ssd130x.h ****         // Contrast Control
 335:/Users/amc/git/libDaisy/src/dev/oled_ssd130x.h ****         transport_.SendCommand(0x81);
 336:/Users/amc/git/libDaisy/src/dev/oled_ssd130x.h ****         transport_.SendCommand(0x8F);
 337:/Users/amc/git/libDaisy/src/dev/oled_ssd130x.h ****         // Pre Charge
 338:/Users/amc/git/libDaisy/src/dev/oled_ssd130x.h ****         transport_.SendCommand(0xD9);
 339:/Users/amc/git/libDaisy/src/dev/oled_ssd130x.h ****         transport_.SendCommand(0x25);
 340:/Users/amc/git/libDaisy/src/dev/oled_ssd130x.h ****         // VCOM Detect
 341:/Users/amc/git/libDaisy/src/dev/oled_ssd130x.h ****         transport_.SendCommand(0xDB);
 342:/Users/amc/git/libDaisy/src/dev/oled_ssd130x.h ****         transport_.SendCommand(0x34);
 343:/Users/amc/git/libDaisy/src/dev/oled_ssd130x.h **** 
 344:/Users/amc/git/libDaisy/src/dev/oled_ssd130x.h **** 
 345:/Users/amc/git/libDaisy/src/dev/oled_ssd130x.h ****         // Display On
 346:/Users/amc/git/libDaisy/src/dev/oled_ssd130x.h ****         transport_.SendCommand(0xAF); //--turn on oled panel
 347:/Users/amc/git/libDaisy/src/dev/oled_ssd130x.h ****     };
 348:/Users/amc/git/libDaisy/src/dev/oled_ssd130x.h **** 
 349:/Users/amc/git/libDaisy/src/dev/oled_ssd130x.h ****     size_t Width() const { return width; };
 350:/Users/amc/git/libDaisy/src/dev/oled_ssd130x.h ****     size_t Height() const { return height; };
 351:/Users/amc/git/libDaisy/src/dev/oled_ssd130x.h **** 
 352:/Users/amc/git/libDaisy/src/dev/oled_ssd130x.h ****     void DrawPixel(uint_fast8_t x, uint_fast8_t y, bool on)
 353:/Users/amc/git/libDaisy/src/dev/oled_ssd130x.h ****     {
 354:/Users/amc/git/libDaisy/src/dev/oled_ssd130x.h ****         if(x >= width || y >= height)
 355:/Users/amc/git/libDaisy/src/dev/oled_ssd130x.h ****             return;
 356:/Users/amc/git/libDaisy/src/dev/oled_ssd130x.h ****         if(on)
 357:/Users/amc/git/libDaisy/src/dev/oled_ssd130x.h ****             buffer_[x + (y / 8) * width] |= (1 << (y % 8));
 358:/Users/amc/git/libDaisy/src/dev/oled_ssd130x.h ****         else
ARM GAS  /var/folders/83/vwtnzcdn1v99b_lf0k0gsjzr0000gn/T//ccSBqmD1.s 			page 31


 359:/Users/amc/git/libDaisy/src/dev/oled_ssd130x.h ****             buffer_[x + (y / 8) * width] &= ~(1 << (y % 8));
 360:/Users/amc/git/libDaisy/src/dev/oled_ssd130x.h ****     }
 361:/Users/amc/git/libDaisy/src/dev/oled_ssd130x.h **** 
 362:/Users/amc/git/libDaisy/src/dev/oled_ssd130x.h ****     void Fill(bool on)
 188              		.loc 14 362 10 view .LVU31
 189              	.LBB764:
 363:/Users/amc/git/libDaisy/src/dev/oled_ssd130x.h ****     {
 364:/Users/amc/git/libDaisy/src/dev/oled_ssd130x.h ****         for(size_t i = 0; i < sizeof(buffer_); i++)
 190              		.loc 14 364 29 discriminator 1 view .LVU32
 365:/Users/amc/git/libDaisy/src/dev/oled_ssd130x.h ****         {
 366:/Users/amc/git/libDaisy/src/dev/oled_ssd130x.h ****             buffer_[i] = on ? 0xff : 0x00;
 191              		.loc 14 366 24 is_stmt 0 view .LVU33
 192 0000 4942     		rsbs	r1, r1, #0
 193              	.LVL4:
 194              		.loc 14 366 24 discriminator 4 view .LVU34
 195 0002 4FF48062 		mov	r2, #1024
 196 0006 1430     		adds	r0, r0, #20
 197              	.LVL5:
 198              		.loc 14 366 24 discriminator 4 view .LVU35
 199 0008 C9B2     		uxtb	r1, r1
 200              	.LVL6:
 201              		.loc 14 366 24 discriminator 4 view .LVU36
 202 000a FFF7FEBF 		b	memset
 203              	.LVL7:
 204              		.loc 14 366 24 discriminator 4 view .LVU37
 205              	.LBE764:
 206              	.LBE763:
 207              		.cfi_endproc
 208              	.LFE6788:
 210 000e 00BF     		.section	.text._ZNK5daisy11OledDisplayINS_13SSD130xDriverILj128ELj64ENS_24SSD130x4WireSpiTransport
 211              		.align	1
 212              		.p2align 2,,3
 213              		.weak	_ZNK5daisy11OledDisplayINS_13SSD130xDriverILj128ELj64ENS_24SSD130x4WireSpiTransportEEEE6Heig
 214              		.syntax unified
 215              		.thumb
 216              		.thumb_func
 218              	_ZNK5daisy11OledDisplayINS_13SSD130xDriverILj128ELj64ENS_24SSD130x4WireSpiTransportEEEE6HeightEv:
 219              	.LVL8:
 220              	.LFB7222:
  27:/Users/amc/git/libDaisy/src/hid/disp/oled_display.h ****     uint16_t Width() const override { return driver_.Width(); }
 221              		.loc 7 27 14 is_stmt 1 view -0
 222              		.cfi_startproc
 223              		@ args = 0, pretend = 0, frame = 0
 224              		@ frame_needed = 0, uses_anonymous_args = 0
 225              		@ link register save eliminated.
  27:/Users/amc/git/libDaisy/src/hid/disp/oled_display.h ****     uint16_t Width() const override { return driver_.Width(); }
 226              		.loc 7 27 65 is_stmt 0 view .LVU39
 227 0000 4020     		movs	r0, #64
 228              	.LVL9:
  27:/Users/amc/git/libDaisy/src/hid/disp/oled_display.h ****     uint16_t Width() const override { return driver_.Width(); }
 229              		.loc 7 27 65 view .LVU40
 230 0002 7047     		bx	lr
 231              		.cfi_endproc
 232              	.LFE7222:
 234              		.section	.text._ZNK5daisy11OledDisplayINS_13SSD130xDriverILj128ELj64ENS_24SSD130x4WireSpiTransport
 235              		.align	1
 236              		.p2align 2,,3
ARM GAS  /var/folders/83/vwtnzcdn1v99b_lf0k0gsjzr0000gn/T//ccSBqmD1.s 			page 32


 237              		.weak	_ZNK5daisy11OledDisplayINS_13SSD130xDriverILj128ELj64ENS_24SSD130x4WireSpiTransportEEEE5Widt
 238              		.syntax unified
 239              		.thumb
 240              		.thumb_func
 242              	_ZNK5daisy11OledDisplayINS_13SSD130xDriverILj128ELj64ENS_24SSD130x4WireSpiTransportEEEE5WidthEv:
 243              	.LVL10:
 244              	.LFB7223:
  28:/Users/amc/git/libDaisy/src/hid/disp/oled_display.h **** 
 245              		.loc 7 28 14 is_stmt 1 view -0
 246              		.cfi_startproc
 247              		@ args = 0, pretend = 0, frame = 0
 248              		@ frame_needed = 0, uses_anonymous_args = 0
 249              		@ link register save eliminated.
  28:/Users/amc/git/libDaisy/src/hid/disp/oled_display.h **** 
 250              		.loc 7 28 63 is_stmt 0 view .LVU42
 251 0000 8020     		movs	r0, #128
 252              	.LVL11:
  28:/Users/amc/git/libDaisy/src/hid/disp/oled_display.h **** 
 253              		.loc 7 28 63 view .LVU43
 254 0002 7047     		bx	lr
 255              		.cfi_endproc
 256              	.LFE7223:
 258              		.section	.text._ZN9soundmath7FBufferIfED2Ev,"axG",%progbits,_ZN9soundmath7FBufferIfED5Ev,comdat
 259              		.align	1
 260              		.p2align 2,,3
 261              		.weak	_ZN9soundmath7FBufferIfED2Ev
 262              		.syntax unified
 263              		.thumb
 264              		.thumb_func
 266              	_ZN9soundmath7FBufferIfED2Ev:
 267              	.LVL12:
 268              	.LFB7227:
 269              		.file 15 "../src/buffer.h"
   1:../src/buffer.h **** // buffer.h
   2:../src/buffer.h **** #include "globals.h"
   3:../src/buffer.h **** 
   4:../src/buffer.h **** #ifndef BUFFER
   5:../src/buffer.h **** 
   6:../src/buffer.h **** namespace soundmath
   7:../src/buffer.h **** {
   8:../src/buffer.h **** 	// circular buffer object
   9:../src/buffer.h **** 	template <typename T> class Buffer
  10:../src/buffer.h **** 	{
  11:../src/buffer.h **** 	public:
  12:../src/buffer.h **** 		Buffer() { }
  13:../src/buffer.h **** 
  14:../src/buffer.h **** 		~Buffer()
  15:../src/buffer.h **** 		{
  16:../src/buffer.h **** 			delete [] data;
  17:../src/buffer.h **** 		}
  18:../src/buffer.h **** 
  19:../src/buffer.h **** 		void initialize(uint size = 0)
  20:../src/buffer.h **** 		{
  21:../src/buffer.h **** 			size += (size == 0) ? 1 : 0; // disallow size zero
  22:../src/buffer.h **** 			this->size = size;
  23:../src/buffer.h **** 			origin = 0;
  24:../src/buffer.h **** 			data = new T[size];
ARM GAS  /var/folders/83/vwtnzcdn1v99b_lf0k0gsjzr0000gn/T//ccSBqmD1.s 			page 33


  25:../src/buffer.h **** 			memset(data, 0, size * sizeof(T));
  26:../src/buffer.h **** 		}
  27:../src/buffer.h **** 
  28:../src/buffer.h **** 		Buffer(uint size)
  29:../src/buffer.h **** 		{
  30:../src/buffer.h **** 			initialize(size);
  31:../src/buffer.h **** 		}
  32:../src/buffer.h **** 
  33:../src/buffer.h **** 		inline void tick()
  34:../src/buffer.h **** 		{
  35:../src/buffer.h **** 			origin++;
  36:../src/buffer.h **** 			origin %= size;
  37:../src/buffer.h **** 		}
  38:../src/buffer.h **** 
  39:../src/buffer.h **** 		// linear-interpolated lookup (into past)
  40:../src/buffer.h **** 		inline T operator()(T position = 0)
  41:../src/buffer.h **** 		{
  42:../src/buffer.h **** 			int center = (int)position;
  43:../src/buffer.h **** 			int before = center + 1;
  44:../src/buffer.h **** 			T disp = position - center;
  45:../src/buffer.h **** 
  46:../src/buffer.h **** 			return data[(origin - center + size) % size] * (1 - disp) + data[(origin - before + size) % size
  47:../src/buffer.h **** 		}
  48:../src/buffer.h **** 
  49:../src/buffer.h **** 		// linear-interpolated read (for static buffers)
  50:../src/buffer.h **** 		inline T operator[](T position)
  51:../src/buffer.h **** 		{
  52:../src/buffer.h **** 			int center = (int)position;
  53:../src/buffer.h **** 			int after = (center + 1) % size;
  54:../src/buffer.h **** 			T disp = position - center;
  55:../src/buffer.h **** 
  56:../src/buffer.h **** 			return data[(center + size) % size] * (1 - disp) + data[(after + size) % size] * disp;	
  57:../src/buffer.h **** 		}
  58:../src/buffer.h **** 
  59:../src/buffer.h **** 		inline void write(T value)
  60:../src/buffer.h **** 		{
  61:../src/buffer.h **** 			data[origin] = value;
  62:../src/buffer.h **** 		}
  63:../src/buffer.h **** 
  64:../src/buffer.h **** 		inline void accum(T value)
  65:../src/buffer.h **** 		{
  66:../src/buffer.h **** 			data[origin] += value;
  67:../src/buffer.h **** 		}
  68:../src/buffer.h **** 
  69:../src/buffer.h **** 		inline uint get_size()
  70:../src/buffer.h **** 		{
  71:../src/buffer.h **** 			return size;
  72:../src/buffer.h **** 		}
  73:../src/buffer.h **** 
  74:../src/buffer.h **** 		inline uint get_origin()
  75:../src/buffer.h **** 		{
  76:../src/buffer.h **** 			return origin;
  77:../src/buffer.h **** 		}
  78:../src/buffer.h **** 
  79:../src/buffer.h **** 	protected:
  80:../src/buffer.h **** 		T* data;
  81:../src/buffer.h **** 		uint size;
ARM GAS  /var/folders/83/vwtnzcdn1v99b_lf0k0gsjzr0000gn/T//ccSBqmD1.s 			page 34


  82:../src/buffer.h **** 		uint origin;
  83:../src/buffer.h **** 	};
  84:../src/buffer.h **** 
  85:../src/buffer.h **** 	// circular buffer object: "fixed" buffer
  86:../src/buffer.h **** 	template <typename T> class FBuffer : public Buffer<T>
  87:../src/buffer.h **** 	{
  88:../src/buffer.h **** 	public:
  89:../src/buffer.h **** 		~FBuffer() { }
 270              		.loc 15 89 3 is_stmt 1 view -0
 271              		.cfi_startproc
 272              		@ args = 0, pretend = 0, frame = 0
 273              		@ frame_needed = 0, uses_anonymous_args = 0
 274              		.loc 15 89 3 is_stmt 0 view .LVU45
 275 0000 10B5     		push	{r4, lr}
 276              		.cfi_def_cfa_offset 8
 277              		.cfi_offset 4, -8
 278              		.cfi_offset 14, -4
 279              		.loc 15 89 3 view .LVU46
 280 0002 0446     		mov	r4, r0
 281              	.LVL13:
 282              	.LBB765:
 283              	.LBI765:
  14:../src/buffer.h **** 		{
 284              		.loc 15 14 3 is_stmt 1 view .LVU47
 285              	.LBB766:
  16:../src/buffer.h **** 		}
 286              		.loc 15 16 14 is_stmt 0 view .LVU48
 287 0004 0068     		ldr	r0, [r0]
 288              	.LVL14:
  16:../src/buffer.h **** 		}
 289              		.loc 15 16 4 view .LVU49
 290 0006 08B1     		cbz	r0, .L9
  16:../src/buffer.h **** 		}
 291              		.loc 15 16 4 discriminator 1 view .LVU50
 292 0008 FFF7FEFF 		bl	_ZdaPv
 293              	.LVL15:
 294              	.L9:
  16:../src/buffer.h **** 		}
 295              		.loc 15 16 4 discriminator 1 view .LVU51
 296              	.LBE766:
 297              	.LBE765:
 298              		.loc 15 89 16 view .LVU52
 299 000c 2046     		mov	r0, r4
 300 000e 10BD     		pop	{r4, pc}
 301              		.loc 15 89 16 view .LVU53
 302              		.cfi_endproc
 303              	.LFE7227:
 305              		.weak	_ZN9soundmath7FBufferIfED1Ev
 306              		.thumb_set _ZN9soundmath7FBufferIfED1Ev,_ZN9soundmath7FBufferIfED2Ev
 307              		.section	.text._ZN5daisy11OledDisplayINS_13SSD130xDriverILj128ELj64ENS_24SSD130x4WireSpiTransportE
 308              		.align	1
 309              		.p2align 2,,3
 310              		.weak	_ZN5daisy11OledDisplayINS_13SSD130xDriverILj128ELj64ENS_24SSD130x4WireSpiTransportEEEED0Ev
 311              		.syntax unified
 312              		.thumb
 313              		.thumb_func
 315              	_ZN5daisy11OledDisplayINS_13SSD130xDriverILj128ELj64ENS_24SSD130x4WireSpiTransportEEEED0Ev:
ARM GAS  /var/folders/83/vwtnzcdn1v99b_lf0k0gsjzr0000gn/T//ccSBqmD1.s 			page 35


 316              	.LVL16:
 317              	.LFB6767:
  18:/Users/amc/git/libDaisy/src/hid/disp/oled_display.h **** 
 318              		.loc 7 18 13 is_stmt 1 view -0
 319              		.cfi_startproc
 320              		@ args = 0, pretend = 0, frame = 0
 321              		@ frame_needed = 0, uses_anonymous_args = 0
  18:/Users/amc/git/libDaisy/src/hid/disp/oled_display.h **** 
 322              		.loc 7 18 13 is_stmt 0 view .LVU55
 323 0000 10B5     		push	{r4, lr}
 324              		.cfi_def_cfa_offset 8
 325              		.cfi_offset 4, -8
 326              		.cfi_offset 14, -4
  18:/Users/amc/git/libDaisy/src/hid/disp/oled_display.h **** 
 327              		.loc 7 18 13 view .LVU56
 328 0002 0446     		mov	r4, r0
 329              	.LVL17:
 330              	.LBB767:
 331              	.LBI767:
  18:/Users/amc/git/libDaisy/src/hid/disp/oled_display.h **** 
 332              		.loc 7 18 13 is_stmt 1 view .LVU57
 333              	.LBB768:
 334              	.LBI768:
 335              		.loc 8 219 13 view .LVU58
 336              	.LBB769:
 337              	.LBI769:
  23:/Users/amc/git/libDaisy/src/hid/disp/display.h **** 
 338              		.loc 8 23 13 view .LVU59
  23:/Users/amc/git/libDaisy/src/hid/disp/display.h **** 
 339              		.loc 8 23 13 is_stmt 0 view .LVU60
 340              	.LBE769:
 341              	.LBE768:
 342              	.LBE767:
  18:/Users/amc/git/libDaisy/src/hid/disp/oled_display.h **** 
 343              		.loc 7 18 29 discriminator 1 view .LVU61
 344 0004 40F21441 		movw	r1, #1044
 345 0008 FFF7FEFF 		bl	_ZdlPvj
 346              	.LVL18:
  18:/Users/amc/git/libDaisy/src/hid/disp/oled_display.h **** 
 347              		.loc 7 18 29 view .LVU62
 348 000c 2046     		mov	r0, r4
 349 000e 10BD     		pop	{r4, pc}
  18:/Users/amc/git/libDaisy/src/hid/disp/oled_display.h **** 
 350              		.loc 7 18 29 view .LVU63
 351              		.cfi_endproc
 352              	.LFE6767:
 354              		.section	.text.__tcf_0,"ax",%progbits
 355              		.align	1
 356              		.p2align 2,,3
 357              		.syntax unified
 358              		.thumb
 359              		.thumb_func
 361              	__tcf_0:
 362              	.LFB7221:
   1:main.cpp      **** #include <string.h>
   2:main.cpp      **** #include "daisy_seed.h"
   3:main.cpp      **** #include "daisysp.h"
ARM GAS  /var/folders/83/vwtnzcdn1v99b_lf0k0gsjzr0000gn/T//ccSBqmD1.s 			page 36


   4:main.cpp      **** 
   5:main.cpp      **** #include "globals.h"
   6:main.cpp      **** #include "Pedal.h"
   7:main.cpp      **** #include "buffer.h"
   8:main.cpp      **** 
   9:main.cpp      **** #include "gesture.h"
  10:main.cpp      **** 
  11:main.cpp      **** using namespace daisy;
  12:main.cpp      **** using namespace daisysp;
  13:main.cpp      **** using namespace amc;
  14:main.cpp      **** using namespace soundmath;
  15:main.cpp      **** 
  16:main.cpp      **** const size_t bsize = 32;
  17:main.cpp      **** 
  18:main.cpp      **** bool processed = false;
  19:main.cpp      **** const size_t framerate = 90;
  20:main.cpp      **** const size_t oversample = 8;
  21:main.cpp      **** const size_t tickrate = framerate * oversample;
  22:main.cpp      **** Pedal hw;
  23:main.cpp      **** 
  24:main.cpp      **** 
  25:main.cpp      **** const S epsilon = 0.001;
  26:main.cpp      **** 
  27:main.cpp      **** const size_t cols = 1;
  28:main.cpp      **** const size_t n_notes = 6;
  29:main.cpp      **** const S notes[n_notes] = {mtof(16), mtof(21), mtof(26), mtof(31), mtof(35), mtof(40)};
  30:main.cpp      **** 
  31:main.cpp      **** bool selectable = false;
  32:main.cpp      **** std::string note_names[12] = {"C", "C#", "D", "Eb", "E", "F", "F#", "G", "Ab", "A", "Bb", "B"};
 363              		.loc 1 32 13 is_stmt 1 view -0
 364              		.cfi_startproc
 365              		@ args = 0, pretend = 0, frame = 0
 366              		@ frame_needed = 0, uses_anonymous_args = 0
 367 0000 38B5     		push	{r3, r4, r5, lr}
 368              		.cfi_def_cfa_offset 16
 369              		.cfi_offset 3, -16
 370              		.cfi_offset 4, -12
 371              		.cfi_offset 5, -8
 372              		.cfi_offset 14, -4
 373              		.loc 1 32 13 is_stmt 0 view .LVU65
 374 0002 094C     		ldr	r4, .L22
 375 0004 A4F59075 		sub	r5, r4, #288
 376              	.L20:
 377              		.loc 1 32 13 discriminator 3 view .LVU66
 378 0008 183C     		subs	r4, r4, #24
 379              	.LVL19:
 380              	.LBB821:
 381              	.LBI821:
 382              		.file 16 "/Applications/ArmGNUToolchain/13.2.Rel1/arm-none-eabi/arm-none-eabi/include/c++/13.2.1/b
   1:/Applications/ArmGNUToolchain/13.2.Rel1/arm-none-eabi/arm-none-eabi/include/c++/13.2.1/bits/basic_string.h **** // Components for manipulating sequences of characters -*- C++ -*-
   2:/Applications/ArmGNUToolchain/13.2.Rel1/arm-none-eabi/arm-none-eabi/include/c++/13.2.1/bits/basic_string.h **** 
   3:/Applications/ArmGNUToolchain/13.2.Rel1/arm-none-eabi/arm-none-eabi/include/c++/13.2.1/bits/basic_string.h **** // Copyright (C) 1997-2023 Free Software Foundation, Inc.
   4:/Applications/ArmGNUToolchain/13.2.Rel1/arm-none-eabi/arm-none-eabi/include/c++/13.2.1/bits/basic_string.h **** //
   5:/Applications/ArmGNUToolchain/13.2.Rel1/arm-none-eabi/arm-none-eabi/include/c++/13.2.1/bits/basic_string.h **** // This file is part of the GNU ISO C++ Library.  This library is free
   6:/Applications/ArmGNUToolchain/13.2.Rel1/arm-none-eabi/arm-none-eabi/include/c++/13.2.1/bits/basic_string.h **** // software; you can redistribute it and/or modify it under the
   7:/Applications/ArmGNUToolchain/13.2.Rel1/arm-none-eabi/arm-none-eabi/include/c++/13.2.1/bits/basic_string.h **** // terms of the GNU General Public License as published by the
   8:/Applications/ArmGNUToolchain/13.2.Rel1/arm-none-eabi/arm-none-eabi/include/c++/13.2.1/bits/basic_string.h **** // Free Software Foundation; either version 3, or (at your option)
ARM GAS  /var/folders/83/vwtnzcdn1v99b_lf0k0gsjzr0000gn/T//ccSBqmD1.s 			page 37


   9:/Applications/ArmGNUToolchain/13.2.Rel1/arm-none-eabi/arm-none-eabi/include/c++/13.2.1/bits/basic_string.h **** // any later version.
  10:/Applications/ArmGNUToolchain/13.2.Rel1/arm-none-eabi/arm-none-eabi/include/c++/13.2.1/bits/basic_string.h **** 
  11:/Applications/ArmGNUToolchain/13.2.Rel1/arm-none-eabi/arm-none-eabi/include/c++/13.2.1/bits/basic_string.h **** // This library is distributed in the hope that it will be useful,
  12:/Applications/ArmGNUToolchain/13.2.Rel1/arm-none-eabi/arm-none-eabi/include/c++/13.2.1/bits/basic_string.h **** // but WITHOUT ANY WARRANTY; without even the implied warranty of
  13:/Applications/ArmGNUToolchain/13.2.Rel1/arm-none-eabi/arm-none-eabi/include/c++/13.2.1/bits/basic_string.h **** // MERCHANTABILITY or FITNESS FOR A PARTICULAR PURPOSE.  See the
  14:/Applications/ArmGNUToolchain/13.2.Rel1/arm-none-eabi/arm-none-eabi/include/c++/13.2.1/bits/basic_string.h **** // GNU General Public License for more details.
  15:/Applications/ArmGNUToolchain/13.2.Rel1/arm-none-eabi/arm-none-eabi/include/c++/13.2.1/bits/basic_string.h **** 
  16:/Applications/ArmGNUToolchain/13.2.Rel1/arm-none-eabi/arm-none-eabi/include/c++/13.2.1/bits/basic_string.h **** // Under Section 7 of GPL version 3, you are granted additional
  17:/Applications/ArmGNUToolchain/13.2.Rel1/arm-none-eabi/arm-none-eabi/include/c++/13.2.1/bits/basic_string.h **** // permissions described in the GCC Runtime Library Exception, version
  18:/Applications/ArmGNUToolchain/13.2.Rel1/arm-none-eabi/arm-none-eabi/include/c++/13.2.1/bits/basic_string.h **** // 3.1, as published by the Free Software Foundation.
  19:/Applications/ArmGNUToolchain/13.2.Rel1/arm-none-eabi/arm-none-eabi/include/c++/13.2.1/bits/basic_string.h **** 
  20:/Applications/ArmGNUToolchain/13.2.Rel1/arm-none-eabi/arm-none-eabi/include/c++/13.2.1/bits/basic_string.h **** // You should have received a copy of the GNU General Public License and
  21:/Applications/ArmGNUToolchain/13.2.Rel1/arm-none-eabi/arm-none-eabi/include/c++/13.2.1/bits/basic_string.h **** // a copy of the GCC Runtime Library Exception along with this program;
  22:/Applications/ArmGNUToolchain/13.2.Rel1/arm-none-eabi/arm-none-eabi/include/c++/13.2.1/bits/basic_string.h **** // see the files COPYING3 and COPYING.RUNTIME respectively.  If not, see
  23:/Applications/ArmGNUToolchain/13.2.Rel1/arm-none-eabi/arm-none-eabi/include/c++/13.2.1/bits/basic_string.h **** // <http://www.gnu.org/licenses/>.
  24:/Applications/ArmGNUToolchain/13.2.Rel1/arm-none-eabi/arm-none-eabi/include/c++/13.2.1/bits/basic_string.h **** 
  25:/Applications/ArmGNUToolchain/13.2.Rel1/arm-none-eabi/arm-none-eabi/include/c++/13.2.1/bits/basic_string.h **** /** @file bits/basic_string.h
  26:/Applications/ArmGNUToolchain/13.2.Rel1/arm-none-eabi/arm-none-eabi/include/c++/13.2.1/bits/basic_string.h ****  *  This is an internal header file, included by other library headers.
  27:/Applications/ArmGNUToolchain/13.2.Rel1/arm-none-eabi/arm-none-eabi/include/c++/13.2.1/bits/basic_string.h ****  *  Do not attempt to use it directly. @headername{string}
  28:/Applications/ArmGNUToolchain/13.2.Rel1/arm-none-eabi/arm-none-eabi/include/c++/13.2.1/bits/basic_string.h ****  */
  29:/Applications/ArmGNUToolchain/13.2.Rel1/arm-none-eabi/arm-none-eabi/include/c++/13.2.1/bits/basic_string.h **** 
  30:/Applications/ArmGNUToolchain/13.2.Rel1/arm-none-eabi/arm-none-eabi/include/c++/13.2.1/bits/basic_string.h **** //
  31:/Applications/ArmGNUToolchain/13.2.Rel1/arm-none-eabi/arm-none-eabi/include/c++/13.2.1/bits/basic_string.h **** // ISO C++ 14882: 21 Strings library
  32:/Applications/ArmGNUToolchain/13.2.Rel1/arm-none-eabi/arm-none-eabi/include/c++/13.2.1/bits/basic_string.h **** //
  33:/Applications/ArmGNUToolchain/13.2.Rel1/arm-none-eabi/arm-none-eabi/include/c++/13.2.1/bits/basic_string.h **** 
  34:/Applications/ArmGNUToolchain/13.2.Rel1/arm-none-eabi/arm-none-eabi/include/c++/13.2.1/bits/basic_string.h **** #ifndef _BASIC_STRING_H
  35:/Applications/ArmGNUToolchain/13.2.Rel1/arm-none-eabi/arm-none-eabi/include/c++/13.2.1/bits/basic_string.h **** #define _BASIC_STRING_H 1
  36:/Applications/ArmGNUToolchain/13.2.Rel1/arm-none-eabi/arm-none-eabi/include/c++/13.2.1/bits/basic_string.h **** 
  37:/Applications/ArmGNUToolchain/13.2.Rel1/arm-none-eabi/arm-none-eabi/include/c++/13.2.1/bits/basic_string.h **** #pragma GCC system_header
  38:/Applications/ArmGNUToolchain/13.2.Rel1/arm-none-eabi/arm-none-eabi/include/c++/13.2.1/bits/basic_string.h **** 
  39:/Applications/ArmGNUToolchain/13.2.Rel1/arm-none-eabi/arm-none-eabi/include/c++/13.2.1/bits/basic_string.h **** #include <ext/alloc_traits.h>
  40:/Applications/ArmGNUToolchain/13.2.Rel1/arm-none-eabi/arm-none-eabi/include/c++/13.2.1/bits/basic_string.h **** #include <debug/debug.h>
  41:/Applications/ArmGNUToolchain/13.2.Rel1/arm-none-eabi/arm-none-eabi/include/c++/13.2.1/bits/basic_string.h **** 
  42:/Applications/ArmGNUToolchain/13.2.Rel1/arm-none-eabi/arm-none-eabi/include/c++/13.2.1/bits/basic_string.h **** #if __cplusplus >= 201103L
  43:/Applications/ArmGNUToolchain/13.2.Rel1/arm-none-eabi/arm-none-eabi/include/c++/13.2.1/bits/basic_string.h **** #include <initializer_list>
  44:/Applications/ArmGNUToolchain/13.2.Rel1/arm-none-eabi/arm-none-eabi/include/c++/13.2.1/bits/basic_string.h **** #endif
  45:/Applications/ArmGNUToolchain/13.2.Rel1/arm-none-eabi/arm-none-eabi/include/c++/13.2.1/bits/basic_string.h **** 
  46:/Applications/ArmGNUToolchain/13.2.Rel1/arm-none-eabi/arm-none-eabi/include/c++/13.2.1/bits/basic_string.h **** #if __cplusplus >= 201703L
  47:/Applications/ArmGNUToolchain/13.2.Rel1/arm-none-eabi/arm-none-eabi/include/c++/13.2.1/bits/basic_string.h **** # include <string_view>
  48:/Applications/ArmGNUToolchain/13.2.Rel1/arm-none-eabi/arm-none-eabi/include/c++/13.2.1/bits/basic_string.h **** #endif
  49:/Applications/ArmGNUToolchain/13.2.Rel1/arm-none-eabi/arm-none-eabi/include/c++/13.2.1/bits/basic_string.h **** 
  50:/Applications/ArmGNUToolchain/13.2.Rel1/arm-none-eabi/arm-none-eabi/include/c++/13.2.1/bits/basic_string.h **** #if ! _GLIBCXX_USE_CXX11_ABI
  51:/Applications/ArmGNUToolchain/13.2.Rel1/arm-none-eabi/arm-none-eabi/include/c++/13.2.1/bits/basic_string.h **** # include "cow_string.h"
  52:/Applications/ArmGNUToolchain/13.2.Rel1/arm-none-eabi/arm-none-eabi/include/c++/13.2.1/bits/basic_string.h **** #else
  53:/Applications/ArmGNUToolchain/13.2.Rel1/arm-none-eabi/arm-none-eabi/include/c++/13.2.1/bits/basic_string.h **** namespace std _GLIBCXX_VISIBILITY(default)
  54:/Applications/ArmGNUToolchain/13.2.Rel1/arm-none-eabi/arm-none-eabi/include/c++/13.2.1/bits/basic_string.h **** {
  55:/Applications/ArmGNUToolchain/13.2.Rel1/arm-none-eabi/arm-none-eabi/include/c++/13.2.1/bits/basic_string.h **** _GLIBCXX_BEGIN_NAMESPACE_VERSION
  56:/Applications/ArmGNUToolchain/13.2.Rel1/arm-none-eabi/arm-none-eabi/include/c++/13.2.1/bits/basic_string.h **** _GLIBCXX_BEGIN_NAMESPACE_CXX11
  57:/Applications/ArmGNUToolchain/13.2.Rel1/arm-none-eabi/arm-none-eabi/include/c++/13.2.1/bits/basic_string.h **** 
  58:/Applications/ArmGNUToolchain/13.2.Rel1/arm-none-eabi/arm-none-eabi/include/c++/13.2.1/bits/basic_string.h **** #ifdef __cpp_lib_is_constant_evaluated
  59:/Applications/ArmGNUToolchain/13.2.Rel1/arm-none-eabi/arm-none-eabi/include/c++/13.2.1/bits/basic_string.h **** // Support P0980R1 in C++20.
  60:/Applications/ArmGNUToolchain/13.2.Rel1/arm-none-eabi/arm-none-eabi/include/c++/13.2.1/bits/basic_string.h **** # define __cpp_lib_constexpr_string 201907L
  61:/Applications/ArmGNUToolchain/13.2.Rel1/arm-none-eabi/arm-none-eabi/include/c++/13.2.1/bits/basic_string.h **** #elif __cplusplus >= 201703L && _GLIBCXX_HAVE_IS_CONSTANT_EVALUATED
  62:/Applications/ArmGNUToolchain/13.2.Rel1/arm-none-eabi/arm-none-eabi/include/c++/13.2.1/bits/basic_string.h **** // Support P0426R1 changes to char_traits in C++17.
  63:/Applications/ArmGNUToolchain/13.2.Rel1/arm-none-eabi/arm-none-eabi/include/c++/13.2.1/bits/basic_string.h **** # define __cpp_lib_constexpr_string 201611L
  64:/Applications/ArmGNUToolchain/13.2.Rel1/arm-none-eabi/arm-none-eabi/include/c++/13.2.1/bits/basic_string.h **** #endif
  65:/Applications/ArmGNUToolchain/13.2.Rel1/arm-none-eabi/arm-none-eabi/include/c++/13.2.1/bits/basic_string.h **** 
ARM GAS  /var/folders/83/vwtnzcdn1v99b_lf0k0gsjzr0000gn/T//ccSBqmD1.s 			page 38


  66:/Applications/ArmGNUToolchain/13.2.Rel1/arm-none-eabi/arm-none-eabi/include/c++/13.2.1/bits/basic_string.h ****   /**
  67:/Applications/ArmGNUToolchain/13.2.Rel1/arm-none-eabi/arm-none-eabi/include/c++/13.2.1/bits/basic_string.h ****    *  @class basic_string basic_string.h <string>
  68:/Applications/ArmGNUToolchain/13.2.Rel1/arm-none-eabi/arm-none-eabi/include/c++/13.2.1/bits/basic_string.h ****    *  @brief  Managing sequences of characters and character-like objects.
  69:/Applications/ArmGNUToolchain/13.2.Rel1/arm-none-eabi/arm-none-eabi/include/c++/13.2.1/bits/basic_string.h ****    *
  70:/Applications/ArmGNUToolchain/13.2.Rel1/arm-none-eabi/arm-none-eabi/include/c++/13.2.1/bits/basic_string.h ****    *  @ingroup strings
  71:/Applications/ArmGNUToolchain/13.2.Rel1/arm-none-eabi/arm-none-eabi/include/c++/13.2.1/bits/basic_string.h ****    *  @ingroup sequences
  72:/Applications/ArmGNUToolchain/13.2.Rel1/arm-none-eabi/arm-none-eabi/include/c++/13.2.1/bits/basic_string.h ****    *  @headerfile string
  73:/Applications/ArmGNUToolchain/13.2.Rel1/arm-none-eabi/arm-none-eabi/include/c++/13.2.1/bits/basic_string.h ****    *  @since C++98
  74:/Applications/ArmGNUToolchain/13.2.Rel1/arm-none-eabi/arm-none-eabi/include/c++/13.2.1/bits/basic_string.h ****    *
  75:/Applications/ArmGNUToolchain/13.2.Rel1/arm-none-eabi/arm-none-eabi/include/c++/13.2.1/bits/basic_string.h ****    *  @tparam _CharT  Type of character
  76:/Applications/ArmGNUToolchain/13.2.Rel1/arm-none-eabi/arm-none-eabi/include/c++/13.2.1/bits/basic_string.h ****    *  @tparam _Traits  Traits for character type, defaults to
  77:/Applications/ArmGNUToolchain/13.2.Rel1/arm-none-eabi/arm-none-eabi/include/c++/13.2.1/bits/basic_string.h ****    *                   char_traits<_CharT>.
  78:/Applications/ArmGNUToolchain/13.2.Rel1/arm-none-eabi/arm-none-eabi/include/c++/13.2.1/bits/basic_string.h ****    *  @tparam _Alloc  Allocator type, defaults to allocator<_CharT>.
  79:/Applications/ArmGNUToolchain/13.2.Rel1/arm-none-eabi/arm-none-eabi/include/c++/13.2.1/bits/basic_string.h ****    *
  80:/Applications/ArmGNUToolchain/13.2.Rel1/arm-none-eabi/arm-none-eabi/include/c++/13.2.1/bits/basic_string.h ****    *  Meets the requirements of a <a href="tables.html#65">container</a>, a
  81:/Applications/ArmGNUToolchain/13.2.Rel1/arm-none-eabi/arm-none-eabi/include/c++/13.2.1/bits/basic_string.h ****    *  <a href="tables.html#66">reversible container</a>, and a
  82:/Applications/ArmGNUToolchain/13.2.Rel1/arm-none-eabi/arm-none-eabi/include/c++/13.2.1/bits/basic_string.h ****    *  <a href="tables.html#67">sequence</a>.  Of the
  83:/Applications/ArmGNUToolchain/13.2.Rel1/arm-none-eabi/arm-none-eabi/include/c++/13.2.1/bits/basic_string.h ****    *  <a href="tables.html#68">optional sequence requirements</a>, only
  84:/Applications/ArmGNUToolchain/13.2.Rel1/arm-none-eabi/arm-none-eabi/include/c++/13.2.1/bits/basic_string.h ****    *  @c push_back, @c at, and @c %array access are supported.
  85:/Applications/ArmGNUToolchain/13.2.Rel1/arm-none-eabi/arm-none-eabi/include/c++/13.2.1/bits/basic_string.h ****    */
  86:/Applications/ArmGNUToolchain/13.2.Rel1/arm-none-eabi/arm-none-eabi/include/c++/13.2.1/bits/basic_string.h ****   template<typename _CharT, typename _Traits, typename _Alloc>
  87:/Applications/ArmGNUToolchain/13.2.Rel1/arm-none-eabi/arm-none-eabi/include/c++/13.2.1/bits/basic_string.h ****     class basic_string
  88:/Applications/ArmGNUToolchain/13.2.Rel1/arm-none-eabi/arm-none-eabi/include/c++/13.2.1/bits/basic_string.h ****     {
  89:/Applications/ArmGNUToolchain/13.2.Rel1/arm-none-eabi/arm-none-eabi/include/c++/13.2.1/bits/basic_string.h ****       typedef typename __gnu_cxx::__alloc_traits<_Alloc>::template
  90:/Applications/ArmGNUToolchain/13.2.Rel1/arm-none-eabi/arm-none-eabi/include/c++/13.2.1/bits/basic_string.h **** 	rebind<_CharT>::other _Char_alloc_type;
  91:/Applications/ArmGNUToolchain/13.2.Rel1/arm-none-eabi/arm-none-eabi/include/c++/13.2.1/bits/basic_string.h **** 
  92:/Applications/ArmGNUToolchain/13.2.Rel1/arm-none-eabi/arm-none-eabi/include/c++/13.2.1/bits/basic_string.h ****       typedef __gnu_cxx::__alloc_traits<_Char_alloc_type> _Alloc_traits;
  93:/Applications/ArmGNUToolchain/13.2.Rel1/arm-none-eabi/arm-none-eabi/include/c++/13.2.1/bits/basic_string.h **** 
  94:/Applications/ArmGNUToolchain/13.2.Rel1/arm-none-eabi/arm-none-eabi/include/c++/13.2.1/bits/basic_string.h ****       // Types:
  95:/Applications/ArmGNUToolchain/13.2.Rel1/arm-none-eabi/arm-none-eabi/include/c++/13.2.1/bits/basic_string.h ****     public:
  96:/Applications/ArmGNUToolchain/13.2.Rel1/arm-none-eabi/arm-none-eabi/include/c++/13.2.1/bits/basic_string.h ****       typedef _Traits					traits_type;
  97:/Applications/ArmGNUToolchain/13.2.Rel1/arm-none-eabi/arm-none-eabi/include/c++/13.2.1/bits/basic_string.h ****       typedef typename _Traits::char_type		value_type;
  98:/Applications/ArmGNUToolchain/13.2.Rel1/arm-none-eabi/arm-none-eabi/include/c++/13.2.1/bits/basic_string.h ****       typedef _Char_alloc_type				allocator_type;
  99:/Applications/ArmGNUToolchain/13.2.Rel1/arm-none-eabi/arm-none-eabi/include/c++/13.2.1/bits/basic_string.h ****       typedef typename _Alloc_traits::size_type		size_type;
 100:/Applications/ArmGNUToolchain/13.2.Rel1/arm-none-eabi/arm-none-eabi/include/c++/13.2.1/bits/basic_string.h ****       typedef typename _Alloc_traits::difference_type	difference_type;
 101:/Applications/ArmGNUToolchain/13.2.Rel1/arm-none-eabi/arm-none-eabi/include/c++/13.2.1/bits/basic_string.h ****       typedef typename _Alloc_traits::reference		reference;
 102:/Applications/ArmGNUToolchain/13.2.Rel1/arm-none-eabi/arm-none-eabi/include/c++/13.2.1/bits/basic_string.h ****       typedef typename _Alloc_traits::const_reference	const_reference;
 103:/Applications/ArmGNUToolchain/13.2.Rel1/arm-none-eabi/arm-none-eabi/include/c++/13.2.1/bits/basic_string.h ****       typedef typename _Alloc_traits::pointer		pointer;
 104:/Applications/ArmGNUToolchain/13.2.Rel1/arm-none-eabi/arm-none-eabi/include/c++/13.2.1/bits/basic_string.h ****       typedef typename _Alloc_traits::const_pointer	const_pointer;
 105:/Applications/ArmGNUToolchain/13.2.Rel1/arm-none-eabi/arm-none-eabi/include/c++/13.2.1/bits/basic_string.h ****       typedef __gnu_cxx::__normal_iterator<pointer, basic_string>  iterator;
 106:/Applications/ArmGNUToolchain/13.2.Rel1/arm-none-eabi/arm-none-eabi/include/c++/13.2.1/bits/basic_string.h ****       typedef __gnu_cxx::__normal_iterator<const_pointer, basic_string>
 107:/Applications/ArmGNUToolchain/13.2.Rel1/arm-none-eabi/arm-none-eabi/include/c++/13.2.1/bits/basic_string.h **** 							const_iterator;
 108:/Applications/ArmGNUToolchain/13.2.Rel1/arm-none-eabi/arm-none-eabi/include/c++/13.2.1/bits/basic_string.h ****       typedef std::reverse_iterator<const_iterator>	const_reverse_iterator;
 109:/Applications/ArmGNUToolchain/13.2.Rel1/arm-none-eabi/arm-none-eabi/include/c++/13.2.1/bits/basic_string.h ****       typedef std::reverse_iterator<iterator>		reverse_iterator;
 110:/Applications/ArmGNUToolchain/13.2.Rel1/arm-none-eabi/arm-none-eabi/include/c++/13.2.1/bits/basic_string.h **** 
 111:/Applications/ArmGNUToolchain/13.2.Rel1/arm-none-eabi/arm-none-eabi/include/c++/13.2.1/bits/basic_string.h ****       ///  Value returned by various member functions when they fail.
 112:/Applications/ArmGNUToolchain/13.2.Rel1/arm-none-eabi/arm-none-eabi/include/c++/13.2.1/bits/basic_string.h ****       static const size_type	npos = static_cast<size_type>(-1);
 113:/Applications/ArmGNUToolchain/13.2.Rel1/arm-none-eabi/arm-none-eabi/include/c++/13.2.1/bits/basic_string.h **** 
 114:/Applications/ArmGNUToolchain/13.2.Rel1/arm-none-eabi/arm-none-eabi/include/c++/13.2.1/bits/basic_string.h ****     protected:
 115:/Applications/ArmGNUToolchain/13.2.Rel1/arm-none-eabi/arm-none-eabi/include/c++/13.2.1/bits/basic_string.h ****       // type used for positions in insert, erase etc.
 116:/Applications/ArmGNUToolchain/13.2.Rel1/arm-none-eabi/arm-none-eabi/include/c++/13.2.1/bits/basic_string.h **** #if __cplusplus < 201103L
 117:/Applications/ArmGNUToolchain/13.2.Rel1/arm-none-eabi/arm-none-eabi/include/c++/13.2.1/bits/basic_string.h ****       typedef iterator __const_iterator;
 118:/Applications/ArmGNUToolchain/13.2.Rel1/arm-none-eabi/arm-none-eabi/include/c++/13.2.1/bits/basic_string.h **** #else
 119:/Applications/ArmGNUToolchain/13.2.Rel1/arm-none-eabi/arm-none-eabi/include/c++/13.2.1/bits/basic_string.h ****       typedef const_iterator __const_iterator;
 120:/Applications/ArmGNUToolchain/13.2.Rel1/arm-none-eabi/arm-none-eabi/include/c++/13.2.1/bits/basic_string.h **** #endif
 121:/Applications/ArmGNUToolchain/13.2.Rel1/arm-none-eabi/arm-none-eabi/include/c++/13.2.1/bits/basic_string.h **** 
 122:/Applications/ArmGNUToolchain/13.2.Rel1/arm-none-eabi/arm-none-eabi/include/c++/13.2.1/bits/basic_string.h ****     private:
ARM GAS  /var/folders/83/vwtnzcdn1v99b_lf0k0gsjzr0000gn/T//ccSBqmD1.s 			page 39


 123:/Applications/ArmGNUToolchain/13.2.Rel1/arm-none-eabi/arm-none-eabi/include/c++/13.2.1/bits/basic_string.h ****       static _GLIBCXX20_CONSTEXPR pointer
 124:/Applications/ArmGNUToolchain/13.2.Rel1/arm-none-eabi/arm-none-eabi/include/c++/13.2.1/bits/basic_string.h ****       _S_allocate(_Char_alloc_type& __a, size_type __n)
 125:/Applications/ArmGNUToolchain/13.2.Rel1/arm-none-eabi/arm-none-eabi/include/c++/13.2.1/bits/basic_string.h ****       {
 126:/Applications/ArmGNUToolchain/13.2.Rel1/arm-none-eabi/arm-none-eabi/include/c++/13.2.1/bits/basic_string.h **** 	pointer __p = _Alloc_traits::allocate(__a, __n);
 127:/Applications/ArmGNUToolchain/13.2.Rel1/arm-none-eabi/arm-none-eabi/include/c++/13.2.1/bits/basic_string.h **** #if __cpp_lib_constexpr_string >= 201907L
 128:/Applications/ArmGNUToolchain/13.2.Rel1/arm-none-eabi/arm-none-eabi/include/c++/13.2.1/bits/basic_string.h **** 	// std::char_traits begins the lifetime of characters,
 129:/Applications/ArmGNUToolchain/13.2.Rel1/arm-none-eabi/arm-none-eabi/include/c++/13.2.1/bits/basic_string.h **** 	// but custom traits might not, so do it here.
 130:/Applications/ArmGNUToolchain/13.2.Rel1/arm-none-eabi/arm-none-eabi/include/c++/13.2.1/bits/basic_string.h **** 	if constexpr (!is_same_v<_Traits, char_traits<_CharT>>)
 131:/Applications/ArmGNUToolchain/13.2.Rel1/arm-none-eabi/arm-none-eabi/include/c++/13.2.1/bits/basic_string.h **** 	  if (std::__is_constant_evaluated())
 132:/Applications/ArmGNUToolchain/13.2.Rel1/arm-none-eabi/arm-none-eabi/include/c++/13.2.1/bits/basic_string.h **** 	    // Begin the lifetime of characters in allocated storage.
 133:/Applications/ArmGNUToolchain/13.2.Rel1/arm-none-eabi/arm-none-eabi/include/c++/13.2.1/bits/basic_string.h **** 	    for (size_type __i = 0; __i < __n; ++__i)
 134:/Applications/ArmGNUToolchain/13.2.Rel1/arm-none-eabi/arm-none-eabi/include/c++/13.2.1/bits/basic_string.h **** 	      std::construct_at(__builtin_addressof(__p[__i]));
 135:/Applications/ArmGNUToolchain/13.2.Rel1/arm-none-eabi/arm-none-eabi/include/c++/13.2.1/bits/basic_string.h **** #endif
 136:/Applications/ArmGNUToolchain/13.2.Rel1/arm-none-eabi/arm-none-eabi/include/c++/13.2.1/bits/basic_string.h **** 	return __p;
 137:/Applications/ArmGNUToolchain/13.2.Rel1/arm-none-eabi/arm-none-eabi/include/c++/13.2.1/bits/basic_string.h ****       }
 138:/Applications/ArmGNUToolchain/13.2.Rel1/arm-none-eabi/arm-none-eabi/include/c++/13.2.1/bits/basic_string.h **** 
 139:/Applications/ArmGNUToolchain/13.2.Rel1/arm-none-eabi/arm-none-eabi/include/c++/13.2.1/bits/basic_string.h **** #if __cplusplus >= 201703L
 140:/Applications/ArmGNUToolchain/13.2.Rel1/arm-none-eabi/arm-none-eabi/include/c++/13.2.1/bits/basic_string.h ****       // A helper type for avoiding boiler-plate.
 141:/Applications/ArmGNUToolchain/13.2.Rel1/arm-none-eabi/arm-none-eabi/include/c++/13.2.1/bits/basic_string.h ****       typedef basic_string_view<_CharT, _Traits> __sv_type;
 142:/Applications/ArmGNUToolchain/13.2.Rel1/arm-none-eabi/arm-none-eabi/include/c++/13.2.1/bits/basic_string.h **** 
 143:/Applications/ArmGNUToolchain/13.2.Rel1/arm-none-eabi/arm-none-eabi/include/c++/13.2.1/bits/basic_string.h ****       template<typename _Tp, typename _Res>
 144:/Applications/ArmGNUToolchain/13.2.Rel1/arm-none-eabi/arm-none-eabi/include/c++/13.2.1/bits/basic_string.h **** 	using _If_sv = enable_if_t<
 145:/Applications/ArmGNUToolchain/13.2.Rel1/arm-none-eabi/arm-none-eabi/include/c++/13.2.1/bits/basic_string.h **** 	  __and_<is_convertible<const _Tp&, __sv_type>,
 146:/Applications/ArmGNUToolchain/13.2.Rel1/arm-none-eabi/arm-none-eabi/include/c++/13.2.1/bits/basic_string.h **** 		 __not_<is_convertible<const _Tp*, const basic_string*>>,
 147:/Applications/ArmGNUToolchain/13.2.Rel1/arm-none-eabi/arm-none-eabi/include/c++/13.2.1/bits/basic_string.h **** 		 __not_<is_convertible<const _Tp&, const _CharT*>>>::value,
 148:/Applications/ArmGNUToolchain/13.2.Rel1/arm-none-eabi/arm-none-eabi/include/c++/13.2.1/bits/basic_string.h **** 	  _Res>;
 149:/Applications/ArmGNUToolchain/13.2.Rel1/arm-none-eabi/arm-none-eabi/include/c++/13.2.1/bits/basic_string.h **** 
 150:/Applications/ArmGNUToolchain/13.2.Rel1/arm-none-eabi/arm-none-eabi/include/c++/13.2.1/bits/basic_string.h ****       // Allows an implicit conversion to __sv_type.
 151:/Applications/ArmGNUToolchain/13.2.Rel1/arm-none-eabi/arm-none-eabi/include/c++/13.2.1/bits/basic_string.h ****       _GLIBCXX20_CONSTEXPR
 152:/Applications/ArmGNUToolchain/13.2.Rel1/arm-none-eabi/arm-none-eabi/include/c++/13.2.1/bits/basic_string.h ****       static __sv_type
 153:/Applications/ArmGNUToolchain/13.2.Rel1/arm-none-eabi/arm-none-eabi/include/c++/13.2.1/bits/basic_string.h ****       _S_to_string_view(__sv_type __svt) noexcept
 154:/Applications/ArmGNUToolchain/13.2.Rel1/arm-none-eabi/arm-none-eabi/include/c++/13.2.1/bits/basic_string.h ****       { return __svt; }
 155:/Applications/ArmGNUToolchain/13.2.Rel1/arm-none-eabi/arm-none-eabi/include/c++/13.2.1/bits/basic_string.h **** 
 156:/Applications/ArmGNUToolchain/13.2.Rel1/arm-none-eabi/arm-none-eabi/include/c++/13.2.1/bits/basic_string.h ****       // Wraps a string_view by explicit conversion and thus
 157:/Applications/ArmGNUToolchain/13.2.Rel1/arm-none-eabi/arm-none-eabi/include/c++/13.2.1/bits/basic_string.h ****       // allows to add an internal constructor that does not
 158:/Applications/ArmGNUToolchain/13.2.Rel1/arm-none-eabi/arm-none-eabi/include/c++/13.2.1/bits/basic_string.h ****       // participate in overload resolution when a string_view
 159:/Applications/ArmGNUToolchain/13.2.Rel1/arm-none-eabi/arm-none-eabi/include/c++/13.2.1/bits/basic_string.h ****       // is provided.
 160:/Applications/ArmGNUToolchain/13.2.Rel1/arm-none-eabi/arm-none-eabi/include/c++/13.2.1/bits/basic_string.h ****       struct __sv_wrapper
 161:/Applications/ArmGNUToolchain/13.2.Rel1/arm-none-eabi/arm-none-eabi/include/c++/13.2.1/bits/basic_string.h ****       {
 162:/Applications/ArmGNUToolchain/13.2.Rel1/arm-none-eabi/arm-none-eabi/include/c++/13.2.1/bits/basic_string.h **** 	_GLIBCXX20_CONSTEXPR explicit
 163:/Applications/ArmGNUToolchain/13.2.Rel1/arm-none-eabi/arm-none-eabi/include/c++/13.2.1/bits/basic_string.h **** 	__sv_wrapper(__sv_type __sv) noexcept : _M_sv(__sv) { }
 164:/Applications/ArmGNUToolchain/13.2.Rel1/arm-none-eabi/arm-none-eabi/include/c++/13.2.1/bits/basic_string.h **** 
 165:/Applications/ArmGNUToolchain/13.2.Rel1/arm-none-eabi/arm-none-eabi/include/c++/13.2.1/bits/basic_string.h **** 	__sv_type _M_sv;
 166:/Applications/ArmGNUToolchain/13.2.Rel1/arm-none-eabi/arm-none-eabi/include/c++/13.2.1/bits/basic_string.h ****       };
 167:/Applications/ArmGNUToolchain/13.2.Rel1/arm-none-eabi/arm-none-eabi/include/c++/13.2.1/bits/basic_string.h **** 
 168:/Applications/ArmGNUToolchain/13.2.Rel1/arm-none-eabi/arm-none-eabi/include/c++/13.2.1/bits/basic_string.h ****       /**
 169:/Applications/ArmGNUToolchain/13.2.Rel1/arm-none-eabi/arm-none-eabi/include/c++/13.2.1/bits/basic_string.h ****        *  @brief  Only internally used: Construct string from a string view
 170:/Applications/ArmGNUToolchain/13.2.Rel1/arm-none-eabi/arm-none-eabi/include/c++/13.2.1/bits/basic_string.h ****        *          wrapper.
 171:/Applications/ArmGNUToolchain/13.2.Rel1/arm-none-eabi/arm-none-eabi/include/c++/13.2.1/bits/basic_string.h ****        *  @param  __svw  string view wrapper.
 172:/Applications/ArmGNUToolchain/13.2.Rel1/arm-none-eabi/arm-none-eabi/include/c++/13.2.1/bits/basic_string.h ****        *  @param  __a  Allocator to use.
 173:/Applications/ArmGNUToolchain/13.2.Rel1/arm-none-eabi/arm-none-eabi/include/c++/13.2.1/bits/basic_string.h ****        */
 174:/Applications/ArmGNUToolchain/13.2.Rel1/arm-none-eabi/arm-none-eabi/include/c++/13.2.1/bits/basic_string.h ****       _GLIBCXX20_CONSTEXPR
 175:/Applications/ArmGNUToolchain/13.2.Rel1/arm-none-eabi/arm-none-eabi/include/c++/13.2.1/bits/basic_string.h ****       explicit
 176:/Applications/ArmGNUToolchain/13.2.Rel1/arm-none-eabi/arm-none-eabi/include/c++/13.2.1/bits/basic_string.h ****       basic_string(__sv_wrapper __svw, const _Alloc& __a)
 177:/Applications/ArmGNUToolchain/13.2.Rel1/arm-none-eabi/arm-none-eabi/include/c++/13.2.1/bits/basic_string.h ****       : basic_string(__svw._M_sv.data(), __svw._M_sv.size(), __a) { }
 178:/Applications/ArmGNUToolchain/13.2.Rel1/arm-none-eabi/arm-none-eabi/include/c++/13.2.1/bits/basic_string.h **** #endif
 179:/Applications/ArmGNUToolchain/13.2.Rel1/arm-none-eabi/arm-none-eabi/include/c++/13.2.1/bits/basic_string.h **** 
ARM GAS  /var/folders/83/vwtnzcdn1v99b_lf0k0gsjzr0000gn/T//ccSBqmD1.s 			page 40


 180:/Applications/ArmGNUToolchain/13.2.Rel1/arm-none-eabi/arm-none-eabi/include/c++/13.2.1/bits/basic_string.h ****       // Use empty-base optimization: http://www.cantrip.org/emptyopt.html
 181:/Applications/ArmGNUToolchain/13.2.Rel1/arm-none-eabi/arm-none-eabi/include/c++/13.2.1/bits/basic_string.h ****       struct _Alloc_hider : allocator_type // TODO check __is_final
 182:/Applications/ArmGNUToolchain/13.2.Rel1/arm-none-eabi/arm-none-eabi/include/c++/13.2.1/bits/basic_string.h ****       {
 183:/Applications/ArmGNUToolchain/13.2.Rel1/arm-none-eabi/arm-none-eabi/include/c++/13.2.1/bits/basic_string.h **** #if __cplusplus < 201103L
 184:/Applications/ArmGNUToolchain/13.2.Rel1/arm-none-eabi/arm-none-eabi/include/c++/13.2.1/bits/basic_string.h **** 	_Alloc_hider(pointer __dat, const _Alloc& __a = _Alloc())
 185:/Applications/ArmGNUToolchain/13.2.Rel1/arm-none-eabi/arm-none-eabi/include/c++/13.2.1/bits/basic_string.h **** 	: allocator_type(__a), _M_p(__dat) { }
 186:/Applications/ArmGNUToolchain/13.2.Rel1/arm-none-eabi/arm-none-eabi/include/c++/13.2.1/bits/basic_string.h **** #else
 187:/Applications/ArmGNUToolchain/13.2.Rel1/arm-none-eabi/arm-none-eabi/include/c++/13.2.1/bits/basic_string.h **** 	_GLIBCXX20_CONSTEXPR
 188:/Applications/ArmGNUToolchain/13.2.Rel1/arm-none-eabi/arm-none-eabi/include/c++/13.2.1/bits/basic_string.h **** 	_Alloc_hider(pointer __dat, const _Alloc& __a)
 189:/Applications/ArmGNUToolchain/13.2.Rel1/arm-none-eabi/arm-none-eabi/include/c++/13.2.1/bits/basic_string.h **** 	: allocator_type(__a), _M_p(__dat) { }
 190:/Applications/ArmGNUToolchain/13.2.Rel1/arm-none-eabi/arm-none-eabi/include/c++/13.2.1/bits/basic_string.h **** 
 191:/Applications/ArmGNUToolchain/13.2.Rel1/arm-none-eabi/arm-none-eabi/include/c++/13.2.1/bits/basic_string.h **** 	_GLIBCXX20_CONSTEXPR
 192:/Applications/ArmGNUToolchain/13.2.Rel1/arm-none-eabi/arm-none-eabi/include/c++/13.2.1/bits/basic_string.h **** 	_Alloc_hider(pointer __dat, _Alloc&& __a = _Alloc())
 193:/Applications/ArmGNUToolchain/13.2.Rel1/arm-none-eabi/arm-none-eabi/include/c++/13.2.1/bits/basic_string.h **** 	: allocator_type(std::move(__a)), _M_p(__dat) { }
 194:/Applications/ArmGNUToolchain/13.2.Rel1/arm-none-eabi/arm-none-eabi/include/c++/13.2.1/bits/basic_string.h **** #endif
 195:/Applications/ArmGNUToolchain/13.2.Rel1/arm-none-eabi/arm-none-eabi/include/c++/13.2.1/bits/basic_string.h **** 
 196:/Applications/ArmGNUToolchain/13.2.Rel1/arm-none-eabi/arm-none-eabi/include/c++/13.2.1/bits/basic_string.h **** 	pointer _M_p; // The actual data.
 197:/Applications/ArmGNUToolchain/13.2.Rel1/arm-none-eabi/arm-none-eabi/include/c++/13.2.1/bits/basic_string.h ****       };
 198:/Applications/ArmGNUToolchain/13.2.Rel1/arm-none-eabi/arm-none-eabi/include/c++/13.2.1/bits/basic_string.h **** 
 199:/Applications/ArmGNUToolchain/13.2.Rel1/arm-none-eabi/arm-none-eabi/include/c++/13.2.1/bits/basic_string.h ****       _Alloc_hider	_M_dataplus;
 200:/Applications/ArmGNUToolchain/13.2.Rel1/arm-none-eabi/arm-none-eabi/include/c++/13.2.1/bits/basic_string.h ****       size_type		_M_string_length;
 201:/Applications/ArmGNUToolchain/13.2.Rel1/arm-none-eabi/arm-none-eabi/include/c++/13.2.1/bits/basic_string.h **** 
 202:/Applications/ArmGNUToolchain/13.2.Rel1/arm-none-eabi/arm-none-eabi/include/c++/13.2.1/bits/basic_string.h ****       enum { _S_local_capacity = 15 / sizeof(_CharT) };
 203:/Applications/ArmGNUToolchain/13.2.Rel1/arm-none-eabi/arm-none-eabi/include/c++/13.2.1/bits/basic_string.h **** 
 204:/Applications/ArmGNUToolchain/13.2.Rel1/arm-none-eabi/arm-none-eabi/include/c++/13.2.1/bits/basic_string.h ****       union
 205:/Applications/ArmGNUToolchain/13.2.Rel1/arm-none-eabi/arm-none-eabi/include/c++/13.2.1/bits/basic_string.h ****       {
 206:/Applications/ArmGNUToolchain/13.2.Rel1/arm-none-eabi/arm-none-eabi/include/c++/13.2.1/bits/basic_string.h **** 	_CharT           _M_local_buf[_S_local_capacity + 1];
 207:/Applications/ArmGNUToolchain/13.2.Rel1/arm-none-eabi/arm-none-eabi/include/c++/13.2.1/bits/basic_string.h **** 	size_type        _M_allocated_capacity;
 208:/Applications/ArmGNUToolchain/13.2.Rel1/arm-none-eabi/arm-none-eabi/include/c++/13.2.1/bits/basic_string.h ****       };
 209:/Applications/ArmGNUToolchain/13.2.Rel1/arm-none-eabi/arm-none-eabi/include/c++/13.2.1/bits/basic_string.h **** 
 210:/Applications/ArmGNUToolchain/13.2.Rel1/arm-none-eabi/arm-none-eabi/include/c++/13.2.1/bits/basic_string.h ****       _GLIBCXX20_CONSTEXPR
 211:/Applications/ArmGNUToolchain/13.2.Rel1/arm-none-eabi/arm-none-eabi/include/c++/13.2.1/bits/basic_string.h ****       void
 212:/Applications/ArmGNUToolchain/13.2.Rel1/arm-none-eabi/arm-none-eabi/include/c++/13.2.1/bits/basic_string.h ****       _M_data(pointer __p)
 213:/Applications/ArmGNUToolchain/13.2.Rel1/arm-none-eabi/arm-none-eabi/include/c++/13.2.1/bits/basic_string.h ****       { _M_dataplus._M_p = __p; }
 214:/Applications/ArmGNUToolchain/13.2.Rel1/arm-none-eabi/arm-none-eabi/include/c++/13.2.1/bits/basic_string.h **** 
 215:/Applications/ArmGNUToolchain/13.2.Rel1/arm-none-eabi/arm-none-eabi/include/c++/13.2.1/bits/basic_string.h ****       _GLIBCXX20_CONSTEXPR
 216:/Applications/ArmGNUToolchain/13.2.Rel1/arm-none-eabi/arm-none-eabi/include/c++/13.2.1/bits/basic_string.h ****       void
 217:/Applications/ArmGNUToolchain/13.2.Rel1/arm-none-eabi/arm-none-eabi/include/c++/13.2.1/bits/basic_string.h ****       _M_length(size_type __length)
 218:/Applications/ArmGNUToolchain/13.2.Rel1/arm-none-eabi/arm-none-eabi/include/c++/13.2.1/bits/basic_string.h ****       { _M_string_length = __length; }
 219:/Applications/ArmGNUToolchain/13.2.Rel1/arm-none-eabi/arm-none-eabi/include/c++/13.2.1/bits/basic_string.h **** 
 220:/Applications/ArmGNUToolchain/13.2.Rel1/arm-none-eabi/arm-none-eabi/include/c++/13.2.1/bits/basic_string.h ****       _GLIBCXX20_CONSTEXPR
 221:/Applications/ArmGNUToolchain/13.2.Rel1/arm-none-eabi/arm-none-eabi/include/c++/13.2.1/bits/basic_string.h ****       pointer
 222:/Applications/ArmGNUToolchain/13.2.Rel1/arm-none-eabi/arm-none-eabi/include/c++/13.2.1/bits/basic_string.h ****       _M_data() const
 223:/Applications/ArmGNUToolchain/13.2.Rel1/arm-none-eabi/arm-none-eabi/include/c++/13.2.1/bits/basic_string.h ****       { return _M_dataplus._M_p; }
 224:/Applications/ArmGNUToolchain/13.2.Rel1/arm-none-eabi/arm-none-eabi/include/c++/13.2.1/bits/basic_string.h **** 
 225:/Applications/ArmGNUToolchain/13.2.Rel1/arm-none-eabi/arm-none-eabi/include/c++/13.2.1/bits/basic_string.h ****       _GLIBCXX20_CONSTEXPR
 226:/Applications/ArmGNUToolchain/13.2.Rel1/arm-none-eabi/arm-none-eabi/include/c++/13.2.1/bits/basic_string.h ****       pointer
 227:/Applications/ArmGNUToolchain/13.2.Rel1/arm-none-eabi/arm-none-eabi/include/c++/13.2.1/bits/basic_string.h ****       _M_local_data()
 228:/Applications/ArmGNUToolchain/13.2.Rel1/arm-none-eabi/arm-none-eabi/include/c++/13.2.1/bits/basic_string.h ****       {
 229:/Applications/ArmGNUToolchain/13.2.Rel1/arm-none-eabi/arm-none-eabi/include/c++/13.2.1/bits/basic_string.h **** #if __cplusplus >= 201103L
 230:/Applications/ArmGNUToolchain/13.2.Rel1/arm-none-eabi/arm-none-eabi/include/c++/13.2.1/bits/basic_string.h **** 	return std::pointer_traits<pointer>::pointer_to(*_M_local_buf);
 231:/Applications/ArmGNUToolchain/13.2.Rel1/arm-none-eabi/arm-none-eabi/include/c++/13.2.1/bits/basic_string.h **** #else
 232:/Applications/ArmGNUToolchain/13.2.Rel1/arm-none-eabi/arm-none-eabi/include/c++/13.2.1/bits/basic_string.h **** 	return pointer(_M_local_buf);
 233:/Applications/ArmGNUToolchain/13.2.Rel1/arm-none-eabi/arm-none-eabi/include/c++/13.2.1/bits/basic_string.h **** #endif
 234:/Applications/ArmGNUToolchain/13.2.Rel1/arm-none-eabi/arm-none-eabi/include/c++/13.2.1/bits/basic_string.h ****       }
 235:/Applications/ArmGNUToolchain/13.2.Rel1/arm-none-eabi/arm-none-eabi/include/c++/13.2.1/bits/basic_string.h **** 
 236:/Applications/ArmGNUToolchain/13.2.Rel1/arm-none-eabi/arm-none-eabi/include/c++/13.2.1/bits/basic_string.h ****       _GLIBCXX20_CONSTEXPR
ARM GAS  /var/folders/83/vwtnzcdn1v99b_lf0k0gsjzr0000gn/T//ccSBqmD1.s 			page 41


 237:/Applications/ArmGNUToolchain/13.2.Rel1/arm-none-eabi/arm-none-eabi/include/c++/13.2.1/bits/basic_string.h ****       const_pointer
 238:/Applications/ArmGNUToolchain/13.2.Rel1/arm-none-eabi/arm-none-eabi/include/c++/13.2.1/bits/basic_string.h ****       _M_local_data() const
 239:/Applications/ArmGNUToolchain/13.2.Rel1/arm-none-eabi/arm-none-eabi/include/c++/13.2.1/bits/basic_string.h ****       {
 240:/Applications/ArmGNUToolchain/13.2.Rel1/arm-none-eabi/arm-none-eabi/include/c++/13.2.1/bits/basic_string.h **** #if __cplusplus >= 201103L
 241:/Applications/ArmGNUToolchain/13.2.Rel1/arm-none-eabi/arm-none-eabi/include/c++/13.2.1/bits/basic_string.h **** 	return std::pointer_traits<const_pointer>::pointer_to(*_M_local_buf);
 242:/Applications/ArmGNUToolchain/13.2.Rel1/arm-none-eabi/arm-none-eabi/include/c++/13.2.1/bits/basic_string.h **** #else
 243:/Applications/ArmGNUToolchain/13.2.Rel1/arm-none-eabi/arm-none-eabi/include/c++/13.2.1/bits/basic_string.h **** 	return const_pointer(_M_local_buf);
 244:/Applications/ArmGNUToolchain/13.2.Rel1/arm-none-eabi/arm-none-eabi/include/c++/13.2.1/bits/basic_string.h **** #endif
 245:/Applications/ArmGNUToolchain/13.2.Rel1/arm-none-eabi/arm-none-eabi/include/c++/13.2.1/bits/basic_string.h ****       }
 246:/Applications/ArmGNUToolchain/13.2.Rel1/arm-none-eabi/arm-none-eabi/include/c++/13.2.1/bits/basic_string.h **** 
 247:/Applications/ArmGNUToolchain/13.2.Rel1/arm-none-eabi/arm-none-eabi/include/c++/13.2.1/bits/basic_string.h ****       _GLIBCXX20_CONSTEXPR
 248:/Applications/ArmGNUToolchain/13.2.Rel1/arm-none-eabi/arm-none-eabi/include/c++/13.2.1/bits/basic_string.h ****       void
 249:/Applications/ArmGNUToolchain/13.2.Rel1/arm-none-eabi/arm-none-eabi/include/c++/13.2.1/bits/basic_string.h ****       _M_capacity(size_type __capacity)
 250:/Applications/ArmGNUToolchain/13.2.Rel1/arm-none-eabi/arm-none-eabi/include/c++/13.2.1/bits/basic_string.h ****       { _M_allocated_capacity = __capacity; }
 251:/Applications/ArmGNUToolchain/13.2.Rel1/arm-none-eabi/arm-none-eabi/include/c++/13.2.1/bits/basic_string.h **** 
 252:/Applications/ArmGNUToolchain/13.2.Rel1/arm-none-eabi/arm-none-eabi/include/c++/13.2.1/bits/basic_string.h ****       _GLIBCXX20_CONSTEXPR
 253:/Applications/ArmGNUToolchain/13.2.Rel1/arm-none-eabi/arm-none-eabi/include/c++/13.2.1/bits/basic_string.h ****       void
 254:/Applications/ArmGNUToolchain/13.2.Rel1/arm-none-eabi/arm-none-eabi/include/c++/13.2.1/bits/basic_string.h ****       _M_set_length(size_type __n)
 255:/Applications/ArmGNUToolchain/13.2.Rel1/arm-none-eabi/arm-none-eabi/include/c++/13.2.1/bits/basic_string.h ****       {
 256:/Applications/ArmGNUToolchain/13.2.Rel1/arm-none-eabi/arm-none-eabi/include/c++/13.2.1/bits/basic_string.h **** 	_M_length(__n);
 257:/Applications/ArmGNUToolchain/13.2.Rel1/arm-none-eabi/arm-none-eabi/include/c++/13.2.1/bits/basic_string.h **** 	traits_type::assign(_M_data()[__n], _CharT());
 258:/Applications/ArmGNUToolchain/13.2.Rel1/arm-none-eabi/arm-none-eabi/include/c++/13.2.1/bits/basic_string.h ****       }
 259:/Applications/ArmGNUToolchain/13.2.Rel1/arm-none-eabi/arm-none-eabi/include/c++/13.2.1/bits/basic_string.h **** 
 260:/Applications/ArmGNUToolchain/13.2.Rel1/arm-none-eabi/arm-none-eabi/include/c++/13.2.1/bits/basic_string.h ****       _GLIBCXX20_CONSTEXPR
 261:/Applications/ArmGNUToolchain/13.2.Rel1/arm-none-eabi/arm-none-eabi/include/c++/13.2.1/bits/basic_string.h ****       bool
 262:/Applications/ArmGNUToolchain/13.2.Rel1/arm-none-eabi/arm-none-eabi/include/c++/13.2.1/bits/basic_string.h ****       _M_is_local() const
 263:/Applications/ArmGNUToolchain/13.2.Rel1/arm-none-eabi/arm-none-eabi/include/c++/13.2.1/bits/basic_string.h ****       {
 264:/Applications/ArmGNUToolchain/13.2.Rel1/arm-none-eabi/arm-none-eabi/include/c++/13.2.1/bits/basic_string.h **** 	if (_M_data() == _M_local_data())
 265:/Applications/ArmGNUToolchain/13.2.Rel1/arm-none-eabi/arm-none-eabi/include/c++/13.2.1/bits/basic_string.h **** 	  {
 266:/Applications/ArmGNUToolchain/13.2.Rel1/arm-none-eabi/arm-none-eabi/include/c++/13.2.1/bits/basic_string.h **** 	    if (_M_string_length > _S_local_capacity)
 267:/Applications/ArmGNUToolchain/13.2.Rel1/arm-none-eabi/arm-none-eabi/include/c++/13.2.1/bits/basic_string.h **** 	      __builtin_unreachable();
 268:/Applications/ArmGNUToolchain/13.2.Rel1/arm-none-eabi/arm-none-eabi/include/c++/13.2.1/bits/basic_string.h **** 	    return true;
 269:/Applications/ArmGNUToolchain/13.2.Rel1/arm-none-eabi/arm-none-eabi/include/c++/13.2.1/bits/basic_string.h **** 	  }
 270:/Applications/ArmGNUToolchain/13.2.Rel1/arm-none-eabi/arm-none-eabi/include/c++/13.2.1/bits/basic_string.h **** 	return false;
 271:/Applications/ArmGNUToolchain/13.2.Rel1/arm-none-eabi/arm-none-eabi/include/c++/13.2.1/bits/basic_string.h ****       }
 272:/Applications/ArmGNUToolchain/13.2.Rel1/arm-none-eabi/arm-none-eabi/include/c++/13.2.1/bits/basic_string.h **** 
 273:/Applications/ArmGNUToolchain/13.2.Rel1/arm-none-eabi/arm-none-eabi/include/c++/13.2.1/bits/basic_string.h ****       // Create & Destroy
 274:/Applications/ArmGNUToolchain/13.2.Rel1/arm-none-eabi/arm-none-eabi/include/c++/13.2.1/bits/basic_string.h ****       _GLIBCXX20_CONSTEXPR
 275:/Applications/ArmGNUToolchain/13.2.Rel1/arm-none-eabi/arm-none-eabi/include/c++/13.2.1/bits/basic_string.h ****       pointer
 276:/Applications/ArmGNUToolchain/13.2.Rel1/arm-none-eabi/arm-none-eabi/include/c++/13.2.1/bits/basic_string.h ****       _M_create(size_type&, size_type);
 277:/Applications/ArmGNUToolchain/13.2.Rel1/arm-none-eabi/arm-none-eabi/include/c++/13.2.1/bits/basic_string.h **** 
 278:/Applications/ArmGNUToolchain/13.2.Rel1/arm-none-eabi/arm-none-eabi/include/c++/13.2.1/bits/basic_string.h ****       _GLIBCXX20_CONSTEXPR
 279:/Applications/ArmGNUToolchain/13.2.Rel1/arm-none-eabi/arm-none-eabi/include/c++/13.2.1/bits/basic_string.h ****       void
 280:/Applications/ArmGNUToolchain/13.2.Rel1/arm-none-eabi/arm-none-eabi/include/c++/13.2.1/bits/basic_string.h ****       _M_dispose()
 281:/Applications/ArmGNUToolchain/13.2.Rel1/arm-none-eabi/arm-none-eabi/include/c++/13.2.1/bits/basic_string.h ****       {
 282:/Applications/ArmGNUToolchain/13.2.Rel1/arm-none-eabi/arm-none-eabi/include/c++/13.2.1/bits/basic_string.h **** 	if (!_M_is_local())
 283:/Applications/ArmGNUToolchain/13.2.Rel1/arm-none-eabi/arm-none-eabi/include/c++/13.2.1/bits/basic_string.h **** 	  _M_destroy(_M_allocated_capacity);
 284:/Applications/ArmGNUToolchain/13.2.Rel1/arm-none-eabi/arm-none-eabi/include/c++/13.2.1/bits/basic_string.h ****       }
 285:/Applications/ArmGNUToolchain/13.2.Rel1/arm-none-eabi/arm-none-eabi/include/c++/13.2.1/bits/basic_string.h **** 
 286:/Applications/ArmGNUToolchain/13.2.Rel1/arm-none-eabi/arm-none-eabi/include/c++/13.2.1/bits/basic_string.h ****       _GLIBCXX20_CONSTEXPR
 287:/Applications/ArmGNUToolchain/13.2.Rel1/arm-none-eabi/arm-none-eabi/include/c++/13.2.1/bits/basic_string.h ****       void
 288:/Applications/ArmGNUToolchain/13.2.Rel1/arm-none-eabi/arm-none-eabi/include/c++/13.2.1/bits/basic_string.h ****       _M_destroy(size_type __size) throw()
 289:/Applications/ArmGNUToolchain/13.2.Rel1/arm-none-eabi/arm-none-eabi/include/c++/13.2.1/bits/basic_string.h ****       { _Alloc_traits::deallocate(_M_get_allocator(), _M_data(), __size + 1); }
 290:/Applications/ArmGNUToolchain/13.2.Rel1/arm-none-eabi/arm-none-eabi/include/c++/13.2.1/bits/basic_string.h **** 
 291:/Applications/ArmGNUToolchain/13.2.Rel1/arm-none-eabi/arm-none-eabi/include/c++/13.2.1/bits/basic_string.h **** #if __cplusplus < 201103L || defined _GLIBCXX_DEFINING_STRING_INSTANTIATIONS
 292:/Applications/ArmGNUToolchain/13.2.Rel1/arm-none-eabi/arm-none-eabi/include/c++/13.2.1/bits/basic_string.h ****       // _M_construct_aux is used to implement the 21.3.1 para 15 which
 293:/Applications/ArmGNUToolchain/13.2.Rel1/arm-none-eabi/arm-none-eabi/include/c++/13.2.1/bits/basic_string.h ****       // requires special behaviour if _InIterator is an integral type
ARM GAS  /var/folders/83/vwtnzcdn1v99b_lf0k0gsjzr0000gn/T//ccSBqmD1.s 			page 42


 294:/Applications/ArmGNUToolchain/13.2.Rel1/arm-none-eabi/arm-none-eabi/include/c++/13.2.1/bits/basic_string.h ****       template<typename _InIterator>
 295:/Applications/ArmGNUToolchain/13.2.Rel1/arm-none-eabi/arm-none-eabi/include/c++/13.2.1/bits/basic_string.h ****         void
 296:/Applications/ArmGNUToolchain/13.2.Rel1/arm-none-eabi/arm-none-eabi/include/c++/13.2.1/bits/basic_string.h ****         _M_construct_aux(_InIterator __beg, _InIterator __end,
 297:/Applications/ArmGNUToolchain/13.2.Rel1/arm-none-eabi/arm-none-eabi/include/c++/13.2.1/bits/basic_string.h **** 			 std::__false_type)
 298:/Applications/ArmGNUToolchain/13.2.Rel1/arm-none-eabi/arm-none-eabi/include/c++/13.2.1/bits/basic_string.h **** 	{
 299:/Applications/ArmGNUToolchain/13.2.Rel1/arm-none-eabi/arm-none-eabi/include/c++/13.2.1/bits/basic_string.h ****           typedef typename iterator_traits<_InIterator>::iterator_category _Tag;
 300:/Applications/ArmGNUToolchain/13.2.Rel1/arm-none-eabi/arm-none-eabi/include/c++/13.2.1/bits/basic_string.h ****           _M_construct(__beg, __end, _Tag());
 301:/Applications/ArmGNUToolchain/13.2.Rel1/arm-none-eabi/arm-none-eabi/include/c++/13.2.1/bits/basic_string.h **** 	}
 302:/Applications/ArmGNUToolchain/13.2.Rel1/arm-none-eabi/arm-none-eabi/include/c++/13.2.1/bits/basic_string.h **** 
 303:/Applications/ArmGNUToolchain/13.2.Rel1/arm-none-eabi/arm-none-eabi/include/c++/13.2.1/bits/basic_string.h ****       // _GLIBCXX_RESOLVE_LIB_DEFECTS
 304:/Applications/ArmGNUToolchain/13.2.Rel1/arm-none-eabi/arm-none-eabi/include/c++/13.2.1/bits/basic_string.h ****       // 438. Ambiguity in the "do the right thing" clause
 305:/Applications/ArmGNUToolchain/13.2.Rel1/arm-none-eabi/arm-none-eabi/include/c++/13.2.1/bits/basic_string.h ****       template<typename _Integer>
 306:/Applications/ArmGNUToolchain/13.2.Rel1/arm-none-eabi/arm-none-eabi/include/c++/13.2.1/bits/basic_string.h ****         void
 307:/Applications/ArmGNUToolchain/13.2.Rel1/arm-none-eabi/arm-none-eabi/include/c++/13.2.1/bits/basic_string.h ****         _M_construct_aux(_Integer __beg, _Integer __end, std::__true_type)
 308:/Applications/ArmGNUToolchain/13.2.Rel1/arm-none-eabi/arm-none-eabi/include/c++/13.2.1/bits/basic_string.h **** 	{ _M_construct_aux_2(static_cast<size_type>(__beg), __end); }
 309:/Applications/ArmGNUToolchain/13.2.Rel1/arm-none-eabi/arm-none-eabi/include/c++/13.2.1/bits/basic_string.h **** 
 310:/Applications/ArmGNUToolchain/13.2.Rel1/arm-none-eabi/arm-none-eabi/include/c++/13.2.1/bits/basic_string.h ****       void
 311:/Applications/ArmGNUToolchain/13.2.Rel1/arm-none-eabi/arm-none-eabi/include/c++/13.2.1/bits/basic_string.h ****       _M_construct_aux_2(size_type __req, _CharT __c)
 312:/Applications/ArmGNUToolchain/13.2.Rel1/arm-none-eabi/arm-none-eabi/include/c++/13.2.1/bits/basic_string.h ****       { _M_construct(__req, __c); }
 313:/Applications/ArmGNUToolchain/13.2.Rel1/arm-none-eabi/arm-none-eabi/include/c++/13.2.1/bits/basic_string.h **** #endif
 314:/Applications/ArmGNUToolchain/13.2.Rel1/arm-none-eabi/arm-none-eabi/include/c++/13.2.1/bits/basic_string.h **** 
 315:/Applications/ArmGNUToolchain/13.2.Rel1/arm-none-eabi/arm-none-eabi/include/c++/13.2.1/bits/basic_string.h ****       // For Input Iterators, used in istreambuf_iterators, etc.
 316:/Applications/ArmGNUToolchain/13.2.Rel1/arm-none-eabi/arm-none-eabi/include/c++/13.2.1/bits/basic_string.h ****       template<typename _InIterator>
 317:/Applications/ArmGNUToolchain/13.2.Rel1/arm-none-eabi/arm-none-eabi/include/c++/13.2.1/bits/basic_string.h **** 	_GLIBCXX20_CONSTEXPR
 318:/Applications/ArmGNUToolchain/13.2.Rel1/arm-none-eabi/arm-none-eabi/include/c++/13.2.1/bits/basic_string.h ****         void
 319:/Applications/ArmGNUToolchain/13.2.Rel1/arm-none-eabi/arm-none-eabi/include/c++/13.2.1/bits/basic_string.h ****         _M_construct(_InIterator __beg, _InIterator __end,
 320:/Applications/ArmGNUToolchain/13.2.Rel1/arm-none-eabi/arm-none-eabi/include/c++/13.2.1/bits/basic_string.h **** 		     std::input_iterator_tag);
 321:/Applications/ArmGNUToolchain/13.2.Rel1/arm-none-eabi/arm-none-eabi/include/c++/13.2.1/bits/basic_string.h **** 
 322:/Applications/ArmGNUToolchain/13.2.Rel1/arm-none-eabi/arm-none-eabi/include/c++/13.2.1/bits/basic_string.h ****       // For forward_iterators up to random_access_iterators, used for
 323:/Applications/ArmGNUToolchain/13.2.Rel1/arm-none-eabi/arm-none-eabi/include/c++/13.2.1/bits/basic_string.h ****       // string::iterator, _CharT*, etc.
 324:/Applications/ArmGNUToolchain/13.2.Rel1/arm-none-eabi/arm-none-eabi/include/c++/13.2.1/bits/basic_string.h ****       template<typename _FwdIterator>
 325:/Applications/ArmGNUToolchain/13.2.Rel1/arm-none-eabi/arm-none-eabi/include/c++/13.2.1/bits/basic_string.h **** 	_GLIBCXX20_CONSTEXPR
 326:/Applications/ArmGNUToolchain/13.2.Rel1/arm-none-eabi/arm-none-eabi/include/c++/13.2.1/bits/basic_string.h ****         void
 327:/Applications/ArmGNUToolchain/13.2.Rel1/arm-none-eabi/arm-none-eabi/include/c++/13.2.1/bits/basic_string.h ****         _M_construct(_FwdIterator __beg, _FwdIterator __end,
 328:/Applications/ArmGNUToolchain/13.2.Rel1/arm-none-eabi/arm-none-eabi/include/c++/13.2.1/bits/basic_string.h **** 		     std::forward_iterator_tag);
 329:/Applications/ArmGNUToolchain/13.2.Rel1/arm-none-eabi/arm-none-eabi/include/c++/13.2.1/bits/basic_string.h **** 
 330:/Applications/ArmGNUToolchain/13.2.Rel1/arm-none-eabi/arm-none-eabi/include/c++/13.2.1/bits/basic_string.h ****       _GLIBCXX20_CONSTEXPR
 331:/Applications/ArmGNUToolchain/13.2.Rel1/arm-none-eabi/arm-none-eabi/include/c++/13.2.1/bits/basic_string.h ****       void
 332:/Applications/ArmGNUToolchain/13.2.Rel1/arm-none-eabi/arm-none-eabi/include/c++/13.2.1/bits/basic_string.h ****       _M_construct(size_type __req, _CharT __c);
 333:/Applications/ArmGNUToolchain/13.2.Rel1/arm-none-eabi/arm-none-eabi/include/c++/13.2.1/bits/basic_string.h **** 
 334:/Applications/ArmGNUToolchain/13.2.Rel1/arm-none-eabi/arm-none-eabi/include/c++/13.2.1/bits/basic_string.h ****       _GLIBCXX20_CONSTEXPR
 335:/Applications/ArmGNUToolchain/13.2.Rel1/arm-none-eabi/arm-none-eabi/include/c++/13.2.1/bits/basic_string.h ****       allocator_type&
 336:/Applications/ArmGNUToolchain/13.2.Rel1/arm-none-eabi/arm-none-eabi/include/c++/13.2.1/bits/basic_string.h ****       _M_get_allocator()
 337:/Applications/ArmGNUToolchain/13.2.Rel1/arm-none-eabi/arm-none-eabi/include/c++/13.2.1/bits/basic_string.h ****       { return _M_dataplus; }
 338:/Applications/ArmGNUToolchain/13.2.Rel1/arm-none-eabi/arm-none-eabi/include/c++/13.2.1/bits/basic_string.h **** 
 339:/Applications/ArmGNUToolchain/13.2.Rel1/arm-none-eabi/arm-none-eabi/include/c++/13.2.1/bits/basic_string.h ****       _GLIBCXX20_CONSTEXPR
 340:/Applications/ArmGNUToolchain/13.2.Rel1/arm-none-eabi/arm-none-eabi/include/c++/13.2.1/bits/basic_string.h ****       const allocator_type&
 341:/Applications/ArmGNUToolchain/13.2.Rel1/arm-none-eabi/arm-none-eabi/include/c++/13.2.1/bits/basic_string.h ****       _M_get_allocator() const
 342:/Applications/ArmGNUToolchain/13.2.Rel1/arm-none-eabi/arm-none-eabi/include/c++/13.2.1/bits/basic_string.h ****       { return _M_dataplus; }
 343:/Applications/ArmGNUToolchain/13.2.Rel1/arm-none-eabi/arm-none-eabi/include/c++/13.2.1/bits/basic_string.h **** 
 344:/Applications/ArmGNUToolchain/13.2.Rel1/arm-none-eabi/arm-none-eabi/include/c++/13.2.1/bits/basic_string.h ****       // Ensure that _M_local_buf is the active member of the union.
 345:/Applications/ArmGNUToolchain/13.2.Rel1/arm-none-eabi/arm-none-eabi/include/c++/13.2.1/bits/basic_string.h ****       __attribute__((__always_inline__))
 346:/Applications/ArmGNUToolchain/13.2.Rel1/arm-none-eabi/arm-none-eabi/include/c++/13.2.1/bits/basic_string.h ****       _GLIBCXX14_CONSTEXPR
 347:/Applications/ArmGNUToolchain/13.2.Rel1/arm-none-eabi/arm-none-eabi/include/c++/13.2.1/bits/basic_string.h ****       pointer
 348:/Applications/ArmGNUToolchain/13.2.Rel1/arm-none-eabi/arm-none-eabi/include/c++/13.2.1/bits/basic_string.h ****       _M_use_local_data() _GLIBCXX_NOEXCEPT
 349:/Applications/ArmGNUToolchain/13.2.Rel1/arm-none-eabi/arm-none-eabi/include/c++/13.2.1/bits/basic_string.h ****       {
 350:/Applications/ArmGNUToolchain/13.2.Rel1/arm-none-eabi/arm-none-eabi/include/c++/13.2.1/bits/basic_string.h **** #if __cpp_lib_is_constant_evaluated
ARM GAS  /var/folders/83/vwtnzcdn1v99b_lf0k0gsjzr0000gn/T//ccSBqmD1.s 			page 43


 351:/Applications/ArmGNUToolchain/13.2.Rel1/arm-none-eabi/arm-none-eabi/include/c++/13.2.1/bits/basic_string.h **** 	if (std::is_constant_evaluated())
 352:/Applications/ArmGNUToolchain/13.2.Rel1/arm-none-eabi/arm-none-eabi/include/c++/13.2.1/bits/basic_string.h **** 	  for (size_type __i = 0; __i <= _S_local_capacity; ++__i)
 353:/Applications/ArmGNUToolchain/13.2.Rel1/arm-none-eabi/arm-none-eabi/include/c++/13.2.1/bits/basic_string.h **** 	    _M_local_buf[__i] = _CharT();
 354:/Applications/ArmGNUToolchain/13.2.Rel1/arm-none-eabi/arm-none-eabi/include/c++/13.2.1/bits/basic_string.h **** #endif
 355:/Applications/ArmGNUToolchain/13.2.Rel1/arm-none-eabi/arm-none-eabi/include/c++/13.2.1/bits/basic_string.h **** 	return _M_local_data();
 356:/Applications/ArmGNUToolchain/13.2.Rel1/arm-none-eabi/arm-none-eabi/include/c++/13.2.1/bits/basic_string.h ****       }
 357:/Applications/ArmGNUToolchain/13.2.Rel1/arm-none-eabi/arm-none-eabi/include/c++/13.2.1/bits/basic_string.h **** 
 358:/Applications/ArmGNUToolchain/13.2.Rel1/arm-none-eabi/arm-none-eabi/include/c++/13.2.1/bits/basic_string.h ****     private:
 359:/Applications/ArmGNUToolchain/13.2.Rel1/arm-none-eabi/arm-none-eabi/include/c++/13.2.1/bits/basic_string.h **** 
 360:/Applications/ArmGNUToolchain/13.2.Rel1/arm-none-eabi/arm-none-eabi/include/c++/13.2.1/bits/basic_string.h **** #ifdef _GLIBCXX_DISAMBIGUATE_REPLACE_INST
 361:/Applications/ArmGNUToolchain/13.2.Rel1/arm-none-eabi/arm-none-eabi/include/c++/13.2.1/bits/basic_string.h ****       // The explicit instantiations in misc-inst.cc require this due to
 362:/Applications/ArmGNUToolchain/13.2.Rel1/arm-none-eabi/arm-none-eabi/include/c++/13.2.1/bits/basic_string.h ****       // https://gcc.gnu.org/bugzilla/show_bug.cgi?id=64063
 363:/Applications/ArmGNUToolchain/13.2.Rel1/arm-none-eabi/arm-none-eabi/include/c++/13.2.1/bits/basic_string.h ****       template<typename _Tp, bool _Requires =
 364:/Applications/ArmGNUToolchain/13.2.Rel1/arm-none-eabi/arm-none-eabi/include/c++/13.2.1/bits/basic_string.h **** 	       !__are_same<_Tp, _CharT*>::__value
 365:/Applications/ArmGNUToolchain/13.2.Rel1/arm-none-eabi/arm-none-eabi/include/c++/13.2.1/bits/basic_string.h **** 	       && !__are_same<_Tp, const _CharT*>::__value
 366:/Applications/ArmGNUToolchain/13.2.Rel1/arm-none-eabi/arm-none-eabi/include/c++/13.2.1/bits/basic_string.h **** 	       && !__are_same<_Tp, iterator>::__value
 367:/Applications/ArmGNUToolchain/13.2.Rel1/arm-none-eabi/arm-none-eabi/include/c++/13.2.1/bits/basic_string.h **** 	       && !__are_same<_Tp, const_iterator>::__value>
 368:/Applications/ArmGNUToolchain/13.2.Rel1/arm-none-eabi/arm-none-eabi/include/c++/13.2.1/bits/basic_string.h **** 	struct __enable_if_not_native_iterator
 369:/Applications/ArmGNUToolchain/13.2.Rel1/arm-none-eabi/arm-none-eabi/include/c++/13.2.1/bits/basic_string.h **** 	{ typedef basic_string& __type; };
 370:/Applications/ArmGNUToolchain/13.2.Rel1/arm-none-eabi/arm-none-eabi/include/c++/13.2.1/bits/basic_string.h ****       template<typename _Tp>
 371:/Applications/ArmGNUToolchain/13.2.Rel1/arm-none-eabi/arm-none-eabi/include/c++/13.2.1/bits/basic_string.h **** 	struct __enable_if_not_native_iterator<_Tp, false> { };
 372:/Applications/ArmGNUToolchain/13.2.Rel1/arm-none-eabi/arm-none-eabi/include/c++/13.2.1/bits/basic_string.h **** #endif
 373:/Applications/ArmGNUToolchain/13.2.Rel1/arm-none-eabi/arm-none-eabi/include/c++/13.2.1/bits/basic_string.h **** 
 374:/Applications/ArmGNUToolchain/13.2.Rel1/arm-none-eabi/arm-none-eabi/include/c++/13.2.1/bits/basic_string.h ****       _GLIBCXX20_CONSTEXPR
 375:/Applications/ArmGNUToolchain/13.2.Rel1/arm-none-eabi/arm-none-eabi/include/c++/13.2.1/bits/basic_string.h ****       size_type
 376:/Applications/ArmGNUToolchain/13.2.Rel1/arm-none-eabi/arm-none-eabi/include/c++/13.2.1/bits/basic_string.h ****       _M_check(size_type __pos, const char* __s) const
 377:/Applications/ArmGNUToolchain/13.2.Rel1/arm-none-eabi/arm-none-eabi/include/c++/13.2.1/bits/basic_string.h ****       {
 378:/Applications/ArmGNUToolchain/13.2.Rel1/arm-none-eabi/arm-none-eabi/include/c++/13.2.1/bits/basic_string.h **** 	if (__pos > this->size())
 379:/Applications/ArmGNUToolchain/13.2.Rel1/arm-none-eabi/arm-none-eabi/include/c++/13.2.1/bits/basic_string.h **** 	  __throw_out_of_range_fmt(__N("%s: __pos (which is %zu) > "
 380:/Applications/ArmGNUToolchain/13.2.Rel1/arm-none-eabi/arm-none-eabi/include/c++/13.2.1/bits/basic_string.h **** 				       "this->size() (which is %zu)"),
 381:/Applications/ArmGNUToolchain/13.2.Rel1/arm-none-eabi/arm-none-eabi/include/c++/13.2.1/bits/basic_string.h **** 				   __s, __pos, this->size());
 382:/Applications/ArmGNUToolchain/13.2.Rel1/arm-none-eabi/arm-none-eabi/include/c++/13.2.1/bits/basic_string.h **** 	return __pos;
 383:/Applications/ArmGNUToolchain/13.2.Rel1/arm-none-eabi/arm-none-eabi/include/c++/13.2.1/bits/basic_string.h ****       }
 384:/Applications/ArmGNUToolchain/13.2.Rel1/arm-none-eabi/arm-none-eabi/include/c++/13.2.1/bits/basic_string.h **** 
 385:/Applications/ArmGNUToolchain/13.2.Rel1/arm-none-eabi/arm-none-eabi/include/c++/13.2.1/bits/basic_string.h ****       _GLIBCXX20_CONSTEXPR
 386:/Applications/ArmGNUToolchain/13.2.Rel1/arm-none-eabi/arm-none-eabi/include/c++/13.2.1/bits/basic_string.h ****       void
 387:/Applications/ArmGNUToolchain/13.2.Rel1/arm-none-eabi/arm-none-eabi/include/c++/13.2.1/bits/basic_string.h ****       _M_check_length(size_type __n1, size_type __n2, const char* __s) const
 388:/Applications/ArmGNUToolchain/13.2.Rel1/arm-none-eabi/arm-none-eabi/include/c++/13.2.1/bits/basic_string.h ****       {
 389:/Applications/ArmGNUToolchain/13.2.Rel1/arm-none-eabi/arm-none-eabi/include/c++/13.2.1/bits/basic_string.h **** 	if (this->max_size() - (this->size() - __n1) < __n2)
 390:/Applications/ArmGNUToolchain/13.2.Rel1/arm-none-eabi/arm-none-eabi/include/c++/13.2.1/bits/basic_string.h **** 	  __throw_length_error(__N(__s));
 391:/Applications/ArmGNUToolchain/13.2.Rel1/arm-none-eabi/arm-none-eabi/include/c++/13.2.1/bits/basic_string.h ****       }
 392:/Applications/ArmGNUToolchain/13.2.Rel1/arm-none-eabi/arm-none-eabi/include/c++/13.2.1/bits/basic_string.h **** 
 393:/Applications/ArmGNUToolchain/13.2.Rel1/arm-none-eabi/arm-none-eabi/include/c++/13.2.1/bits/basic_string.h **** 
 394:/Applications/ArmGNUToolchain/13.2.Rel1/arm-none-eabi/arm-none-eabi/include/c++/13.2.1/bits/basic_string.h ****       // NB: _M_limit doesn't check for a bad __pos value.
 395:/Applications/ArmGNUToolchain/13.2.Rel1/arm-none-eabi/arm-none-eabi/include/c++/13.2.1/bits/basic_string.h ****       _GLIBCXX20_CONSTEXPR
 396:/Applications/ArmGNUToolchain/13.2.Rel1/arm-none-eabi/arm-none-eabi/include/c++/13.2.1/bits/basic_string.h ****       size_type
 397:/Applications/ArmGNUToolchain/13.2.Rel1/arm-none-eabi/arm-none-eabi/include/c++/13.2.1/bits/basic_string.h ****       _M_limit(size_type __pos, size_type __off) const _GLIBCXX_NOEXCEPT
 398:/Applications/ArmGNUToolchain/13.2.Rel1/arm-none-eabi/arm-none-eabi/include/c++/13.2.1/bits/basic_string.h ****       {
 399:/Applications/ArmGNUToolchain/13.2.Rel1/arm-none-eabi/arm-none-eabi/include/c++/13.2.1/bits/basic_string.h **** 	const bool __testoff =  __off < this->size() - __pos;
 400:/Applications/ArmGNUToolchain/13.2.Rel1/arm-none-eabi/arm-none-eabi/include/c++/13.2.1/bits/basic_string.h **** 	return __testoff ? __off : this->size() - __pos;
 401:/Applications/ArmGNUToolchain/13.2.Rel1/arm-none-eabi/arm-none-eabi/include/c++/13.2.1/bits/basic_string.h ****       }
 402:/Applications/ArmGNUToolchain/13.2.Rel1/arm-none-eabi/arm-none-eabi/include/c++/13.2.1/bits/basic_string.h **** 
 403:/Applications/ArmGNUToolchain/13.2.Rel1/arm-none-eabi/arm-none-eabi/include/c++/13.2.1/bits/basic_string.h ****       // True if _Rep and source do not overlap.
 404:/Applications/ArmGNUToolchain/13.2.Rel1/arm-none-eabi/arm-none-eabi/include/c++/13.2.1/bits/basic_string.h ****       bool
 405:/Applications/ArmGNUToolchain/13.2.Rel1/arm-none-eabi/arm-none-eabi/include/c++/13.2.1/bits/basic_string.h ****       _M_disjunct(const _CharT* __s) const _GLIBCXX_NOEXCEPT
 406:/Applications/ArmGNUToolchain/13.2.Rel1/arm-none-eabi/arm-none-eabi/include/c++/13.2.1/bits/basic_string.h ****       {
 407:/Applications/ArmGNUToolchain/13.2.Rel1/arm-none-eabi/arm-none-eabi/include/c++/13.2.1/bits/basic_string.h **** 	return (less<const _CharT*>()(__s, _M_data())
ARM GAS  /var/folders/83/vwtnzcdn1v99b_lf0k0gsjzr0000gn/T//ccSBqmD1.s 			page 44


 408:/Applications/ArmGNUToolchain/13.2.Rel1/arm-none-eabi/arm-none-eabi/include/c++/13.2.1/bits/basic_string.h **** 		|| less<const _CharT*>()(_M_data() + this->size(), __s));
 409:/Applications/ArmGNUToolchain/13.2.Rel1/arm-none-eabi/arm-none-eabi/include/c++/13.2.1/bits/basic_string.h ****       }
 410:/Applications/ArmGNUToolchain/13.2.Rel1/arm-none-eabi/arm-none-eabi/include/c++/13.2.1/bits/basic_string.h **** 
 411:/Applications/ArmGNUToolchain/13.2.Rel1/arm-none-eabi/arm-none-eabi/include/c++/13.2.1/bits/basic_string.h ****       // When __n = 1 way faster than the general multichar
 412:/Applications/ArmGNUToolchain/13.2.Rel1/arm-none-eabi/arm-none-eabi/include/c++/13.2.1/bits/basic_string.h ****       // traits_type::copy/move/assign.
 413:/Applications/ArmGNUToolchain/13.2.Rel1/arm-none-eabi/arm-none-eabi/include/c++/13.2.1/bits/basic_string.h ****       _GLIBCXX20_CONSTEXPR
 414:/Applications/ArmGNUToolchain/13.2.Rel1/arm-none-eabi/arm-none-eabi/include/c++/13.2.1/bits/basic_string.h ****       static void
 415:/Applications/ArmGNUToolchain/13.2.Rel1/arm-none-eabi/arm-none-eabi/include/c++/13.2.1/bits/basic_string.h ****       _S_copy(_CharT* __d, const _CharT* __s, size_type __n)
 416:/Applications/ArmGNUToolchain/13.2.Rel1/arm-none-eabi/arm-none-eabi/include/c++/13.2.1/bits/basic_string.h ****       {
 417:/Applications/ArmGNUToolchain/13.2.Rel1/arm-none-eabi/arm-none-eabi/include/c++/13.2.1/bits/basic_string.h **** 	if (__n == 1)
 418:/Applications/ArmGNUToolchain/13.2.Rel1/arm-none-eabi/arm-none-eabi/include/c++/13.2.1/bits/basic_string.h **** 	  traits_type::assign(*__d, *__s);
 419:/Applications/ArmGNUToolchain/13.2.Rel1/arm-none-eabi/arm-none-eabi/include/c++/13.2.1/bits/basic_string.h **** 	else
 420:/Applications/ArmGNUToolchain/13.2.Rel1/arm-none-eabi/arm-none-eabi/include/c++/13.2.1/bits/basic_string.h **** 	  traits_type::copy(__d, __s, __n);
 421:/Applications/ArmGNUToolchain/13.2.Rel1/arm-none-eabi/arm-none-eabi/include/c++/13.2.1/bits/basic_string.h ****       }
 422:/Applications/ArmGNUToolchain/13.2.Rel1/arm-none-eabi/arm-none-eabi/include/c++/13.2.1/bits/basic_string.h **** 
 423:/Applications/ArmGNUToolchain/13.2.Rel1/arm-none-eabi/arm-none-eabi/include/c++/13.2.1/bits/basic_string.h ****       _GLIBCXX20_CONSTEXPR
 424:/Applications/ArmGNUToolchain/13.2.Rel1/arm-none-eabi/arm-none-eabi/include/c++/13.2.1/bits/basic_string.h ****       static void
 425:/Applications/ArmGNUToolchain/13.2.Rel1/arm-none-eabi/arm-none-eabi/include/c++/13.2.1/bits/basic_string.h ****       _S_move(_CharT* __d, const _CharT* __s, size_type __n)
 426:/Applications/ArmGNUToolchain/13.2.Rel1/arm-none-eabi/arm-none-eabi/include/c++/13.2.1/bits/basic_string.h ****       {
 427:/Applications/ArmGNUToolchain/13.2.Rel1/arm-none-eabi/arm-none-eabi/include/c++/13.2.1/bits/basic_string.h **** 	if (__n == 1)
 428:/Applications/ArmGNUToolchain/13.2.Rel1/arm-none-eabi/arm-none-eabi/include/c++/13.2.1/bits/basic_string.h **** 	  traits_type::assign(*__d, *__s);
 429:/Applications/ArmGNUToolchain/13.2.Rel1/arm-none-eabi/arm-none-eabi/include/c++/13.2.1/bits/basic_string.h **** 	else
 430:/Applications/ArmGNUToolchain/13.2.Rel1/arm-none-eabi/arm-none-eabi/include/c++/13.2.1/bits/basic_string.h **** 	  traits_type::move(__d, __s, __n);
 431:/Applications/ArmGNUToolchain/13.2.Rel1/arm-none-eabi/arm-none-eabi/include/c++/13.2.1/bits/basic_string.h ****       }
 432:/Applications/ArmGNUToolchain/13.2.Rel1/arm-none-eabi/arm-none-eabi/include/c++/13.2.1/bits/basic_string.h **** 
 433:/Applications/ArmGNUToolchain/13.2.Rel1/arm-none-eabi/arm-none-eabi/include/c++/13.2.1/bits/basic_string.h ****       _GLIBCXX20_CONSTEXPR
 434:/Applications/ArmGNUToolchain/13.2.Rel1/arm-none-eabi/arm-none-eabi/include/c++/13.2.1/bits/basic_string.h ****       static void
 435:/Applications/ArmGNUToolchain/13.2.Rel1/arm-none-eabi/arm-none-eabi/include/c++/13.2.1/bits/basic_string.h ****       _S_assign(_CharT* __d, size_type __n, _CharT __c)
 436:/Applications/ArmGNUToolchain/13.2.Rel1/arm-none-eabi/arm-none-eabi/include/c++/13.2.1/bits/basic_string.h ****       {
 437:/Applications/ArmGNUToolchain/13.2.Rel1/arm-none-eabi/arm-none-eabi/include/c++/13.2.1/bits/basic_string.h **** 	if (__n == 1)
 438:/Applications/ArmGNUToolchain/13.2.Rel1/arm-none-eabi/arm-none-eabi/include/c++/13.2.1/bits/basic_string.h **** 	  traits_type::assign(*__d, __c);
 439:/Applications/ArmGNUToolchain/13.2.Rel1/arm-none-eabi/arm-none-eabi/include/c++/13.2.1/bits/basic_string.h **** 	else
 440:/Applications/ArmGNUToolchain/13.2.Rel1/arm-none-eabi/arm-none-eabi/include/c++/13.2.1/bits/basic_string.h **** 	  traits_type::assign(__d, __n, __c);
 441:/Applications/ArmGNUToolchain/13.2.Rel1/arm-none-eabi/arm-none-eabi/include/c++/13.2.1/bits/basic_string.h ****       }
 442:/Applications/ArmGNUToolchain/13.2.Rel1/arm-none-eabi/arm-none-eabi/include/c++/13.2.1/bits/basic_string.h **** 
 443:/Applications/ArmGNUToolchain/13.2.Rel1/arm-none-eabi/arm-none-eabi/include/c++/13.2.1/bits/basic_string.h ****       // _S_copy_chars is a separate template to permit specialization
 444:/Applications/ArmGNUToolchain/13.2.Rel1/arm-none-eabi/arm-none-eabi/include/c++/13.2.1/bits/basic_string.h ****       // to optimize for the common case of pointers as iterators.
 445:/Applications/ArmGNUToolchain/13.2.Rel1/arm-none-eabi/arm-none-eabi/include/c++/13.2.1/bits/basic_string.h ****       template<class _Iterator>
 446:/Applications/ArmGNUToolchain/13.2.Rel1/arm-none-eabi/arm-none-eabi/include/c++/13.2.1/bits/basic_string.h **** 	_GLIBCXX20_CONSTEXPR
 447:/Applications/ArmGNUToolchain/13.2.Rel1/arm-none-eabi/arm-none-eabi/include/c++/13.2.1/bits/basic_string.h ****         static void
 448:/Applications/ArmGNUToolchain/13.2.Rel1/arm-none-eabi/arm-none-eabi/include/c++/13.2.1/bits/basic_string.h ****         _S_copy_chars(_CharT* __p, _Iterator __k1, _Iterator __k2)
 449:/Applications/ArmGNUToolchain/13.2.Rel1/arm-none-eabi/arm-none-eabi/include/c++/13.2.1/bits/basic_string.h ****         {
 450:/Applications/ArmGNUToolchain/13.2.Rel1/arm-none-eabi/arm-none-eabi/include/c++/13.2.1/bits/basic_string.h **** 	  for (; __k1 != __k2; ++__k1, (void)++__p)
 451:/Applications/ArmGNUToolchain/13.2.Rel1/arm-none-eabi/arm-none-eabi/include/c++/13.2.1/bits/basic_string.h **** 	    traits_type::assign(*__p, *__k1); // These types are off.
 452:/Applications/ArmGNUToolchain/13.2.Rel1/arm-none-eabi/arm-none-eabi/include/c++/13.2.1/bits/basic_string.h **** 	}
 453:/Applications/ArmGNUToolchain/13.2.Rel1/arm-none-eabi/arm-none-eabi/include/c++/13.2.1/bits/basic_string.h **** 
 454:/Applications/ArmGNUToolchain/13.2.Rel1/arm-none-eabi/arm-none-eabi/include/c++/13.2.1/bits/basic_string.h ****       _GLIBCXX20_CONSTEXPR
 455:/Applications/ArmGNUToolchain/13.2.Rel1/arm-none-eabi/arm-none-eabi/include/c++/13.2.1/bits/basic_string.h ****       static void
 456:/Applications/ArmGNUToolchain/13.2.Rel1/arm-none-eabi/arm-none-eabi/include/c++/13.2.1/bits/basic_string.h ****       _S_copy_chars(_CharT* __p, iterator __k1, iterator __k2) _GLIBCXX_NOEXCEPT
 457:/Applications/ArmGNUToolchain/13.2.Rel1/arm-none-eabi/arm-none-eabi/include/c++/13.2.1/bits/basic_string.h ****       { _S_copy_chars(__p, __k1.base(), __k2.base()); }
 458:/Applications/ArmGNUToolchain/13.2.Rel1/arm-none-eabi/arm-none-eabi/include/c++/13.2.1/bits/basic_string.h **** 
 459:/Applications/ArmGNUToolchain/13.2.Rel1/arm-none-eabi/arm-none-eabi/include/c++/13.2.1/bits/basic_string.h ****       _GLIBCXX20_CONSTEXPR
 460:/Applications/ArmGNUToolchain/13.2.Rel1/arm-none-eabi/arm-none-eabi/include/c++/13.2.1/bits/basic_string.h ****       static void
 461:/Applications/ArmGNUToolchain/13.2.Rel1/arm-none-eabi/arm-none-eabi/include/c++/13.2.1/bits/basic_string.h ****       _S_copy_chars(_CharT* __p, const_iterator __k1, const_iterator __k2)
 462:/Applications/ArmGNUToolchain/13.2.Rel1/arm-none-eabi/arm-none-eabi/include/c++/13.2.1/bits/basic_string.h ****       _GLIBCXX_NOEXCEPT
 463:/Applications/ArmGNUToolchain/13.2.Rel1/arm-none-eabi/arm-none-eabi/include/c++/13.2.1/bits/basic_string.h ****       { _S_copy_chars(__p, __k1.base(), __k2.base()); }
 464:/Applications/ArmGNUToolchain/13.2.Rel1/arm-none-eabi/arm-none-eabi/include/c++/13.2.1/bits/basic_string.h **** 
ARM GAS  /var/folders/83/vwtnzcdn1v99b_lf0k0gsjzr0000gn/T//ccSBqmD1.s 			page 45


 465:/Applications/ArmGNUToolchain/13.2.Rel1/arm-none-eabi/arm-none-eabi/include/c++/13.2.1/bits/basic_string.h ****       _GLIBCXX20_CONSTEXPR
 466:/Applications/ArmGNUToolchain/13.2.Rel1/arm-none-eabi/arm-none-eabi/include/c++/13.2.1/bits/basic_string.h ****       static void
 467:/Applications/ArmGNUToolchain/13.2.Rel1/arm-none-eabi/arm-none-eabi/include/c++/13.2.1/bits/basic_string.h ****       _S_copy_chars(_CharT* __p, _CharT* __k1, _CharT* __k2) _GLIBCXX_NOEXCEPT
 468:/Applications/ArmGNUToolchain/13.2.Rel1/arm-none-eabi/arm-none-eabi/include/c++/13.2.1/bits/basic_string.h ****       { _S_copy(__p, __k1, __k2 - __k1); }
 469:/Applications/ArmGNUToolchain/13.2.Rel1/arm-none-eabi/arm-none-eabi/include/c++/13.2.1/bits/basic_string.h **** 
 470:/Applications/ArmGNUToolchain/13.2.Rel1/arm-none-eabi/arm-none-eabi/include/c++/13.2.1/bits/basic_string.h ****       _GLIBCXX20_CONSTEXPR
 471:/Applications/ArmGNUToolchain/13.2.Rel1/arm-none-eabi/arm-none-eabi/include/c++/13.2.1/bits/basic_string.h ****       static void
 472:/Applications/ArmGNUToolchain/13.2.Rel1/arm-none-eabi/arm-none-eabi/include/c++/13.2.1/bits/basic_string.h ****       _S_copy_chars(_CharT* __p, const _CharT* __k1, const _CharT* __k2)
 473:/Applications/ArmGNUToolchain/13.2.Rel1/arm-none-eabi/arm-none-eabi/include/c++/13.2.1/bits/basic_string.h ****       _GLIBCXX_NOEXCEPT
 474:/Applications/ArmGNUToolchain/13.2.Rel1/arm-none-eabi/arm-none-eabi/include/c++/13.2.1/bits/basic_string.h ****       { _S_copy(__p, __k1, __k2 - __k1); }
 475:/Applications/ArmGNUToolchain/13.2.Rel1/arm-none-eabi/arm-none-eabi/include/c++/13.2.1/bits/basic_string.h **** 
 476:/Applications/ArmGNUToolchain/13.2.Rel1/arm-none-eabi/arm-none-eabi/include/c++/13.2.1/bits/basic_string.h ****       _GLIBCXX20_CONSTEXPR
 477:/Applications/ArmGNUToolchain/13.2.Rel1/arm-none-eabi/arm-none-eabi/include/c++/13.2.1/bits/basic_string.h ****       static int
 478:/Applications/ArmGNUToolchain/13.2.Rel1/arm-none-eabi/arm-none-eabi/include/c++/13.2.1/bits/basic_string.h ****       _S_compare(size_type __n1, size_type __n2) _GLIBCXX_NOEXCEPT
 479:/Applications/ArmGNUToolchain/13.2.Rel1/arm-none-eabi/arm-none-eabi/include/c++/13.2.1/bits/basic_string.h ****       {
 480:/Applications/ArmGNUToolchain/13.2.Rel1/arm-none-eabi/arm-none-eabi/include/c++/13.2.1/bits/basic_string.h **** 	const difference_type __d = difference_type(__n1 - __n2);
 481:/Applications/ArmGNUToolchain/13.2.Rel1/arm-none-eabi/arm-none-eabi/include/c++/13.2.1/bits/basic_string.h **** 
 482:/Applications/ArmGNUToolchain/13.2.Rel1/arm-none-eabi/arm-none-eabi/include/c++/13.2.1/bits/basic_string.h **** 	if (__d > __gnu_cxx::__numeric_traits<int>::__max)
 483:/Applications/ArmGNUToolchain/13.2.Rel1/arm-none-eabi/arm-none-eabi/include/c++/13.2.1/bits/basic_string.h **** 	  return __gnu_cxx::__numeric_traits<int>::__max;
 484:/Applications/ArmGNUToolchain/13.2.Rel1/arm-none-eabi/arm-none-eabi/include/c++/13.2.1/bits/basic_string.h **** 	else if (__d < __gnu_cxx::__numeric_traits<int>::__min)
 485:/Applications/ArmGNUToolchain/13.2.Rel1/arm-none-eabi/arm-none-eabi/include/c++/13.2.1/bits/basic_string.h **** 	  return __gnu_cxx::__numeric_traits<int>::__min;
 486:/Applications/ArmGNUToolchain/13.2.Rel1/arm-none-eabi/arm-none-eabi/include/c++/13.2.1/bits/basic_string.h **** 	else
 487:/Applications/ArmGNUToolchain/13.2.Rel1/arm-none-eabi/arm-none-eabi/include/c++/13.2.1/bits/basic_string.h **** 	  return int(__d);
 488:/Applications/ArmGNUToolchain/13.2.Rel1/arm-none-eabi/arm-none-eabi/include/c++/13.2.1/bits/basic_string.h ****       }
 489:/Applications/ArmGNUToolchain/13.2.Rel1/arm-none-eabi/arm-none-eabi/include/c++/13.2.1/bits/basic_string.h **** 
 490:/Applications/ArmGNUToolchain/13.2.Rel1/arm-none-eabi/arm-none-eabi/include/c++/13.2.1/bits/basic_string.h ****       _GLIBCXX20_CONSTEXPR
 491:/Applications/ArmGNUToolchain/13.2.Rel1/arm-none-eabi/arm-none-eabi/include/c++/13.2.1/bits/basic_string.h ****       void
 492:/Applications/ArmGNUToolchain/13.2.Rel1/arm-none-eabi/arm-none-eabi/include/c++/13.2.1/bits/basic_string.h ****       _M_assign(const basic_string&);
 493:/Applications/ArmGNUToolchain/13.2.Rel1/arm-none-eabi/arm-none-eabi/include/c++/13.2.1/bits/basic_string.h **** 
 494:/Applications/ArmGNUToolchain/13.2.Rel1/arm-none-eabi/arm-none-eabi/include/c++/13.2.1/bits/basic_string.h ****       _GLIBCXX20_CONSTEXPR
 495:/Applications/ArmGNUToolchain/13.2.Rel1/arm-none-eabi/arm-none-eabi/include/c++/13.2.1/bits/basic_string.h ****       void
 496:/Applications/ArmGNUToolchain/13.2.Rel1/arm-none-eabi/arm-none-eabi/include/c++/13.2.1/bits/basic_string.h ****       _M_mutate(size_type __pos, size_type __len1, const _CharT* __s,
 497:/Applications/ArmGNUToolchain/13.2.Rel1/arm-none-eabi/arm-none-eabi/include/c++/13.2.1/bits/basic_string.h **** 		size_type __len2);
 498:/Applications/ArmGNUToolchain/13.2.Rel1/arm-none-eabi/arm-none-eabi/include/c++/13.2.1/bits/basic_string.h **** 
 499:/Applications/ArmGNUToolchain/13.2.Rel1/arm-none-eabi/arm-none-eabi/include/c++/13.2.1/bits/basic_string.h ****       _GLIBCXX20_CONSTEXPR
 500:/Applications/ArmGNUToolchain/13.2.Rel1/arm-none-eabi/arm-none-eabi/include/c++/13.2.1/bits/basic_string.h ****       void
 501:/Applications/ArmGNUToolchain/13.2.Rel1/arm-none-eabi/arm-none-eabi/include/c++/13.2.1/bits/basic_string.h ****       _M_erase(size_type __pos, size_type __n);
 502:/Applications/ArmGNUToolchain/13.2.Rel1/arm-none-eabi/arm-none-eabi/include/c++/13.2.1/bits/basic_string.h **** 
 503:/Applications/ArmGNUToolchain/13.2.Rel1/arm-none-eabi/arm-none-eabi/include/c++/13.2.1/bits/basic_string.h ****     public:
 504:/Applications/ArmGNUToolchain/13.2.Rel1/arm-none-eabi/arm-none-eabi/include/c++/13.2.1/bits/basic_string.h ****       // Construct/copy/destroy:
 505:/Applications/ArmGNUToolchain/13.2.Rel1/arm-none-eabi/arm-none-eabi/include/c++/13.2.1/bits/basic_string.h ****       // NB: We overload ctors in some cases instead of using default
 506:/Applications/ArmGNUToolchain/13.2.Rel1/arm-none-eabi/arm-none-eabi/include/c++/13.2.1/bits/basic_string.h ****       // arguments, per 17.4.4.4 para. 2 item 2.
 507:/Applications/ArmGNUToolchain/13.2.Rel1/arm-none-eabi/arm-none-eabi/include/c++/13.2.1/bits/basic_string.h **** 
 508:/Applications/ArmGNUToolchain/13.2.Rel1/arm-none-eabi/arm-none-eabi/include/c++/13.2.1/bits/basic_string.h ****       /**
 509:/Applications/ArmGNUToolchain/13.2.Rel1/arm-none-eabi/arm-none-eabi/include/c++/13.2.1/bits/basic_string.h ****        *  @brief  Default constructor creates an empty string.
 510:/Applications/ArmGNUToolchain/13.2.Rel1/arm-none-eabi/arm-none-eabi/include/c++/13.2.1/bits/basic_string.h ****        */
 511:/Applications/ArmGNUToolchain/13.2.Rel1/arm-none-eabi/arm-none-eabi/include/c++/13.2.1/bits/basic_string.h ****       _GLIBCXX20_CONSTEXPR
 512:/Applications/ArmGNUToolchain/13.2.Rel1/arm-none-eabi/arm-none-eabi/include/c++/13.2.1/bits/basic_string.h ****       basic_string()
 513:/Applications/ArmGNUToolchain/13.2.Rel1/arm-none-eabi/arm-none-eabi/include/c++/13.2.1/bits/basic_string.h ****       _GLIBCXX_NOEXCEPT_IF(is_nothrow_default_constructible<_Alloc>::value)
 514:/Applications/ArmGNUToolchain/13.2.Rel1/arm-none-eabi/arm-none-eabi/include/c++/13.2.1/bits/basic_string.h ****       : _M_dataplus(_M_local_data())
 515:/Applications/ArmGNUToolchain/13.2.Rel1/arm-none-eabi/arm-none-eabi/include/c++/13.2.1/bits/basic_string.h ****       {
 516:/Applications/ArmGNUToolchain/13.2.Rel1/arm-none-eabi/arm-none-eabi/include/c++/13.2.1/bits/basic_string.h **** 	_M_use_local_data();
 517:/Applications/ArmGNUToolchain/13.2.Rel1/arm-none-eabi/arm-none-eabi/include/c++/13.2.1/bits/basic_string.h **** 	_M_set_length(0);
 518:/Applications/ArmGNUToolchain/13.2.Rel1/arm-none-eabi/arm-none-eabi/include/c++/13.2.1/bits/basic_string.h ****       }
 519:/Applications/ArmGNUToolchain/13.2.Rel1/arm-none-eabi/arm-none-eabi/include/c++/13.2.1/bits/basic_string.h **** 
 520:/Applications/ArmGNUToolchain/13.2.Rel1/arm-none-eabi/arm-none-eabi/include/c++/13.2.1/bits/basic_string.h ****       /**
 521:/Applications/ArmGNUToolchain/13.2.Rel1/arm-none-eabi/arm-none-eabi/include/c++/13.2.1/bits/basic_string.h ****        *  @brief  Construct an empty string using allocator @a a.
ARM GAS  /var/folders/83/vwtnzcdn1v99b_lf0k0gsjzr0000gn/T//ccSBqmD1.s 			page 46


 522:/Applications/ArmGNUToolchain/13.2.Rel1/arm-none-eabi/arm-none-eabi/include/c++/13.2.1/bits/basic_string.h ****        */
 523:/Applications/ArmGNUToolchain/13.2.Rel1/arm-none-eabi/arm-none-eabi/include/c++/13.2.1/bits/basic_string.h ****       _GLIBCXX20_CONSTEXPR
 524:/Applications/ArmGNUToolchain/13.2.Rel1/arm-none-eabi/arm-none-eabi/include/c++/13.2.1/bits/basic_string.h ****       explicit
 525:/Applications/ArmGNUToolchain/13.2.Rel1/arm-none-eabi/arm-none-eabi/include/c++/13.2.1/bits/basic_string.h ****       basic_string(const _Alloc& __a) _GLIBCXX_NOEXCEPT
 526:/Applications/ArmGNUToolchain/13.2.Rel1/arm-none-eabi/arm-none-eabi/include/c++/13.2.1/bits/basic_string.h ****       : _M_dataplus(_M_local_data(), __a)
 527:/Applications/ArmGNUToolchain/13.2.Rel1/arm-none-eabi/arm-none-eabi/include/c++/13.2.1/bits/basic_string.h ****       {
 528:/Applications/ArmGNUToolchain/13.2.Rel1/arm-none-eabi/arm-none-eabi/include/c++/13.2.1/bits/basic_string.h **** 	_M_use_local_data();
 529:/Applications/ArmGNUToolchain/13.2.Rel1/arm-none-eabi/arm-none-eabi/include/c++/13.2.1/bits/basic_string.h **** 	_M_set_length(0);
 530:/Applications/ArmGNUToolchain/13.2.Rel1/arm-none-eabi/arm-none-eabi/include/c++/13.2.1/bits/basic_string.h ****       }
 531:/Applications/ArmGNUToolchain/13.2.Rel1/arm-none-eabi/arm-none-eabi/include/c++/13.2.1/bits/basic_string.h **** 
 532:/Applications/ArmGNUToolchain/13.2.Rel1/arm-none-eabi/arm-none-eabi/include/c++/13.2.1/bits/basic_string.h ****       /**
 533:/Applications/ArmGNUToolchain/13.2.Rel1/arm-none-eabi/arm-none-eabi/include/c++/13.2.1/bits/basic_string.h ****        *  @brief  Construct string with copy of value of @a __str.
 534:/Applications/ArmGNUToolchain/13.2.Rel1/arm-none-eabi/arm-none-eabi/include/c++/13.2.1/bits/basic_string.h ****        *  @param  __str  Source string.
 535:/Applications/ArmGNUToolchain/13.2.Rel1/arm-none-eabi/arm-none-eabi/include/c++/13.2.1/bits/basic_string.h ****        */
 536:/Applications/ArmGNUToolchain/13.2.Rel1/arm-none-eabi/arm-none-eabi/include/c++/13.2.1/bits/basic_string.h ****       _GLIBCXX20_CONSTEXPR
 537:/Applications/ArmGNUToolchain/13.2.Rel1/arm-none-eabi/arm-none-eabi/include/c++/13.2.1/bits/basic_string.h ****       basic_string(const basic_string& __str)
 538:/Applications/ArmGNUToolchain/13.2.Rel1/arm-none-eabi/arm-none-eabi/include/c++/13.2.1/bits/basic_string.h ****       : _M_dataplus(_M_local_data(),
 539:/Applications/ArmGNUToolchain/13.2.Rel1/arm-none-eabi/arm-none-eabi/include/c++/13.2.1/bits/basic_string.h **** 		    _Alloc_traits::_S_select_on_copy(__str._M_get_allocator()))
 540:/Applications/ArmGNUToolchain/13.2.Rel1/arm-none-eabi/arm-none-eabi/include/c++/13.2.1/bits/basic_string.h ****       {
 541:/Applications/ArmGNUToolchain/13.2.Rel1/arm-none-eabi/arm-none-eabi/include/c++/13.2.1/bits/basic_string.h **** 	_M_construct(__str._M_data(), __str._M_data() + __str.length(),
 542:/Applications/ArmGNUToolchain/13.2.Rel1/arm-none-eabi/arm-none-eabi/include/c++/13.2.1/bits/basic_string.h **** 		     std::forward_iterator_tag());
 543:/Applications/ArmGNUToolchain/13.2.Rel1/arm-none-eabi/arm-none-eabi/include/c++/13.2.1/bits/basic_string.h ****       }
 544:/Applications/ArmGNUToolchain/13.2.Rel1/arm-none-eabi/arm-none-eabi/include/c++/13.2.1/bits/basic_string.h **** 
 545:/Applications/ArmGNUToolchain/13.2.Rel1/arm-none-eabi/arm-none-eabi/include/c++/13.2.1/bits/basic_string.h ****       // _GLIBCXX_RESOLVE_LIB_DEFECTS
 546:/Applications/ArmGNUToolchain/13.2.Rel1/arm-none-eabi/arm-none-eabi/include/c++/13.2.1/bits/basic_string.h ****       // 2583. no way to supply an allocator for basic_string(str, pos)
 547:/Applications/ArmGNUToolchain/13.2.Rel1/arm-none-eabi/arm-none-eabi/include/c++/13.2.1/bits/basic_string.h ****       /**
 548:/Applications/ArmGNUToolchain/13.2.Rel1/arm-none-eabi/arm-none-eabi/include/c++/13.2.1/bits/basic_string.h ****        *  @brief  Construct string as copy of a substring.
 549:/Applications/ArmGNUToolchain/13.2.Rel1/arm-none-eabi/arm-none-eabi/include/c++/13.2.1/bits/basic_string.h ****        *  @param  __str  Source string.
 550:/Applications/ArmGNUToolchain/13.2.Rel1/arm-none-eabi/arm-none-eabi/include/c++/13.2.1/bits/basic_string.h ****        *  @param  __pos  Index of first character to copy from.
 551:/Applications/ArmGNUToolchain/13.2.Rel1/arm-none-eabi/arm-none-eabi/include/c++/13.2.1/bits/basic_string.h ****        *  @param  __a  Allocator to use.
 552:/Applications/ArmGNUToolchain/13.2.Rel1/arm-none-eabi/arm-none-eabi/include/c++/13.2.1/bits/basic_string.h ****        */
 553:/Applications/ArmGNUToolchain/13.2.Rel1/arm-none-eabi/arm-none-eabi/include/c++/13.2.1/bits/basic_string.h ****       _GLIBCXX20_CONSTEXPR
 554:/Applications/ArmGNUToolchain/13.2.Rel1/arm-none-eabi/arm-none-eabi/include/c++/13.2.1/bits/basic_string.h ****       basic_string(const basic_string& __str, size_type __pos,
 555:/Applications/ArmGNUToolchain/13.2.Rel1/arm-none-eabi/arm-none-eabi/include/c++/13.2.1/bits/basic_string.h **** 		   const _Alloc& __a = _Alloc())
 556:/Applications/ArmGNUToolchain/13.2.Rel1/arm-none-eabi/arm-none-eabi/include/c++/13.2.1/bits/basic_string.h ****       : _M_dataplus(_M_local_data(), __a)
 557:/Applications/ArmGNUToolchain/13.2.Rel1/arm-none-eabi/arm-none-eabi/include/c++/13.2.1/bits/basic_string.h ****       {
 558:/Applications/ArmGNUToolchain/13.2.Rel1/arm-none-eabi/arm-none-eabi/include/c++/13.2.1/bits/basic_string.h **** 	const _CharT* __start = __str._M_data()
 559:/Applications/ArmGNUToolchain/13.2.Rel1/arm-none-eabi/arm-none-eabi/include/c++/13.2.1/bits/basic_string.h **** 	  + __str._M_check(__pos, "basic_string::basic_string");
 560:/Applications/ArmGNUToolchain/13.2.Rel1/arm-none-eabi/arm-none-eabi/include/c++/13.2.1/bits/basic_string.h **** 	_M_construct(__start, __start + __str._M_limit(__pos, npos),
 561:/Applications/ArmGNUToolchain/13.2.Rel1/arm-none-eabi/arm-none-eabi/include/c++/13.2.1/bits/basic_string.h **** 		     std::forward_iterator_tag());
 562:/Applications/ArmGNUToolchain/13.2.Rel1/arm-none-eabi/arm-none-eabi/include/c++/13.2.1/bits/basic_string.h ****       }
 563:/Applications/ArmGNUToolchain/13.2.Rel1/arm-none-eabi/arm-none-eabi/include/c++/13.2.1/bits/basic_string.h **** 
 564:/Applications/ArmGNUToolchain/13.2.Rel1/arm-none-eabi/arm-none-eabi/include/c++/13.2.1/bits/basic_string.h ****       /**
 565:/Applications/ArmGNUToolchain/13.2.Rel1/arm-none-eabi/arm-none-eabi/include/c++/13.2.1/bits/basic_string.h ****        *  @brief  Construct string as copy of a substring.
 566:/Applications/ArmGNUToolchain/13.2.Rel1/arm-none-eabi/arm-none-eabi/include/c++/13.2.1/bits/basic_string.h ****        *  @param  __str  Source string.
 567:/Applications/ArmGNUToolchain/13.2.Rel1/arm-none-eabi/arm-none-eabi/include/c++/13.2.1/bits/basic_string.h ****        *  @param  __pos  Index of first character to copy from.
 568:/Applications/ArmGNUToolchain/13.2.Rel1/arm-none-eabi/arm-none-eabi/include/c++/13.2.1/bits/basic_string.h ****        *  @param  __n  Number of characters to copy.
 569:/Applications/ArmGNUToolchain/13.2.Rel1/arm-none-eabi/arm-none-eabi/include/c++/13.2.1/bits/basic_string.h ****        */
 570:/Applications/ArmGNUToolchain/13.2.Rel1/arm-none-eabi/arm-none-eabi/include/c++/13.2.1/bits/basic_string.h ****       _GLIBCXX20_CONSTEXPR
 571:/Applications/ArmGNUToolchain/13.2.Rel1/arm-none-eabi/arm-none-eabi/include/c++/13.2.1/bits/basic_string.h ****       basic_string(const basic_string& __str, size_type __pos,
 572:/Applications/ArmGNUToolchain/13.2.Rel1/arm-none-eabi/arm-none-eabi/include/c++/13.2.1/bits/basic_string.h **** 		   size_type __n)
 573:/Applications/ArmGNUToolchain/13.2.Rel1/arm-none-eabi/arm-none-eabi/include/c++/13.2.1/bits/basic_string.h ****       : _M_dataplus(_M_local_data())
 574:/Applications/ArmGNUToolchain/13.2.Rel1/arm-none-eabi/arm-none-eabi/include/c++/13.2.1/bits/basic_string.h ****       {
 575:/Applications/ArmGNUToolchain/13.2.Rel1/arm-none-eabi/arm-none-eabi/include/c++/13.2.1/bits/basic_string.h **** 	const _CharT* __start = __str._M_data()
 576:/Applications/ArmGNUToolchain/13.2.Rel1/arm-none-eabi/arm-none-eabi/include/c++/13.2.1/bits/basic_string.h **** 	  + __str._M_check(__pos, "basic_string::basic_string");
 577:/Applications/ArmGNUToolchain/13.2.Rel1/arm-none-eabi/arm-none-eabi/include/c++/13.2.1/bits/basic_string.h **** 	_M_construct(__start, __start + __str._M_limit(__pos, __n),
 578:/Applications/ArmGNUToolchain/13.2.Rel1/arm-none-eabi/arm-none-eabi/include/c++/13.2.1/bits/basic_string.h **** 		     std::forward_iterator_tag());
ARM GAS  /var/folders/83/vwtnzcdn1v99b_lf0k0gsjzr0000gn/T//ccSBqmD1.s 			page 47


 579:/Applications/ArmGNUToolchain/13.2.Rel1/arm-none-eabi/arm-none-eabi/include/c++/13.2.1/bits/basic_string.h ****       }
 580:/Applications/ArmGNUToolchain/13.2.Rel1/arm-none-eabi/arm-none-eabi/include/c++/13.2.1/bits/basic_string.h **** 
 581:/Applications/ArmGNUToolchain/13.2.Rel1/arm-none-eabi/arm-none-eabi/include/c++/13.2.1/bits/basic_string.h ****       /**
 582:/Applications/ArmGNUToolchain/13.2.Rel1/arm-none-eabi/arm-none-eabi/include/c++/13.2.1/bits/basic_string.h ****        *  @brief  Construct string as copy of a substring.
 583:/Applications/ArmGNUToolchain/13.2.Rel1/arm-none-eabi/arm-none-eabi/include/c++/13.2.1/bits/basic_string.h ****        *  @param  __str  Source string.
 584:/Applications/ArmGNUToolchain/13.2.Rel1/arm-none-eabi/arm-none-eabi/include/c++/13.2.1/bits/basic_string.h ****        *  @param  __pos  Index of first character to copy from.
 585:/Applications/ArmGNUToolchain/13.2.Rel1/arm-none-eabi/arm-none-eabi/include/c++/13.2.1/bits/basic_string.h ****        *  @param  __n  Number of characters to copy.
 586:/Applications/ArmGNUToolchain/13.2.Rel1/arm-none-eabi/arm-none-eabi/include/c++/13.2.1/bits/basic_string.h ****        *  @param  __a  Allocator to use.
 587:/Applications/ArmGNUToolchain/13.2.Rel1/arm-none-eabi/arm-none-eabi/include/c++/13.2.1/bits/basic_string.h ****        */
 588:/Applications/ArmGNUToolchain/13.2.Rel1/arm-none-eabi/arm-none-eabi/include/c++/13.2.1/bits/basic_string.h ****       _GLIBCXX20_CONSTEXPR
 589:/Applications/ArmGNUToolchain/13.2.Rel1/arm-none-eabi/arm-none-eabi/include/c++/13.2.1/bits/basic_string.h ****       basic_string(const basic_string& __str, size_type __pos,
 590:/Applications/ArmGNUToolchain/13.2.Rel1/arm-none-eabi/arm-none-eabi/include/c++/13.2.1/bits/basic_string.h **** 		   size_type __n, const _Alloc& __a)
 591:/Applications/ArmGNUToolchain/13.2.Rel1/arm-none-eabi/arm-none-eabi/include/c++/13.2.1/bits/basic_string.h ****       : _M_dataplus(_M_local_data(), __a)
 592:/Applications/ArmGNUToolchain/13.2.Rel1/arm-none-eabi/arm-none-eabi/include/c++/13.2.1/bits/basic_string.h ****       {
 593:/Applications/ArmGNUToolchain/13.2.Rel1/arm-none-eabi/arm-none-eabi/include/c++/13.2.1/bits/basic_string.h **** 	const _CharT* __start
 594:/Applications/ArmGNUToolchain/13.2.Rel1/arm-none-eabi/arm-none-eabi/include/c++/13.2.1/bits/basic_string.h **** 	  = __str._M_data() + __str._M_check(__pos, "string::string");
 595:/Applications/ArmGNUToolchain/13.2.Rel1/arm-none-eabi/arm-none-eabi/include/c++/13.2.1/bits/basic_string.h **** 	_M_construct(__start, __start + __str._M_limit(__pos, __n),
 596:/Applications/ArmGNUToolchain/13.2.Rel1/arm-none-eabi/arm-none-eabi/include/c++/13.2.1/bits/basic_string.h **** 		     std::forward_iterator_tag());
 597:/Applications/ArmGNUToolchain/13.2.Rel1/arm-none-eabi/arm-none-eabi/include/c++/13.2.1/bits/basic_string.h ****       }
 598:/Applications/ArmGNUToolchain/13.2.Rel1/arm-none-eabi/arm-none-eabi/include/c++/13.2.1/bits/basic_string.h **** 
 599:/Applications/ArmGNUToolchain/13.2.Rel1/arm-none-eabi/arm-none-eabi/include/c++/13.2.1/bits/basic_string.h ****       /**
 600:/Applications/ArmGNUToolchain/13.2.Rel1/arm-none-eabi/arm-none-eabi/include/c++/13.2.1/bits/basic_string.h ****        *  @brief  Construct string initialized by a character %array.
 601:/Applications/ArmGNUToolchain/13.2.Rel1/arm-none-eabi/arm-none-eabi/include/c++/13.2.1/bits/basic_string.h ****        *  @param  __s  Source character %array.
 602:/Applications/ArmGNUToolchain/13.2.Rel1/arm-none-eabi/arm-none-eabi/include/c++/13.2.1/bits/basic_string.h ****        *  @param  __n  Number of characters to copy.
 603:/Applications/ArmGNUToolchain/13.2.Rel1/arm-none-eabi/arm-none-eabi/include/c++/13.2.1/bits/basic_string.h ****        *  @param  __a  Allocator to use (default is default allocator).
 604:/Applications/ArmGNUToolchain/13.2.Rel1/arm-none-eabi/arm-none-eabi/include/c++/13.2.1/bits/basic_string.h ****        *
 605:/Applications/ArmGNUToolchain/13.2.Rel1/arm-none-eabi/arm-none-eabi/include/c++/13.2.1/bits/basic_string.h ****        *  NB: @a __s must have at least @a __n characters, &apos;\\0&apos;
 606:/Applications/ArmGNUToolchain/13.2.Rel1/arm-none-eabi/arm-none-eabi/include/c++/13.2.1/bits/basic_string.h ****        *  has no special meaning.
 607:/Applications/ArmGNUToolchain/13.2.Rel1/arm-none-eabi/arm-none-eabi/include/c++/13.2.1/bits/basic_string.h ****        */
 608:/Applications/ArmGNUToolchain/13.2.Rel1/arm-none-eabi/arm-none-eabi/include/c++/13.2.1/bits/basic_string.h ****       _GLIBCXX20_CONSTEXPR
 609:/Applications/ArmGNUToolchain/13.2.Rel1/arm-none-eabi/arm-none-eabi/include/c++/13.2.1/bits/basic_string.h ****       basic_string(const _CharT* __s, size_type __n,
 610:/Applications/ArmGNUToolchain/13.2.Rel1/arm-none-eabi/arm-none-eabi/include/c++/13.2.1/bits/basic_string.h **** 		   const _Alloc& __a = _Alloc())
 611:/Applications/ArmGNUToolchain/13.2.Rel1/arm-none-eabi/arm-none-eabi/include/c++/13.2.1/bits/basic_string.h ****       : _M_dataplus(_M_local_data(), __a)
 612:/Applications/ArmGNUToolchain/13.2.Rel1/arm-none-eabi/arm-none-eabi/include/c++/13.2.1/bits/basic_string.h ****       {
 613:/Applications/ArmGNUToolchain/13.2.Rel1/arm-none-eabi/arm-none-eabi/include/c++/13.2.1/bits/basic_string.h **** 	// NB: Not required, but considered best practice.
 614:/Applications/ArmGNUToolchain/13.2.Rel1/arm-none-eabi/arm-none-eabi/include/c++/13.2.1/bits/basic_string.h **** 	if (__s == 0 && __n > 0)
 615:/Applications/ArmGNUToolchain/13.2.Rel1/arm-none-eabi/arm-none-eabi/include/c++/13.2.1/bits/basic_string.h **** 	  std::__throw_logic_error(__N("basic_string: "
 616:/Applications/ArmGNUToolchain/13.2.Rel1/arm-none-eabi/arm-none-eabi/include/c++/13.2.1/bits/basic_string.h **** 				       "construction from null is not valid"));
 617:/Applications/ArmGNUToolchain/13.2.Rel1/arm-none-eabi/arm-none-eabi/include/c++/13.2.1/bits/basic_string.h **** 	_M_construct(__s, __s + __n, std::forward_iterator_tag());
 618:/Applications/ArmGNUToolchain/13.2.Rel1/arm-none-eabi/arm-none-eabi/include/c++/13.2.1/bits/basic_string.h ****       }
 619:/Applications/ArmGNUToolchain/13.2.Rel1/arm-none-eabi/arm-none-eabi/include/c++/13.2.1/bits/basic_string.h **** 
 620:/Applications/ArmGNUToolchain/13.2.Rel1/arm-none-eabi/arm-none-eabi/include/c++/13.2.1/bits/basic_string.h ****       /**
 621:/Applications/ArmGNUToolchain/13.2.Rel1/arm-none-eabi/arm-none-eabi/include/c++/13.2.1/bits/basic_string.h ****        *  @brief  Construct string as copy of a C string.
 622:/Applications/ArmGNUToolchain/13.2.Rel1/arm-none-eabi/arm-none-eabi/include/c++/13.2.1/bits/basic_string.h ****        *  @param  __s  Source C string.
 623:/Applications/ArmGNUToolchain/13.2.Rel1/arm-none-eabi/arm-none-eabi/include/c++/13.2.1/bits/basic_string.h ****        *  @param  __a  Allocator to use (default is default allocator).
 624:/Applications/ArmGNUToolchain/13.2.Rel1/arm-none-eabi/arm-none-eabi/include/c++/13.2.1/bits/basic_string.h ****        */
 625:/Applications/ArmGNUToolchain/13.2.Rel1/arm-none-eabi/arm-none-eabi/include/c++/13.2.1/bits/basic_string.h **** #if __cpp_deduction_guides && ! defined _GLIBCXX_DEFINING_STRING_INSTANTIATIONS
 626:/Applications/ArmGNUToolchain/13.2.Rel1/arm-none-eabi/arm-none-eabi/include/c++/13.2.1/bits/basic_string.h ****       // _GLIBCXX_RESOLVE_LIB_DEFECTS
 627:/Applications/ArmGNUToolchain/13.2.Rel1/arm-none-eabi/arm-none-eabi/include/c++/13.2.1/bits/basic_string.h ****       // 3076. basic_string CTAD ambiguity
 628:/Applications/ArmGNUToolchain/13.2.Rel1/arm-none-eabi/arm-none-eabi/include/c++/13.2.1/bits/basic_string.h ****       template<typename = _RequireAllocator<_Alloc>>
 629:/Applications/ArmGNUToolchain/13.2.Rel1/arm-none-eabi/arm-none-eabi/include/c++/13.2.1/bits/basic_string.h **** #endif
 630:/Applications/ArmGNUToolchain/13.2.Rel1/arm-none-eabi/arm-none-eabi/include/c++/13.2.1/bits/basic_string.h ****       _GLIBCXX20_CONSTEXPR
 631:/Applications/ArmGNUToolchain/13.2.Rel1/arm-none-eabi/arm-none-eabi/include/c++/13.2.1/bits/basic_string.h ****       basic_string(const _CharT* __s, const _Alloc& __a = _Alloc())
 632:/Applications/ArmGNUToolchain/13.2.Rel1/arm-none-eabi/arm-none-eabi/include/c++/13.2.1/bits/basic_string.h ****       : _M_dataplus(_M_local_data(), __a)
 633:/Applications/ArmGNUToolchain/13.2.Rel1/arm-none-eabi/arm-none-eabi/include/c++/13.2.1/bits/basic_string.h ****       {
 634:/Applications/ArmGNUToolchain/13.2.Rel1/arm-none-eabi/arm-none-eabi/include/c++/13.2.1/bits/basic_string.h **** 	// NB: Not required, but considered best practice.
 635:/Applications/ArmGNUToolchain/13.2.Rel1/arm-none-eabi/arm-none-eabi/include/c++/13.2.1/bits/basic_string.h **** 	if (__s == 0)
ARM GAS  /var/folders/83/vwtnzcdn1v99b_lf0k0gsjzr0000gn/T//ccSBqmD1.s 			page 48


 636:/Applications/ArmGNUToolchain/13.2.Rel1/arm-none-eabi/arm-none-eabi/include/c++/13.2.1/bits/basic_string.h **** 	  std::__throw_logic_error(__N("basic_string: "
 637:/Applications/ArmGNUToolchain/13.2.Rel1/arm-none-eabi/arm-none-eabi/include/c++/13.2.1/bits/basic_string.h **** 				       "construction from null is not valid"));
 638:/Applications/ArmGNUToolchain/13.2.Rel1/arm-none-eabi/arm-none-eabi/include/c++/13.2.1/bits/basic_string.h **** 	const _CharT* __end = __s + traits_type::length(__s);
 639:/Applications/ArmGNUToolchain/13.2.Rel1/arm-none-eabi/arm-none-eabi/include/c++/13.2.1/bits/basic_string.h **** 	_M_construct(__s, __end, forward_iterator_tag());
 640:/Applications/ArmGNUToolchain/13.2.Rel1/arm-none-eabi/arm-none-eabi/include/c++/13.2.1/bits/basic_string.h ****       }
 641:/Applications/ArmGNUToolchain/13.2.Rel1/arm-none-eabi/arm-none-eabi/include/c++/13.2.1/bits/basic_string.h **** 
 642:/Applications/ArmGNUToolchain/13.2.Rel1/arm-none-eabi/arm-none-eabi/include/c++/13.2.1/bits/basic_string.h ****       /**
 643:/Applications/ArmGNUToolchain/13.2.Rel1/arm-none-eabi/arm-none-eabi/include/c++/13.2.1/bits/basic_string.h ****        *  @brief  Construct string as multiple characters.
 644:/Applications/ArmGNUToolchain/13.2.Rel1/arm-none-eabi/arm-none-eabi/include/c++/13.2.1/bits/basic_string.h ****        *  @param  __n  Number of characters.
 645:/Applications/ArmGNUToolchain/13.2.Rel1/arm-none-eabi/arm-none-eabi/include/c++/13.2.1/bits/basic_string.h ****        *  @param  __c  Character to use.
 646:/Applications/ArmGNUToolchain/13.2.Rel1/arm-none-eabi/arm-none-eabi/include/c++/13.2.1/bits/basic_string.h ****        *  @param  __a  Allocator to use (default is default allocator).
 647:/Applications/ArmGNUToolchain/13.2.Rel1/arm-none-eabi/arm-none-eabi/include/c++/13.2.1/bits/basic_string.h ****        */
 648:/Applications/ArmGNUToolchain/13.2.Rel1/arm-none-eabi/arm-none-eabi/include/c++/13.2.1/bits/basic_string.h **** #if __cpp_deduction_guides && ! defined _GLIBCXX_DEFINING_STRING_INSTANTIATIONS
 649:/Applications/ArmGNUToolchain/13.2.Rel1/arm-none-eabi/arm-none-eabi/include/c++/13.2.1/bits/basic_string.h ****       // _GLIBCXX_RESOLVE_LIB_DEFECTS
 650:/Applications/ArmGNUToolchain/13.2.Rel1/arm-none-eabi/arm-none-eabi/include/c++/13.2.1/bits/basic_string.h ****       // 3076. basic_string CTAD ambiguity
 651:/Applications/ArmGNUToolchain/13.2.Rel1/arm-none-eabi/arm-none-eabi/include/c++/13.2.1/bits/basic_string.h ****       template<typename = _RequireAllocator<_Alloc>>
 652:/Applications/ArmGNUToolchain/13.2.Rel1/arm-none-eabi/arm-none-eabi/include/c++/13.2.1/bits/basic_string.h **** #endif
 653:/Applications/ArmGNUToolchain/13.2.Rel1/arm-none-eabi/arm-none-eabi/include/c++/13.2.1/bits/basic_string.h ****       _GLIBCXX20_CONSTEXPR
 654:/Applications/ArmGNUToolchain/13.2.Rel1/arm-none-eabi/arm-none-eabi/include/c++/13.2.1/bits/basic_string.h ****       basic_string(size_type __n, _CharT __c, const _Alloc& __a = _Alloc())
 655:/Applications/ArmGNUToolchain/13.2.Rel1/arm-none-eabi/arm-none-eabi/include/c++/13.2.1/bits/basic_string.h ****       : _M_dataplus(_M_local_data(), __a)
 656:/Applications/ArmGNUToolchain/13.2.Rel1/arm-none-eabi/arm-none-eabi/include/c++/13.2.1/bits/basic_string.h ****       { _M_construct(__n, __c); }
 657:/Applications/ArmGNUToolchain/13.2.Rel1/arm-none-eabi/arm-none-eabi/include/c++/13.2.1/bits/basic_string.h **** 
 658:/Applications/ArmGNUToolchain/13.2.Rel1/arm-none-eabi/arm-none-eabi/include/c++/13.2.1/bits/basic_string.h **** #if __cplusplus >= 201103L
 659:/Applications/ArmGNUToolchain/13.2.Rel1/arm-none-eabi/arm-none-eabi/include/c++/13.2.1/bits/basic_string.h ****       /**
 660:/Applications/ArmGNUToolchain/13.2.Rel1/arm-none-eabi/arm-none-eabi/include/c++/13.2.1/bits/basic_string.h ****        *  @brief  Move construct string.
 661:/Applications/ArmGNUToolchain/13.2.Rel1/arm-none-eabi/arm-none-eabi/include/c++/13.2.1/bits/basic_string.h ****        *  @param  __str  Source string.
 662:/Applications/ArmGNUToolchain/13.2.Rel1/arm-none-eabi/arm-none-eabi/include/c++/13.2.1/bits/basic_string.h ****        *
 663:/Applications/ArmGNUToolchain/13.2.Rel1/arm-none-eabi/arm-none-eabi/include/c++/13.2.1/bits/basic_string.h ****        *  The newly-created string contains the exact contents of @a __str.
 664:/Applications/ArmGNUToolchain/13.2.Rel1/arm-none-eabi/arm-none-eabi/include/c++/13.2.1/bits/basic_string.h ****        *  @a __str is a valid, but unspecified string.
 665:/Applications/ArmGNUToolchain/13.2.Rel1/arm-none-eabi/arm-none-eabi/include/c++/13.2.1/bits/basic_string.h ****        */
