ARM GAS  /var/folders/83/vwtnzcdn1v99b_lf0k0gsjzr0000gn/T//cc93oyUL.s 			page 1


   1              		.cpu cortex-m7
   2              		.arch armv7e-m
   3              		.fpu fpv5-d16
   4              		.eabi_attribute 28, 1
   5              		.eabi_attribute 20, 1
   6              		.eabi_attribute 21, 1
   7              		.eabi_attribute 23, 3
   8              		.eabi_attribute 24, 1
   9              		.eabi_attribute 25, 1
  10              		.eabi_attribute 26, 1
  11              		.eabi_attribute 30, 2
  12              		.eabi_attribute 34, 1
  13              		.eabi_attribute 18, 4
  14              		.file	"Pedal.cpp"
  15              		.text
  16              	.Ltext0:
  17              		.cfi_sections	.debug_frame
  18              		.file 1 "../src/Pedal.cpp"
  19              		.section	.text._ZN3amc5Pedal5DelayEj,"ax",%progbits
  20              		.align	1
  21              		.p2align 2,,3
  22              		.global	_ZN3amc5Pedal5DelayEj
  23              		.syntax unified
  24              		.thumb
  25              		.thumb_func
  27              	_ZN3amc5Pedal5DelayEj:
  28              	.LVL0:
  29              	.LFB4663:
   1:../src/Pedal.cpp **** #include "Pedal.h"
   2:../src/Pedal.cpp **** 
   3:../src/Pedal.cpp **** using namespace daisy;
   4:../src/Pedal.cpp **** using namespace amc;
   5:../src/Pedal.cpp **** 
   6:../src/Pedal.cpp **** void Pedal::Init(bool boost)
   7:../src/Pedal.cpp **** {
   8:../src/Pedal.cpp **** 	seed.Init(boost);
   9:../src/Pedal.cpp **** 
  10:../src/Pedal.cpp **** 	InitAnalogControls();
  11:../src/Pedal.cpp **** 	InitEncoders();
  12:../src/Pedal.cpp **** 	InitSwitches();
  13:../src/Pedal.cpp **** 	InitLeds();
  14:../src/Pedal.cpp **** 	InitMidi();
  15:../src/Pedal.cpp **** 
  16:../src/Pedal.cpp **** 	switch (SR)
  17:../src/Pedal.cpp **** 	{
  18:../src/Pedal.cpp **** 	case 8000:
  19:../src/Pedal.cpp **** 		SetAudioRate(daisy::SaiHandle::Config::SampleRate::SAI_8KHZ);
  20:../src/Pedal.cpp **** 		break;
  21:../src/Pedal.cpp **** 	case 16000:
  22:../src/Pedal.cpp **** 		SetAudioRate(daisy::SaiHandle::Config::SampleRate::SAI_16KHZ);
  23:../src/Pedal.cpp **** 		break;
  24:../src/Pedal.cpp **** 	case 32000:
  25:../src/Pedal.cpp **** 		SetAudioRate(daisy::SaiHandle::Config::SampleRate::SAI_32KHZ);
  26:../src/Pedal.cpp **** 		break;
  27:../src/Pedal.cpp **** 	case 96000:
  28:../src/Pedal.cpp **** 		SetAudioRate(daisy::SaiHandle::Config::SampleRate::SAI_96KHZ);
  29:../src/Pedal.cpp **** 		break;
ARM GAS  /var/folders/83/vwtnzcdn1v99b_lf0k0gsjzr0000gn/T//cc93oyUL.s 			page 2


  30:../src/Pedal.cpp **** 	default:
  31:../src/Pedal.cpp **** 		SetAudioRate(daisy::SaiHandle::Config::SampleRate::SAI_48KHZ);
  32:../src/Pedal.cpp **** 		break;
  33:../src/Pedal.cpp **** 	}
  34:../src/Pedal.cpp **** 
  35:../src/Pedal.cpp **** 	SetBlockSize(16);
  36:../src/Pedal.cpp **** 
  37:../src/Pedal.cpp **** 	// attach GPIO objects to appropriate pins for later writing (switching relays)
  38:../src/Pedal.cpp **** 	audioBypassTrigger.Init(daisy::seed::D1, GPIO::Mode::OUTPUT);
  39:../src/Pedal.cpp **** 	audioMuteTrigger.Init(daisy::seed::D12, GPIO::Mode::OUTPUT);
  40:../src/Pedal.cpp **** 	SetBypass(true);
  41:../src/Pedal.cpp **** 	SetMute(false);
  42:../src/Pedal.cpp **** 
  43:../src/Pedal.cpp **** 	// configure display
  44:../src/Pedal.cpp **** 	Oled::Config config;
  45:../src/Pedal.cpp **** 	config.driver_config.transport_config.pin_config.dc = seed.GetPin(DISPLAY_DC_PIN);
  46:../src/Pedal.cpp **** 	config.driver_config.transport_config.pin_config.reset = seed.GetPin(DISPLAY_RESET_PIN);
  47:../src/Pedal.cpp **** 	display.Init(config);
  48:../src/Pedal.cpp **** }
  49:../src/Pedal.cpp **** 
  50:../src/Pedal.cpp **** void Pedal::Delay(size_t milliseconds)
  51:../src/Pedal.cpp **** {
  30              		.loc 1 51 1 view -0
  31              		.cfi_startproc
  32              		@ args = 0, pretend = 0, frame = 0
  33              		@ frame_needed = 0, uses_anonymous_args = 0
  34              		@ link register save eliminated.
  52:../src/Pedal.cpp **** 	seed.DelayMs(milliseconds);
  35              		.loc 1 52 2 view .LVU1
  36              		.loc 1 52 14 is_stmt 0 view .LVU2
  37 0000 FFF7FEBF 		b	_ZN5daisy9DaisySeed7DelayMsEj
  38              	.LVL1:
  39              		.loc 1 52 14 view .LVU3
  40              		.cfi_endproc
  41              	.LFE4663:
  43              		.section	.text._ZN3amc5Pedal10StartAudioEPFvPKfPfjE,"ax",%progbits
  44              		.align	1
  45              		.p2align 2,,3
  46              		.global	_ZN3amc5Pedal10StartAudioEPFvPKfPfjE
  47              		.syntax unified
  48              		.thumb
  49              		.thumb_func
  51              	_ZN3amc5Pedal10StartAudioEPFvPKfPfjE:
  52              	.LVL2:
  53              	.LFB4664:
  53:../src/Pedal.cpp **** }
  54:../src/Pedal.cpp **** 
  55:../src/Pedal.cpp **** void Pedal::StartAudio(AudioHandle::InterleavingAudioCallback cb)
  56:../src/Pedal.cpp **** {
  54              		.loc 1 56 1 is_stmt 1 view -0
  55              		.cfi_startproc
  56              		@ args = 0, pretend = 0, frame = 0
  57              		@ frame_needed = 0, uses_anonymous_args = 0
  58              		@ link register save eliminated.
  57:../src/Pedal.cpp **** 	seed.StartAudio(cb);
  59              		.loc 1 57 2 view .LVU5
  60              		.loc 1 57 17 is_stmt 0 view .LVU6
ARM GAS  /var/folders/83/vwtnzcdn1v99b_lf0k0gsjzr0000gn/T//cc93oyUL.s 			page 3


  61 0000 FFF7FEBF 		b	_ZN5daisy9DaisySeed10StartAudioEPFvPKfPfjE
  62              	.LVL3:
  63              		.loc 1 57 17 view .LVU7
  64              		.cfi_endproc
  65              	.LFE4664:
  67              		.section	.text._ZN3amc5Pedal10StartAudioEPFvPKPKfPPfjE,"ax",%progbits
  68              		.align	1
  69              		.p2align 2,,3
  70              		.global	_ZN3amc5Pedal10StartAudioEPFvPKPKfPPfjE
  71              		.syntax unified
  72              		.thumb
  73              		.thumb_func
  75              	_ZN3amc5Pedal10StartAudioEPFvPKPKfPPfjE:
  76              	.LVL4:
  77              	.LFB4665:
  58:../src/Pedal.cpp **** }
  59:../src/Pedal.cpp **** 
  60:../src/Pedal.cpp **** void Pedal::StartAudio(AudioHandle::AudioCallback cb)
  61:../src/Pedal.cpp **** {
  78              		.loc 1 61 1 is_stmt 1 view -0
  79              		.cfi_startproc
  80              		@ args = 0, pretend = 0, frame = 0
  81              		@ frame_needed = 0, uses_anonymous_args = 0
  82              		@ link register save eliminated.
  62:../src/Pedal.cpp **** 	seed.StartAudio(cb);
  83              		.loc 1 62 2 view .LVU9
  84              		.loc 1 62 17 is_stmt 0 view .LVU10
  85 0000 FFF7FEBF 		b	_ZN5daisy9DaisySeed10StartAudioEPFvPKPKfPPfjE
  86              	.LVL5:
  87              		.loc 1 62 17 view .LVU11
  88              		.cfi_endproc
  89              	.LFE4665:
  91              		.section	.text._ZN3amc5Pedal11ChangeAudioEPFvPKfPfjE,"ax",%progbits
  92              		.align	1
  93              		.p2align 2,,3
  94              		.global	_ZN3amc5Pedal11ChangeAudioEPFvPKfPfjE
  95              		.syntax unified
  96              		.thumb
  97              		.thumb_func
  99              	_ZN3amc5Pedal11ChangeAudioEPFvPKfPfjE:
 100              	.LVL6:
 101              	.LFB4666:
  63:../src/Pedal.cpp **** }
  64:../src/Pedal.cpp **** 
  65:../src/Pedal.cpp **** void Pedal::ChangeAudio(AudioHandle::InterleavingAudioCallback cb)
  66:../src/Pedal.cpp **** {
 102              		.loc 1 66 1 is_stmt 1 view -0
 103              		.cfi_startproc
 104              		@ args = 0, pretend = 0, frame = 0
 105              		@ frame_needed = 0, uses_anonymous_args = 0
 106              		@ link register save eliminated.
  67:../src/Pedal.cpp **** 	seed.ChangeAudioCallback(cb);
 107              		.loc 1 67 2 view .LVU13
 108              		.loc 1 67 26 is_stmt 0 view .LVU14
 109 0000 FFF7FEBF 		b	_ZN5daisy9DaisySeed19ChangeAudioCallbackEPFvPKfPfjE
 110              	.LVL7:
 111              		.loc 1 67 26 view .LVU15
ARM GAS  /var/folders/83/vwtnzcdn1v99b_lf0k0gsjzr0000gn/T//cc93oyUL.s 			page 4


 112              		.cfi_endproc
 113              	.LFE4666:
 115              		.section	.text._ZN3amc5Pedal11ChangeAudioEPFvPKPKfPPfjE,"ax",%progbits
 116              		.align	1
 117              		.p2align 2,,3
 118              		.global	_ZN3amc5Pedal11ChangeAudioEPFvPKPKfPPfjE
 119              		.syntax unified
 120              		.thumb
 121              		.thumb_func
 123              	_ZN3amc5Pedal11ChangeAudioEPFvPKPKfPPfjE:
 124              	.LVL8:
 125              	.LFB4667:
  68:../src/Pedal.cpp **** }
  69:../src/Pedal.cpp **** 
  70:../src/Pedal.cpp **** void Pedal::ChangeAudio(AudioHandle::AudioCallback cb)
  71:../src/Pedal.cpp **** {
 126              		.loc 1 71 1 is_stmt 1 view -0
 127              		.cfi_startproc
 128              		@ args = 0, pretend = 0, frame = 0
 129              		@ frame_needed = 0, uses_anonymous_args = 0
 130              		@ link register save eliminated.
  72:../src/Pedal.cpp **** 	seed.ChangeAudioCallback(cb);
 131              		.loc 1 72 2 view .LVU17
 132              		.loc 1 72 26 is_stmt 0 view .LVU18
 133 0000 FFF7FEBF 		b	_ZN5daisy9DaisySeed19ChangeAudioCallbackEPFvPKPKfPPfjE
 134              	.LVL9:
 135              		.loc 1 72 26 view .LVU19
 136              		.cfi_endproc
 137              	.LFE4667:
 139              		.section	.text._ZN3amc5Pedal9StopAudioEv,"ax",%progbits
 140              		.align	1
 141              		.p2align 2,,3
 142              		.global	_ZN3amc5Pedal9StopAudioEv
 143              		.syntax unified
 144              		.thumb
 145              		.thumb_func
 147              	_ZN3amc5Pedal9StopAudioEv:
 148              	.LVL10:
 149              	.LFB4668:
  73:../src/Pedal.cpp **** }
  74:../src/Pedal.cpp **** 
  75:../src/Pedal.cpp **** void Pedal::StopAudio()
  76:../src/Pedal.cpp **** {
 150              		.loc 1 76 1 is_stmt 1 view -0
 151              		.cfi_startproc
 152              		@ args = 0, pretend = 0, frame = 0
 153              		@ frame_needed = 0, uses_anonymous_args = 0
 154              		@ link register save eliminated.
  77:../src/Pedal.cpp **** 	seed.StopAudio();
 155              		.loc 1 77 2 view .LVU21
 156              		.loc 1 77 16 is_stmt 0 view .LVU22
 157 0000 FFF7FEBF 		b	_ZN5daisy9DaisySeed9StopAudioEv
 158              	.LVL11:
 159              		.loc 1 77 16 view .LVU23
 160              		.cfi_endproc
 161              	.LFE4668:
 163              		.section	.text._ZN3amc5Pedal12SetAudioRateEN5daisy9SaiHandle6Config10SampleRateE,"ax",%progbits
ARM GAS  /var/folders/83/vwtnzcdn1v99b_lf0k0gsjzr0000gn/T//cc93oyUL.s 			page 5


 164              		.align	1
 165              		.p2align 2,,3
 166              		.global	_ZN3amc5Pedal12SetAudioRateEN5daisy9SaiHandle6Config10SampleRateE
 167              		.syntax unified
 168              		.thumb
 169              		.thumb_func
 171              	_ZN3amc5Pedal12SetAudioRateEN5daisy9SaiHandle6Config10SampleRateE:
 172              	.LVL12:
 173              	.LFB4669:
  78:../src/Pedal.cpp **** }
  79:../src/Pedal.cpp **** 
  80:../src/Pedal.cpp **** void Pedal::SetAudioRate(SaiHandle::Config::SampleRate samplerate)
  81:../src/Pedal.cpp **** {
 174              		.loc 1 81 1 is_stmt 1 view -0
 175              		.cfi_startproc
 176              		@ args = 0, pretend = 0, frame = 0
 177              		@ frame_needed = 0, uses_anonymous_args = 0
  82:../src/Pedal.cpp **** 	seed.SetAudioSampleRate(samplerate);
 178              		.loc 1 82 2 view .LVU25
  81:../src/Pedal.cpp **** 	seed.SetAudioSampleRate(samplerate);
 179              		.loc 1 81 1 is_stmt 0 view .LVU26
 180 0000 70B5     		push	{r4, r5, r6, lr}
 181              		.cfi_def_cfa_offset 16
 182              		.cfi_offset 4, -16
 183              		.cfi_offset 5, -12
 184              		.cfi_offset 6, -8
 185              		.cfi_offset 14, -4
  81:../src/Pedal.cpp **** 	seed.SetAudioSampleRate(samplerate);
 186              		.loc 1 81 1 view .LVU27
 187 0002 0546     		mov	r5, r0
 188              		.loc 1 82 25 view .LVU28
 189 0004 FFF7FEFF 		bl	_ZN5daisy9DaisySeed18SetAudioSampleRateENS_9SaiHandle6Config10SampleRateE
 190              	.LVL13:
  83:../src/Pedal.cpp **** 	SetHidUpdateRates();
 191              		.loc 1 83 2 is_stmt 1 view .LVU29
 192              	.LBB91:
 193              	.LBI91:
  84:../src/Pedal.cpp **** }
  85:../src/Pedal.cpp **** 
  86:../src/Pedal.cpp **** float Pedal::AudioRate()
  87:../src/Pedal.cpp **** {
  88:../src/Pedal.cpp **** 	return seed.AudioSampleRate();
  89:../src/Pedal.cpp **** }
  90:../src/Pedal.cpp **** 
  91:../src/Pedal.cpp **** void Pedal::SetBlockSize(size_t size)
  92:../src/Pedal.cpp **** {
  93:../src/Pedal.cpp **** 	seed.SetAudioBlockSize(size);
  94:../src/Pedal.cpp **** 	SetHidUpdateRates();
  95:../src/Pedal.cpp **** }
  96:../src/Pedal.cpp **** 
  97:../src/Pedal.cpp **** size_t Pedal::BlockSize()
  98:../src/Pedal.cpp **** {
  99:../src/Pedal.cpp **** 	return seed.AudioBlockSize();
 100:../src/Pedal.cpp **** }
 101:../src/Pedal.cpp **** 
 102:../src/Pedal.cpp **** float Pedal::CallbackRate()
 103:../src/Pedal.cpp **** {
ARM GAS  /var/folders/83/vwtnzcdn1v99b_lf0k0gsjzr0000gn/T//cc93oyUL.s 			page 6


 104:../src/Pedal.cpp **** 	return seed.AudioCallbackRate();
 105:../src/Pedal.cpp **** }
 106:../src/Pedal.cpp **** 
 107:../src/Pedal.cpp **** void Pedal::StartAdc() { seed.adc.Start(); } // start analog-digital conversion
 108:../src/Pedal.cpp **** void Pedal::StopAdc() { seed.adc.Stop(); } // stop transfering data
 109:../src/Pedal.cpp **** 
 110:../src/Pedal.cpp **** void Pedal::ProcessAnalog()
 111:../src/Pedal.cpp **** {
 112:../src/Pedal.cpp **** 	for (size_t i = 0; i < KnobI::KN; i++)
 113:../src/Pedal.cpp **** 		knobs[i].Process();
 114:../src/Pedal.cpp **** }
 115:../src/Pedal.cpp **** 
 116:../src/Pedal.cpp **** void Pedal::ProcessDigital()
 117:../src/Pedal.cpp **** {
 118:../src/Pedal.cpp **** 	for (size_t i = 0; i < SwitchI::SN; i++)
 119:../src/Pedal.cpp **** 		switches[i].Debounce();
 120:../src/Pedal.cpp **** 
 121:../src/Pedal.cpp **** 	for (size_t i = 0; i < EncoderI::EN; i++)
 122:../src/Pedal.cpp **** 		encoders[i].Debounce();
 123:../src/Pedal.cpp **** }
 124:../src/Pedal.cpp **** 
 125:../src/Pedal.cpp **** float Pedal::GetKnob(KnobI k)
 126:../src/Pedal.cpp **** {
 127:../src/Pedal.cpp **** 	size_t id = k < KnobI::KN ? k : 0;
 128:../src/Pedal.cpp **** 	return knobs[id].Value();
 129:../src/Pedal.cpp **** }
 130:../src/Pedal.cpp **** 
 131:../src/Pedal.cpp **** void Pedal::SetBypass(bool enabled)
 132:../src/Pedal.cpp **** {
 133:../src/Pedal.cpp **** 	audioBypass = enabled;
 134:../src/Pedal.cpp **** 	audioBypassTrigger.Write(!audioBypass);
 135:../src/Pedal.cpp **** }
 136:../src/Pedal.cpp **** 
 137:../src/Pedal.cpp **** void Pedal::SetMute(bool enabled)
 138:../src/Pedal.cpp **** {
 139:../src/Pedal.cpp **** 	audioMute = enabled;
 140:../src/Pedal.cpp **** 	audioMuteTrigger.Write(audioMute);
 141:../src/Pedal.cpp **** }
 142:../src/Pedal.cpp **** 
 143:../src/Pedal.cpp **** void Pedal::ClearLeds()
 144:../src/Pedal.cpp **** {
 145:../src/Pedal.cpp **** 	for (size_t i = 0; i < LedI::LN; i++)
 146:../src/Pedal.cpp **** 		SetLed(static_cast<LedI>(i), 0.0f);
 147:../src/Pedal.cpp **** }
 148:../src/Pedal.cpp **** 
 149:../src/Pedal.cpp **** void Pedal::SetLed(LedI l, float brightness)
 150:../src/Pedal.cpp **** {
 151:../src/Pedal.cpp **** 	size_t id = l < LedI::LN ? l : 0;
 152:../src/Pedal.cpp **** 	leds[id].Set(brightness);
 153:../src/Pedal.cpp **** }
 154:../src/Pedal.cpp **** 
 155:../src/Pedal.cpp **** void Pedal::UpdateLeds()
 156:../src/Pedal.cpp **** {
 157:../src/Pedal.cpp **** 	for (size_t i = 0; i < LedI::LN; i++)
 158:../src/Pedal.cpp **** 		leds[i].Update();
 159:../src/Pedal.cpp **** }
 160:../src/Pedal.cpp **** 
ARM GAS  /var/folders/83/vwtnzcdn1v99b_lf0k0gsjzr0000gn/T//cc93oyUL.s 			page 7


 161:../src/Pedal.cpp **** void Pedal::InitAnalogControls()
 162:../src/Pedal.cpp **** {
 163:../src/Pedal.cpp **** 	AdcChannelConfig configs[KnobI::KN]; // one config per knob
 164:../src/Pedal.cpp **** 
 165:../src/Pedal.cpp **** 	configs[KnobI::K1].InitSingle(seed.GetPin(KNOB_PIN_1));
 166:../src/Pedal.cpp **** 	configs[KnobI::K2].InitSingle(seed.GetPin(KNOB_PIN_2));
 167:../src/Pedal.cpp **** 	configs[KnobI::K3].InitSingle(seed.GetPin(KNOB_PIN_3));
 168:../src/Pedal.cpp **** 	configs[KnobI::K4].InitSingle(seed.GetPin(KNOB_PIN_4));
 169:../src/Pedal.cpp **** 	configs[KnobI::K5].InitSingle(seed.GetPin(KNOB_PIN_5));
 170:../src/Pedal.cpp **** 	configs[KnobI::K6].InitSingle(seed.GetPin(KNOB_PIN_6));
 171:../src/Pedal.cpp **** 
 172:../src/Pedal.cpp **** 	seed.adc.Init(configs, KnobI::KN);
 173:../src/Pedal.cpp **** 	
 174:../src/Pedal.cpp **** 	for (int i = 0; i < KnobI::KN; i++) // attach pointers to knobs object
 175:../src/Pedal.cpp **** 		knobs[i].Init(seed.adc.GetPtr(i), CallbackRate());
 176:../src/Pedal.cpp **** }
 177:../src/Pedal.cpp **** 
 178:../src/Pedal.cpp **** void Pedal::InitEncoders()
 179:../src/Pedal.cpp **** {
 180:../src/Pedal.cpp **** 	encoders[EncoderI::E1].Init(seed.GetPin(ENCODER_1_A_PIN),
 181:../src/Pedal.cpp **** 		seed.GetPin(ENCODER_1_B_PIN),
 182:../src/Pedal.cpp **** 		seed.GetPin(ENCODER_1_BUTTON_PIN));
 183:../src/Pedal.cpp **** }
 184:../src/Pedal.cpp **** 
 185:../src/Pedal.cpp **** void Pedal::InitSwitches()
 186:../src/Pedal.cpp **** {
 187:../src/Pedal.cpp **** 	switches[SwitchI::S1].Init(seed.GetPin(SWITCH_1_PIN));
 188:../src/Pedal.cpp **** 	switches[SwitchI::S2].Init(seed.GetPin(SWITCH_2_PIN));
 189:../src/Pedal.cpp **** }
 190:../src/Pedal.cpp **** 
 191:../src/Pedal.cpp **** void Pedal::InitLeds()
 192:../src/Pedal.cpp **** {
 193:../src/Pedal.cpp **** 	leds[LedI::L1].Init(seed.GetPin(LED_1_PIN), false);
 194:../src/Pedal.cpp **** 	leds[LedI::L2].Init(seed.GetPin(LED_2_PIN), false);
 195:../src/Pedal.cpp **** }
 196:../src/Pedal.cpp **** 
 197:../src/Pedal.cpp **** void Pedal::InitMidi()
 198:../src/Pedal.cpp **** {
 199:../src/Pedal.cpp **** 	MidiUartHandler::Config config;
 200:../src/Pedal.cpp **** 	config.transport_config.rx = seed.GetPin(MIDI_RX_PIN);
 201:../src/Pedal.cpp **** 	config.transport_config.tx = seed.GetPin(MIDI_TX_PIN);
 202:../src/Pedal.cpp **** 	midi.Init(config);
 203:../src/Pedal.cpp **** }
 204:../src/Pedal.cpp **** 
 205:../src/Pedal.cpp **** void Pedal::SetHidUpdateRates()
 194              		.loc 1 205 6 view .LVU30
 206:../src/Pedal.cpp **** {
 207:../src/Pedal.cpp **** 	for (size_t i = 0; i < KnobI::KN; i++)
 195              		.loc 1 207 2 view .LVU31
 196              	.LBB92:
 197              		.loc 1 207 23 discriminator 1 view .LVU32
 198 0008 05F25444 		addw	r4, r5, #1108
 199 000c 05F21456 		addw	r6, r5, #1300
 200              	.LVL14:
 201              	.L9:
 208:../src/Pedal.cpp **** 		knobs[i].SetSampleRate(CallbackRate());
 202              		.loc 1 208 3 view .LVU33
ARM GAS  /var/folders/83/vwtnzcdn1v99b_lf0k0gsjzr0000gn/T//cc93oyUL.s 			page 8


 203              	.LBB93:
 204              	.LBI93:
 102:../src/Pedal.cpp **** {
 205              		.loc 1 102 7 view .LVU34
 206              	.LBB94:
 104:../src/Pedal.cpp **** }
 207              		.loc 1 104 2 view .LVU35
 104:../src/Pedal.cpp **** }
 208              		.loc 1 104 31 is_stmt 0 view .LVU36
 209 0010 2846     		mov	r0, r5
 210 0012 FFF7FEFF 		bl	_ZNK5daisy9DaisySeed17AudioCallbackRateEv
 211              	.LVL15:
 104:../src/Pedal.cpp **** }
 212              		.loc 1 104 31 view .LVU37
 213              	.LBE94:
 214              	.LBE93:
 215              		.loc 1 208 25 discriminator 1 view .LVU38
 216 0016 2046     		mov	r0, r4
 207:../src/Pedal.cpp **** 		knobs[i].SetSampleRate(CallbackRate());
 217              		.loc 1 207 23 discriminator 1 view .LVU39
 218 0018 2034     		adds	r4, r4, #32
 219              		.loc 1 208 25 discriminator 1 view .LVU40
 220 001a FFF7FEFF 		bl	_ZN5daisy13AnalogControl13SetSampleRateEf
 221              	.LVL16:
 207:../src/Pedal.cpp **** 		knobs[i].SetSampleRate(CallbackRate());
 222              		.loc 1 207 2 is_stmt 1 discriminator 3 view .LVU41
 207:../src/Pedal.cpp **** 		knobs[i].SetSampleRate(CallbackRate());
 223              		.loc 1 207 23 discriminator 1 view .LVU42
 224 001e B442     		cmp	r4, r6
 225 0020 F6D1     		bne	.L9
 226              	.LVL17:
 207:../src/Pedal.cpp **** 		knobs[i].SetSampleRate(CallbackRate());
 227              		.loc 1 207 23 is_stmt 0 discriminator 1 view .LVU43
 228              	.LBE92:
 229              	.LBB95:
 209:../src/Pedal.cpp **** 
 210:../src/Pedal.cpp **** 	for (size_t i = 0; i < LedI::LN; i++)
 230              		.loc 1 210 23 is_stmt 1 discriminator 1 view .LVU44
 211:../src/Pedal.cpp **** 		leds[i].SetSampleRate(CallbackRate());
 231              		.loc 1 211 3 view .LVU45
 232              	.LBB96:
 233              	.LBI96:
 102:../src/Pedal.cpp **** {
 234              		.loc 1 102 7 view .LVU46
 235              	.LBB97:
 104:../src/Pedal.cpp **** }
 236              		.loc 1 104 2 view .LVU47
 104:../src/Pedal.cpp **** }
 237              		.loc 1 104 31 is_stmt 0 view .LVU48
 238 0022 2846     		mov	r0, r5
 239 0024 FFF7FEFF 		bl	_ZNK5daisy9DaisySeed17AudioCallbackRateEv
 240              	.LVL18:
 104:../src/Pedal.cpp **** }
 241              		.loc 1 104 31 view .LVU49
 242              	.LBE97:
 243              	.LBE96:
 244              	.LBB100:
ARM GAS  /var/folders/83/vwtnzcdn1v99b_lf0k0gsjzr0000gn/T//cc93oyUL.s 			page 9


 245              	.LBI100:
 246              		.file 2 "/Users/amc/git/libDaisy/src/hid/led.h"
   1:/Users/amc/git/libDaisy/src/hid/led.h **** 
   2:/Users/amc/git/libDaisy/src/hid/led.h **** #pragma once
   3:/Users/amc/git/libDaisy/src/hid/led.h **** #ifndef DSY_LED_H
   4:/Users/amc/git/libDaisy/src/hid/led.h **** #define DSY_LED_H
   5:/Users/amc/git/libDaisy/src/hid/led.h **** #include "daisy_core.h"
   6:/Users/amc/git/libDaisy/src/hid/led.h **** #include "per/gpio.h"
   7:/Users/amc/git/libDaisy/src/hid/led.h **** 
   8:/Users/amc/git/libDaisy/src/hid/led.h **** /* TODO - Get this set up to work with the dev_leddriver stuff as well
   9:/Users/amc/git/libDaisy/src/hid/led.h **** - Setup Hardware PWM for pins that have it
  10:/Users/amc/git/libDaisy/src/hid/led.h **** */
  11:/Users/amc/git/libDaisy/src/hid/led.h **** 
  12:/Users/amc/git/libDaisy/src/hid/led.h **** namespace daisy
  13:/Users/amc/git/libDaisy/src/hid/led.h **** {
  14:/Users/amc/git/libDaisy/src/hid/led.h **** /**
  15:/Users/amc/git/libDaisy/src/hid/led.h ****     @brief LED Class providing simple Software PWM ability, etc \n 
  16:/Users/amc/git/libDaisy/src/hid/led.h ****     Eventually this will work with hardware PWM, and external LED Driver devices as well.
  17:/Users/amc/git/libDaisy/src/hid/led.h ****     @author shensley
  18:/Users/amc/git/libDaisy/src/hid/led.h ****     @date March 2020
  19:/Users/amc/git/libDaisy/src/hid/led.h ****     @ingroup feedback
  20:/Users/amc/git/libDaisy/src/hid/led.h **** */
  21:/Users/amc/git/libDaisy/src/hid/led.h **** class Led
  22:/Users/amc/git/libDaisy/src/hid/led.h **** {
  23:/Users/amc/git/libDaisy/src/hid/led.h ****   public:
  24:/Users/amc/git/libDaisy/src/hid/led.h ****     Led() {}
  25:/Users/amc/git/libDaisy/src/hid/led.h ****     ~Led() {}
  26:/Users/amc/git/libDaisy/src/hid/led.h **** 
  27:/Users/amc/git/libDaisy/src/hid/led.h ****     /** 
  28:/Users/amc/git/libDaisy/src/hid/led.h ****     Initializes an LED using the specified hardware pin.
  29:/Users/amc/git/libDaisy/src/hid/led.h ****     \param pin chooses LED pin
  30:/Users/amc/git/libDaisy/src/hid/led.h ****     \param invert will set whether to internally invert the brightness due to hardware config.
  31:/Users/amc/git/libDaisy/src/hid/led.h ****         \param samplerate sets the rate at which 'Update()' will be called (used for software PWM)
  32:/Users/amc/git/libDaisy/src/hid/led.h ****     */
  33:/Users/amc/git/libDaisy/src/hid/led.h ****     void Init(dsy_gpio_pin pin, bool invert, float samplerate = 1000.0f);
  34:/Users/amc/git/libDaisy/src/hid/led.h **** 
  35:/Users/amc/git/libDaisy/src/hid/led.h ****     /** 
  36:/Users/amc/git/libDaisy/src/hid/led.h ****     Sets the brightness of the Led.
  37:/Users/amc/git/libDaisy/src/hid/led.h ****     \param val will be cubed for gamma correction, and then quantized to 8-bit values for Software 
  38:/Users/amc/git/libDaisy/src/hid/led.h ****     8-bit is for more flexible update rate options, as 12-bit or more would require faster update r
  39:/Users/amc/git/libDaisy/src/hid/led.h ****     */
  40:/Users/amc/git/libDaisy/src/hid/led.h ****     void Set(float val);
  41:/Users/amc/git/libDaisy/src/hid/led.h **** 
  42:/Users/amc/git/libDaisy/src/hid/led.h ****     /** 
  43:/Users/amc/git/libDaisy/src/hid/led.h ****     This processes the pwm of the LED
  44:/Users/amc/git/libDaisy/src/hid/led.h ****     sets the hardware accordingly.
  45:/Users/amc/git/libDaisy/src/hid/led.h ****     */
  46:/Users/amc/git/libDaisy/src/hid/led.h ****     void Update();
  47:/Users/amc/git/libDaisy/src/hid/led.h **** 
  48:/Users/amc/git/libDaisy/src/hid/led.h ****     /** Set the rate at which you'll update the leds without reiniting the led
  49:/Users/amc/git/libDaisy/src/hid/led.h ****      *  \param sample_rate New update rate in hz.
  50:/Users/amc/git/libDaisy/src/hid/led.h ****     */
  51:/Users/amc/git/libDaisy/src/hid/led.h ****     inline void SetSampleRate(float sample_rate) { samplerate_ = sample_rate; }
 247              		.loc 2 51 17 is_stmt 1 view .LVU50
 248              	.LBB101:
 249              		.loc 2 51 52 view .LVU51
 250              		.loc 2 51 64 is_stmt 0 view .LVU52
ARM GAS  /var/folders/83/vwtnzcdn1v99b_lf0k0gsjzr0000gn/T//cc93oyUL.s 			page 10


 251 0028 05F26C53 		addw	r3, r5, #1388
 252              	.LBE101:
 253              	.LBE100:
 254              	.LBB104:
 255              	.LBB98:
 104:../src/Pedal.cpp **** }
 256              		.loc 1 104 31 view .LVU53
 257 002c 2846     		mov	r0, r5
 258              	.LBE98:
 259              	.LBE104:
 260              	.LBB105:
 261              	.LBB102:
 262              		.loc 2 51 64 view .LVU54
 263 002e 05F5B165 		add	r5, r5, #1416
 264              	.LVL19:
 265              		.loc 2 51 64 view .LVU55
 266 0032 83ED000A 		vstr.32	s0, [r3]
 267              	.LVL20:
 268              		.loc 2 51 64 view .LVU56
 269              	.LBE102:
 270              	.LBE105:
 210:../src/Pedal.cpp **** 		leds[i].SetSampleRate(CallbackRate());
 271              		.loc 1 210 2 is_stmt 1 discriminator 3 view .LVU57
 210:../src/Pedal.cpp **** 		leds[i].SetSampleRate(CallbackRate());
 272              		.loc 1 210 23 discriminator 1 view .LVU58
 273              		.loc 1 211 3 view .LVU59
 274              	.LBB106:
 102:../src/Pedal.cpp **** {
 275              		.loc 1 102 7 view .LVU60
 276              	.LBB99:
 104:../src/Pedal.cpp **** }
 277              		.loc 1 104 2 view .LVU61
 104:../src/Pedal.cpp **** }
 278              		.loc 1 104 31 is_stmt 0 view .LVU62
 279 0036 FFF7FEFF 		bl	_ZNK5daisy9DaisySeed17AudioCallbackRateEv
 280              	.LVL21:
 104:../src/Pedal.cpp **** }
 281              		.loc 1 104 31 view .LVU63
 282              	.LBE99:
 283              	.LBE106:
 284              	.LBB107:
 285              		.loc 2 51 17 is_stmt 1 view .LVU64
 286              	.LBB103:
 287              		.loc 2 51 52 view .LVU65
 288              		.loc 2 51 64 is_stmt 0 view .LVU66
 289 003a 85ED000A 		vstr.32	s0, [r5]
 290              	.LVL22:
 291              		.loc 2 51 64 view .LVU67
 292              	.LBE103:
 293              	.LBE107:
 210:../src/Pedal.cpp **** 		leds[i].SetSampleRate(CallbackRate());
 294              		.loc 1 210 2 is_stmt 1 discriminator 3 view .LVU68
 210:../src/Pedal.cpp **** 		leds[i].SetSampleRate(CallbackRate());
 295              		.loc 1 210 23 discriminator 1 view .LVU69
 210:../src/Pedal.cpp **** 		leds[i].SetSampleRate(CallbackRate());
 296              		.loc 1 210 23 is_stmt 0 discriminator 1 view .LVU70
 297              	.LBE95:
ARM GAS  /var/folders/83/vwtnzcdn1v99b_lf0k0gsjzr0000gn/T//cc93oyUL.s 			page 11


 298              	.LBE91:
  84:../src/Pedal.cpp **** 
 299              		.loc 1 84 1 view .LVU71
 300 003e 70BD     		pop	{r4, r5, r6, pc}
  84:../src/Pedal.cpp **** 
 301              		.loc 1 84 1 view .LVU72
 302              		.cfi_endproc
 303              	.LFE4669:
 305              		.section	.text._ZN3amc5Pedal9AudioRateEv,"ax",%progbits
 306              		.align	1
 307              		.p2align 2,,3
 308              		.global	_ZN3amc5Pedal9AudioRateEv
 309              		.syntax unified
 310              		.thumb
 311              		.thumb_func
 313              	_ZN3amc5Pedal9AudioRateEv:
 314              	.LVL23:
 315              	.LFB4670:
  87:../src/Pedal.cpp **** 	return seed.AudioSampleRate();
 316              		.loc 1 87 1 is_stmt 1 view -0
 317              		.cfi_startproc
 318              		@ args = 0, pretend = 0, frame = 0
 319              		@ frame_needed = 0, uses_anonymous_args = 0
 320              		@ link register save eliminated.
  88:../src/Pedal.cpp **** }
 321              		.loc 1 88 2 view .LVU74
  88:../src/Pedal.cpp **** }
 322              		.loc 1 88 29 is_stmt 0 view .LVU75
 323 0000 FFF7FEBF 		b	_ZN5daisy9DaisySeed15AudioSampleRateEv
 324              	.LVL24:
  88:../src/Pedal.cpp **** }
 325              		.loc 1 88 29 view .LVU76
 326              		.cfi_endproc
 327              	.LFE4670:
 329              		.section	.text._ZN3amc5Pedal12SetBlockSizeEj,"ax",%progbits
 330              		.align	1
 331              		.p2align 2,,3
 332              		.global	_ZN3amc5Pedal12SetBlockSizeEj
 333              		.syntax unified
 334              		.thumb
 335              		.thumb_func
 337              	_ZN3amc5Pedal12SetBlockSizeEj:
 338              	.LVL25:
 339              	.LFB4671:
  92:../src/Pedal.cpp **** 	seed.SetAudioBlockSize(size);
 340              		.loc 1 92 1 is_stmt 1 view -0
 341              		.cfi_startproc
 342              		@ args = 0, pretend = 0, frame = 0
 343              		@ frame_needed = 0, uses_anonymous_args = 0
  93:../src/Pedal.cpp **** 	SetHidUpdateRates();
 344              		.loc 1 93 2 view .LVU78
  92:../src/Pedal.cpp **** 	seed.SetAudioBlockSize(size);
 345              		.loc 1 92 1 is_stmt 0 view .LVU79
 346 0000 70B5     		push	{r4, r5, r6, lr}
 347              		.cfi_def_cfa_offset 16
 348              		.cfi_offset 4, -16
 349              		.cfi_offset 5, -12
ARM GAS  /var/folders/83/vwtnzcdn1v99b_lf0k0gsjzr0000gn/T//cc93oyUL.s 			page 12


 350              		.cfi_offset 6, -8
 351              		.cfi_offset 14, -4
  92:../src/Pedal.cpp **** 	seed.SetAudioBlockSize(size);
 352              		.loc 1 92 1 view .LVU80
 353 0002 0546     		mov	r5, r0
  93:../src/Pedal.cpp **** 	SetHidUpdateRates();
 354              		.loc 1 93 24 view .LVU81
 355 0004 FFF7FEFF 		bl	_ZN5daisy9DaisySeed17SetAudioBlockSizeEj
 356              	.LVL26:
  94:../src/Pedal.cpp **** }
 357              		.loc 1 94 2 is_stmt 1 view .LVU82
 358              	.LBB118:
 359              	.LBI118:
 205:../src/Pedal.cpp **** {
 360              		.loc 1 205 6 view .LVU83
 207:../src/Pedal.cpp **** 		knobs[i].SetSampleRate(CallbackRate());
 361              		.loc 1 207 2 view .LVU84
 362              	.LBB119:
 207:../src/Pedal.cpp **** 		knobs[i].SetSampleRate(CallbackRate());
 363              		.loc 1 207 23 discriminator 1 view .LVU85
 364 0008 05F25444 		addw	r4, r5, #1108
 365 000c 05F21456 		addw	r6, r5, #1300
 366              	.LVL27:
 367              	.L14:
 208:../src/Pedal.cpp **** 
 368              		.loc 1 208 3 view .LVU86
 369              	.LBB120:
 370              	.LBI120:
 102:../src/Pedal.cpp **** {
 371              		.loc 1 102 7 view .LVU87
 372              	.LBB121:
 104:../src/Pedal.cpp **** }
 373              		.loc 1 104 2 view .LVU88
 104:../src/Pedal.cpp **** }
 374              		.loc 1 104 31 is_stmt 0 view .LVU89
 375 0010 2846     		mov	r0, r5
 376 0012 FFF7FEFF 		bl	_ZNK5daisy9DaisySeed17AudioCallbackRateEv
 377              	.LVL28:
 104:../src/Pedal.cpp **** }
 378              		.loc 1 104 31 view .LVU90
 379              	.LBE121:
 380              	.LBE120:
 208:../src/Pedal.cpp **** 
 381              		.loc 1 208 25 discriminator 1 view .LVU91
 382 0016 2046     		mov	r0, r4
 207:../src/Pedal.cpp **** 		knobs[i].SetSampleRate(CallbackRate());
 383              		.loc 1 207 23 discriminator 1 view .LVU92
 384 0018 2034     		adds	r4, r4, #32
 208:../src/Pedal.cpp **** 
 385              		.loc 1 208 25 discriminator 1 view .LVU93
 386 001a FFF7FEFF 		bl	_ZN5daisy13AnalogControl13SetSampleRateEf
 387              	.LVL29:
 207:../src/Pedal.cpp **** 		knobs[i].SetSampleRate(CallbackRate());
 388              		.loc 1 207 2 is_stmt 1 discriminator 3 view .LVU94
 207:../src/Pedal.cpp **** 		knobs[i].SetSampleRate(CallbackRate());
 389              		.loc 1 207 23 discriminator 1 view .LVU95
 390 001e B442     		cmp	r4, r6
ARM GAS  /var/folders/83/vwtnzcdn1v99b_lf0k0gsjzr0000gn/T//cc93oyUL.s 			page 13


 391 0020 F6D1     		bne	.L14
 392              	.LVL30:
 207:../src/Pedal.cpp **** 		knobs[i].SetSampleRate(CallbackRate());
 393              		.loc 1 207 23 is_stmt 0 discriminator 1 view .LVU96
 394              	.LBE119:
 395              	.LBB122:
 210:../src/Pedal.cpp **** 		leds[i].SetSampleRate(CallbackRate());
 396              		.loc 1 210 23 is_stmt 1 discriminator 1 view .LVU97
 397              		.loc 1 211 3 view .LVU98
 398              	.LBB123:
 399              	.LBI123:
 102:../src/Pedal.cpp **** {
 400              		.loc 1 102 7 view .LVU99
 401              	.LBB124:
 104:../src/Pedal.cpp **** }
 402              		.loc 1 104 2 view .LVU100
 104:../src/Pedal.cpp **** }
 403              		.loc 1 104 31 is_stmt 0 view .LVU101
 404 0022 2846     		mov	r0, r5
 405 0024 FFF7FEFF 		bl	_ZNK5daisy9DaisySeed17AudioCallbackRateEv
 406              	.LVL31:
 104:../src/Pedal.cpp **** }
 407              		.loc 1 104 31 view .LVU102
 408              	.LBE124:
 409              	.LBE123:
 410              	.LBB127:
 411              	.LBI127:
 412              		.loc 2 51 17 is_stmt 1 view .LVU103
 413              	.LBB128:
 414              		.loc 2 51 52 view .LVU104
 415              		.loc 2 51 64 is_stmt 0 view .LVU105
 416 0028 05F26C53 		addw	r3, r5, #1388
 417              	.LBE128:
 418              	.LBE127:
 419              	.LBB131:
 420              	.LBB125:
 104:../src/Pedal.cpp **** }
 421              		.loc 1 104 31 view .LVU106
 422 002c 2846     		mov	r0, r5
 423              	.LBE125:
 424              	.LBE131:
 425              	.LBB132:
 426              	.LBB129:
 427              		.loc 2 51 64 view .LVU107
 428 002e 05F5B165 		add	r5, r5, #1416
 429              	.LVL32:
 430              		.loc 2 51 64 view .LVU108
 431 0032 83ED000A 		vstr.32	s0, [r3]
 432              	.LVL33:
 433              		.loc 2 51 64 view .LVU109
 434              	.LBE129:
 435              	.LBE132:
 210:../src/Pedal.cpp **** 		leds[i].SetSampleRate(CallbackRate());
 436              		.loc 1 210 2 is_stmt 1 discriminator 3 view .LVU110
 210:../src/Pedal.cpp **** 		leds[i].SetSampleRate(CallbackRate());
 437              		.loc 1 210 23 discriminator 1 view .LVU111
 438              		.loc 1 211 3 view .LVU112
ARM GAS  /var/folders/83/vwtnzcdn1v99b_lf0k0gsjzr0000gn/T//cc93oyUL.s 			page 14


 439              	.LBB133:
 102:../src/Pedal.cpp **** {
 440              		.loc 1 102 7 view .LVU113
 441              	.LBB126:
 104:../src/Pedal.cpp **** }
 442              		.loc 1 104 2 view .LVU114
 104:../src/Pedal.cpp **** }
 443              		.loc 1 104 31 is_stmt 0 view .LVU115
 444 0036 FFF7FEFF 		bl	_ZNK5daisy9DaisySeed17AudioCallbackRateEv
 445              	.LVL34:
 104:../src/Pedal.cpp **** }
 446              		.loc 1 104 31 view .LVU116
 447              	.LBE126:
 448              	.LBE133:
 449              	.LBB134:
 450              		.loc 2 51 17 is_stmt 1 view .LVU117
 451              	.LBB130:
 452              		.loc 2 51 52 view .LVU118
 453              		.loc 2 51 64 is_stmt 0 view .LVU119
 454 003a 85ED000A 		vstr.32	s0, [r5]
 455              	.LVL35:
 456              		.loc 2 51 64 view .LVU120
 457              	.LBE130:
 458              	.LBE134:
 210:../src/Pedal.cpp **** 		leds[i].SetSampleRate(CallbackRate());
 459              		.loc 1 210 2 is_stmt 1 discriminator 3 view .LVU121
 210:../src/Pedal.cpp **** 		leds[i].SetSampleRate(CallbackRate());
 460              		.loc 1 210 23 discriminator 1 view .LVU122
 210:../src/Pedal.cpp **** 		leds[i].SetSampleRate(CallbackRate());
 461              		.loc 1 210 23 is_stmt 0 discriminator 1 view .LVU123
 462              	.LBE122:
 463              	.LBE118:
  95:../src/Pedal.cpp **** 
 464              		.loc 1 95 1 view .LVU124
 465 003e 70BD     		pop	{r4, r5, r6, pc}
  95:../src/Pedal.cpp **** 
 466              		.loc 1 95 1 view .LVU125
 467              		.cfi_endproc
 468              	.LFE4671:
 470              		.section	.text._ZN3amc5Pedal9BlockSizeEv,"ax",%progbits
 471              		.align	1
 472              		.p2align 2,,3
 473              		.global	_ZN3amc5Pedal9BlockSizeEv
 474              		.syntax unified
 475              		.thumb
 476              		.thumb_func
 478              	_ZN3amc5Pedal9BlockSizeEv:
 479              	.LVL36:
 480              	.LFB4672:
  98:../src/Pedal.cpp **** 	return seed.AudioBlockSize();
 481              		.loc 1 98 1 is_stmt 1 view -0
 482              		.cfi_startproc
 483              		@ args = 0, pretend = 0, frame = 0
 484              		@ frame_needed = 0, uses_anonymous_args = 0
 485              		@ link register save eliminated.
  99:../src/Pedal.cpp **** }
 486              		.loc 1 99 2 view .LVU127
ARM GAS  /var/folders/83/vwtnzcdn1v99b_lf0k0gsjzr0000gn/T//cc93oyUL.s 			page 15


  99:../src/Pedal.cpp **** }
 487              		.loc 1 99 28 is_stmt 0 view .LVU128
 488 0000 FFF7FEBF 		b	_ZN5daisy9DaisySeed14AudioBlockSizeEv
 489              	.LVL37:
  99:../src/Pedal.cpp **** }
 490              		.loc 1 99 28 view .LVU129
 491              		.cfi_endproc
 492              	.LFE4672:
 494              		.section	.text._ZN3amc5Pedal12CallbackRateEv,"ax",%progbits
 495              		.align	1
 496              		.p2align 2,,3
 497              		.global	_ZN3amc5Pedal12CallbackRateEv
 498              		.syntax unified
 499              		.thumb
 500              		.thumb_func
 502              	_ZN3amc5Pedal12CallbackRateEv:
 503              	.LVL38:
 504              	.LFB4673:
 103:../src/Pedal.cpp **** 	return seed.AudioCallbackRate();
 505              		.loc 1 103 1 is_stmt 1 view -0
 506              		.cfi_startproc
 507              		@ args = 0, pretend = 0, frame = 0
 508              		@ frame_needed = 0, uses_anonymous_args = 0
 509              		@ link register save eliminated.
 104:../src/Pedal.cpp **** }
 510              		.loc 1 104 2 view .LVU131
 104:../src/Pedal.cpp **** }
 511              		.loc 1 104 31 is_stmt 0 view .LVU132
 512 0000 FFF7FEBF 		b	_ZNK5daisy9DaisySeed17AudioCallbackRateEv
 513              	.LVL39:
 104:../src/Pedal.cpp **** }
 514              		.loc 1 104 31 view .LVU133
 515              		.cfi_endproc
 516              	.LFE4673:
 518              		.section	.text._ZN3amc5Pedal8StartAdcEv,"ax",%progbits
 519              		.align	1
 520              		.p2align 2,,3
 521              		.global	_ZN3amc5Pedal8StartAdcEv
 522              		.syntax unified
 523              		.thumb
 524              		.thumb_func
 526              	_ZN3amc5Pedal8StartAdcEv:
 527              	.LVL40:
 528              	.LFB4674:
 107:../src/Pedal.cpp **** void Pedal::StopAdc() { seed.adc.Stop(); } // stop transfering data
 529              		.loc 1 107 24 is_stmt 1 view -0
 530              		.cfi_startproc
 531              		@ args = 0, pretend = 0, frame = 0
 532              		@ frame_needed = 0, uses_anonymous_args = 0
 533              		@ link register save eliminated.
 107:../src/Pedal.cpp **** void Pedal::StopAdc() { seed.adc.Stop(); } // stop transfering data
 534              		.loc 1 107 26 view .LVU135
 107:../src/Pedal.cpp **** void Pedal::StopAdc() { seed.adc.Stop(); } // stop transfering data
 535              		.loc 1 107 40 is_stmt 0 view .LVU136
 536 0000 1830     		adds	r0, r0, #24
 537              	.LVL41:
 107:../src/Pedal.cpp **** void Pedal::StopAdc() { seed.adc.Stop(); } // stop transfering data
ARM GAS  /var/folders/83/vwtnzcdn1v99b_lf0k0gsjzr0000gn/T//cc93oyUL.s 			page 16


 538              		.loc 1 107 40 view .LVU137
 539 0002 FFF7FEBF 		b	_ZN5daisy9AdcHandle5StartEv
 540              	.LVL42:
 107:../src/Pedal.cpp **** void Pedal::StopAdc() { seed.adc.Stop(); } // stop transfering data
 541              		.loc 1 107 40 view .LVU138
 542              		.cfi_endproc
 543              	.LFE4674:
 545 0006 00BF     		.section	.text._ZN3amc5Pedal7StopAdcEv,"ax",%progbits
 546              		.align	1
 547              		.p2align 2,,3
 548              		.global	_ZN3amc5Pedal7StopAdcEv
 549              		.syntax unified
 550              		.thumb
 551              		.thumb_func
 553              	_ZN3amc5Pedal7StopAdcEv:
 554              	.LVL43:
 555              	.LFB4675:
 108:../src/Pedal.cpp **** 
 556              		.loc 1 108 23 is_stmt 1 view -0
 557              		.cfi_startproc
 558              		@ args = 0, pretend = 0, frame = 0
 559              		@ frame_needed = 0, uses_anonymous_args = 0
 560              		@ link register save eliminated.
 108:../src/Pedal.cpp **** 
 561              		.loc 1 108 25 view .LVU140
 108:../src/Pedal.cpp **** 
 562              		.loc 1 108 38 is_stmt 0 view .LVU141
 563 0000 1830     		adds	r0, r0, #24
 564              	.LVL44:
 108:../src/Pedal.cpp **** 
 565              		.loc 1 108 38 view .LVU142
 566 0002 FFF7FEBF 		b	_ZN5daisy9AdcHandle4StopEv
 567              	.LVL45:
 108:../src/Pedal.cpp **** 
 568              		.loc 1 108 38 view .LVU143
 569              		.cfi_endproc
 570              	.LFE4675:
 572 0006 00BF     		.section	.text._ZN3amc5Pedal13ProcessAnalogEv,"ax",%progbits
 573              		.align	1
 574              		.p2align 2,,3
 575              		.global	_ZN3amc5Pedal13ProcessAnalogEv
 576              		.syntax unified
 577              		.thumb
 578              		.thumb_func
 580              	_ZN3amc5Pedal13ProcessAnalogEv:
 581              	.LVL46:
 582              	.LFB4676:
 111:../src/Pedal.cpp **** 	for (size_t i = 0; i < KnobI::KN; i++)
 583              		.loc 1 111 1 is_stmt 1 view -0
 584              		.cfi_startproc
 585              		@ args = 0, pretend = 0, frame = 0
 586              		@ frame_needed = 0, uses_anonymous_args = 0
 112:../src/Pedal.cpp **** 		knobs[i].Process();
 587              		.loc 1 112 2 view .LVU145
 588              	.LBB135:
 112:../src/Pedal.cpp **** 		knobs[i].Process();
 589              		.loc 1 112 23 discriminator 1 view .LVU146
ARM GAS  /var/folders/83/vwtnzcdn1v99b_lf0k0gsjzr0000gn/T//cc93oyUL.s 			page 17


 590              	.LBE135:
 111:../src/Pedal.cpp **** 	for (size_t i = 0; i < KnobI::KN; i++)
 591              		.loc 1 111 1 is_stmt 0 view .LVU147
 592 0000 38B5     		push	{r3, r4, r5, lr}
 593              		.cfi_def_cfa_offset 16
 594              		.cfi_offset 3, -16
 595              		.cfi_offset 4, -12
 596              		.cfi_offset 5, -8
 597              		.cfi_offset 14, -4
 598 0002 00F25444 		addw	r4, r0, #1108
 599 0006 00F21455 		addw	r5, r0, #1300
 600              	.LVL47:
 601              	.L22:
 602              	.LBB136:
 113:../src/Pedal.cpp **** }
 603              		.loc 1 113 3 is_stmt 1 view .LVU148
 113:../src/Pedal.cpp **** }
 604              		.loc 1 113 19 is_stmt 0 view .LVU149
 605 000a 2046     		mov	r0, r4
 112:../src/Pedal.cpp **** 		knobs[i].Process();
 606              		.loc 1 112 23 discriminator 1 view .LVU150
 607 000c 2034     		adds	r4, r4, #32
 113:../src/Pedal.cpp **** }
 608              		.loc 1 113 19 view .LVU151
 609 000e FFF7FEFF 		bl	_ZN5daisy13AnalogControl7ProcessEv
 610              	.LVL48:
 112:../src/Pedal.cpp **** 		knobs[i].Process();
 611              		.loc 1 112 2 is_stmt 1 discriminator 3 view .LVU152
 112:../src/Pedal.cpp **** 		knobs[i].Process();
 612              		.loc 1 112 23 discriminator 1 view .LVU153
 613 0012 AC42     		cmp	r4, r5
 614 0014 F9D1     		bne	.L22
 615              	.LBE136:
 114:../src/Pedal.cpp **** 
 616              		.loc 1 114 1 is_stmt 0 view .LVU154
 617 0016 38BD     		pop	{r3, r4, r5, pc}
 114:../src/Pedal.cpp **** 
 618              		.loc 1 114 1 view .LVU155
 619              		.cfi_endproc
 620              	.LFE4676:
 622              		.section	.text._ZN3amc5Pedal14ProcessDigitalEv,"ax",%progbits
 623              		.align	1
 624              		.p2align 2,,3
 625              		.global	_ZN3amc5Pedal14ProcessDigitalEv
 626              		.syntax unified
 627              		.thumb
 628              		.thumb_func
 630              	_ZN3amc5Pedal14ProcessDigitalEv:
 631              	.LVL49:
 632              	.LFB4677:
 117:../src/Pedal.cpp **** 	for (size_t i = 0; i < SwitchI::SN; i++)
 633              		.loc 1 117 1 is_stmt 1 view -0
 634              		.cfi_startproc
 635              		@ args = 0, pretend = 0, frame = 0
 636              		@ frame_needed = 0, uses_anonymous_args = 0
 118:../src/Pedal.cpp **** 		switches[i].Debounce();
 637              		.loc 1 118 2 view .LVU157
ARM GAS  /var/folders/83/vwtnzcdn1v99b_lf0k0gsjzr0000gn/T//cc93oyUL.s 			page 18


 638              	.LBB137:
 118:../src/Pedal.cpp **** 		switches[i].Debounce();
 639              		.loc 1 118 23 discriminator 1 view .LVU158
 119:../src/Pedal.cpp **** 
 640              		.loc 1 119 3 view .LVU159
 641              	.LBE137:
 117:../src/Pedal.cpp **** 	for (size_t i = 0; i < SwitchI::SN; i++)
 642              		.loc 1 117 1 is_stmt 0 view .LVU160
 643 0000 10B5     		push	{r4, lr}
 644              		.cfi_def_cfa_offset 8
 645              		.cfi_offset 4, -8
 646              		.cfi_offset 14, -4
 117:../src/Pedal.cpp **** 	for (size_t i = 0; i < SwitchI::SN; i++)
 647              		.loc 1 117 1 view .LVU161
 648 0002 0446     		mov	r4, r0
 649              	.LBB138:
 119:../src/Pedal.cpp **** 
 650              		.loc 1 119 23 view .LVU162
 651 0004 00F23C50 		addw	r0, r0, #1340
 652              	.LVL50:
 119:../src/Pedal.cpp **** 
 653              		.loc 1 119 23 view .LVU163
 654 0008 FFF7FEFF 		bl	_ZN5daisy6Switch8DebounceEv
 655              	.LVL51:
 118:../src/Pedal.cpp **** 		switches[i].Debounce();
 656              		.loc 1 118 2 is_stmt 1 discriminator 3 view .LVU164
 118:../src/Pedal.cpp **** 		switches[i].Debounce();
 657              		.loc 1 118 23 discriminator 1 view .LVU165
 119:../src/Pedal.cpp **** 
 658              		.loc 1 119 3 view .LVU166
 119:../src/Pedal.cpp **** 
 659              		.loc 1 119 23 is_stmt 0 view .LVU167
 660 000c 04F24C50 		addw	r0, r4, #1356
 661 0010 FFF7FEFF 		bl	_ZN5daisy6Switch8DebounceEv
 662              	.LVL52:
 118:../src/Pedal.cpp **** 		switches[i].Debounce();
 663              		.loc 1 118 2 is_stmt 1 discriminator 3 view .LVU168
 118:../src/Pedal.cpp **** 		switches[i].Debounce();
 664              		.loc 1 118 23 discriminator 1 view .LVU169
 118:../src/Pedal.cpp **** 		switches[i].Debounce();
 665              		.loc 1 118 23 is_stmt 0 discriminator 1 view .LVU170
 666              	.LBE138:
 667              	.LBB139:
 121:../src/Pedal.cpp **** 		encoders[i].Debounce();
 668              		.loc 1 121 23 is_stmt 1 discriminator 1 view .LVU171
 122:../src/Pedal.cpp **** }
 669              		.loc 1 122 3 view .LVU172
 122:../src/Pedal.cpp **** }
 670              		.loc 1 122 23 is_stmt 0 view .LVU173
 671 0014 04F21450 		addw	r0, r4, #1300
 672              	.LBE139:
 123:../src/Pedal.cpp **** 
 673              		.loc 1 123 1 view .LVU174
 674 0018 BDE81040 		pop	{r4, lr}
 675              		.cfi_restore 14
 676              		.cfi_restore 4
 677              		.cfi_def_cfa_offset 0
ARM GAS  /var/folders/83/vwtnzcdn1v99b_lf0k0gsjzr0000gn/T//cc93oyUL.s 			page 19


 678              	.LVL53:
 679              	.LBB140:
 122:../src/Pedal.cpp **** }
 680              		.loc 1 122 23 view .LVU175
 681 001c FFF7FEBF 		b	_ZN5daisy7Encoder8DebounceEv
 682              	.LVL54:
 122:../src/Pedal.cpp **** }
 683              		.loc 1 122 23 view .LVU176
 684              	.LBE140:
 685              		.cfi_endproc
 686              	.LFE4677:
 688              		.section	.text._ZN3amc5Pedal7GetKnobENS0_5KnobIE,"ax",%progbits
 689              		.align	1
 690              		.p2align 2,,3
 691              		.global	_ZN3amc5Pedal7GetKnobENS0_5KnobIE
 692              		.syntax unified
 693              		.thumb
 694              		.thumb_func
 696              	_ZN3amc5Pedal7GetKnobENS0_5KnobIE:
 697              	.LVL55:
 698              	.LFB4678:
 126:../src/Pedal.cpp **** 	size_t id = k < KnobI::KN ? k : 0;
 699              		.loc 1 126 1 is_stmt 1 view -0
 700              		.cfi_startproc
 701              		@ args = 0, pretend = 0, frame = 0
 702              		@ frame_needed = 0, uses_anonymous_args = 0
 703              		@ link register save eliminated.
 127:../src/Pedal.cpp **** 	return knobs[id].Value();
 704              		.loc 1 127 2 view .LVU178
 127:../src/Pedal.cpp **** 	return knobs[id].Value();
 705              		.loc 1 127 28 is_stmt 0 view .LVU179
 706 0000 0629     		cmp	r1, #6
 707 0002 28BF     		it	cs
 708 0004 0021     		movcs	r1, #0
 709              	.LVL56:
 128:../src/Pedal.cpp **** }
 710              		.loc 1 128 2 is_stmt 1 view .LVU180
 711              	.LBB141:
 712              	.LBI141:
 713              		.file 3 "/Users/amc/git/libDaisy/src/hid/ctrl.h"
   1:/Users/amc/git/libDaisy/src/hid/ctrl.h **** #pragma once
   2:/Users/amc/git/libDaisy/src/hid/ctrl.h **** #ifndef DSY_KNOB_H
   3:/Users/amc/git/libDaisy/src/hid/ctrl.h **** #define DSY_KNOB_H /**< & */
   4:/Users/amc/git/libDaisy/src/hid/ctrl.h **** #include <stdint.h>
   5:/Users/amc/git/libDaisy/src/hid/ctrl.h **** 
   6:/Users/amc/git/libDaisy/src/hid/ctrl.h **** #ifdef __cplusplus
   7:/Users/amc/git/libDaisy/src/hid/ctrl.h **** namespace daisy
   8:/Users/amc/git/libDaisy/src/hid/ctrl.h **** {
   9:/Users/amc/git/libDaisy/src/hid/ctrl.h **** /**
  10:/Users/amc/git/libDaisy/src/hid/ctrl.h ****     @brief Hardware Interface for control inputs \n 
  11:/Users/amc/git/libDaisy/src/hid/ctrl.h ****     Primarily designed for ADC input controls such as \n 
  12:/Users/amc/git/libDaisy/src/hid/ctrl.h ****     potentiometers, and control voltage. \n 
  13:/Users/amc/git/libDaisy/src/hid/ctrl.h ****     @author Stephen Hensley
  14:/Users/amc/git/libDaisy/src/hid/ctrl.h ****     @date November 2019
  15:/Users/amc/git/libDaisy/src/hid/ctrl.h ****     @ingroup controls
  16:/Users/amc/git/libDaisy/src/hid/ctrl.h **** */
  17:/Users/amc/git/libDaisy/src/hid/ctrl.h **** class AnalogControl
ARM GAS  /var/folders/83/vwtnzcdn1v99b_lf0k0gsjzr0000gn/T//cc93oyUL.s 			page 20


  18:/Users/amc/git/libDaisy/src/hid/ctrl.h **** {
  19:/Users/amc/git/libDaisy/src/hid/ctrl.h ****   public:
  20:/Users/amc/git/libDaisy/src/hid/ctrl.h ****     /** Constructor */
  21:/Users/amc/git/libDaisy/src/hid/ctrl.h ****     AnalogControl() {}
  22:/Users/amc/git/libDaisy/src/hid/ctrl.h ****     /** destructor */
  23:/Users/amc/git/libDaisy/src/hid/ctrl.h ****     ~AnalogControl() {}
  24:/Users/amc/git/libDaisy/src/hid/ctrl.h **** 
  25:/Users/amc/git/libDaisy/src/hid/ctrl.h ****     /** 
  26:/Users/amc/git/libDaisy/src/hid/ctrl.h ****     Initializes the control
  27:/Users/amc/git/libDaisy/src/hid/ctrl.h ****     \param *adcptr is a pointer to the raw adc read value -- This can be acquired with dsy_adc_get_
  28:/Users/amc/git/libDaisy/src/hid/ctrl.h ****     \param sr is the samplerate in Hz that the Process function will be called at.
  29:/Users/amc/git/libDaisy/src/hid/ctrl.h ****     \param flip determines whether the input is flipped (i.e. 1.f - input) or not before being proc
  30:/Users/amc/git/libDaisy/src/hid/ctrl.h ****     \param invert determines whether the input is inverted (i.e. -1.f * input) or note before being
  31:/Users/amc/git/libDaisy/src/hid/ctrl.h ****     \param slew_seconds is the slew time in seconds that it takes for the control to change to a ne
  32:/Users/amc/git/libDaisy/src/hid/ctrl.h ****     */
  33:/Users/amc/git/libDaisy/src/hid/ctrl.h ****     void Init(uint16_t *adcptr,
  34:/Users/amc/git/libDaisy/src/hid/ctrl.h ****               float     sr,
  35:/Users/amc/git/libDaisy/src/hid/ctrl.h ****               bool      flip         = false,
  36:/Users/amc/git/libDaisy/src/hid/ctrl.h ****               bool      invert       = false,
  37:/Users/amc/git/libDaisy/src/hid/ctrl.h ****               float     slew_seconds = 0.002f);
  38:/Users/amc/git/libDaisy/src/hid/ctrl.h **** 
  39:/Users/amc/git/libDaisy/src/hid/ctrl.h ****     /** 
  40:/Users/amc/git/libDaisy/src/hid/ctrl.h ****     This Initializes the AnalogControl for a -5V to 5V inverted input
  41:/Users/amc/git/libDaisy/src/hid/ctrl.h ****     All of the Init details are the same otherwise
  42:/Users/amc/git/libDaisy/src/hid/ctrl.h ****     \param *adcptr Pointer to analog digital converter
  43:/Users/amc/git/libDaisy/src/hid/ctrl.h ****     \param sr Audio engine sample rate
  44:/Users/amc/git/libDaisy/src/hid/ctrl.h ****     */
  45:/Users/amc/git/libDaisy/src/hid/ctrl.h ****     void InitBipolarCv(uint16_t *adcptr, float sr);
  46:/Users/amc/git/libDaisy/src/hid/ctrl.h **** 
  47:/Users/amc/git/libDaisy/src/hid/ctrl.h ****     /** 
  48:/Users/amc/git/libDaisy/src/hid/ctrl.h ****     Filters, and transforms a raw ADC read into a normalized range.
  49:/Users/amc/git/libDaisy/src/hid/ctrl.h ****     this should be called at the rate of specified by samplerate at Init time.   
  50:/Users/amc/git/libDaisy/src/hid/ctrl.h ****     Default Initializations will return 0.0 -> 1.0
  51:/Users/amc/git/libDaisy/src/hid/ctrl.h ****     Bi-polar CV inputs will return -1.0 -> 1.0
  52:/Users/amc/git/libDaisy/src/hid/ctrl.h ****     */
  53:/Users/amc/git/libDaisy/src/hid/ctrl.h ****     float Process();
  54:/Users/amc/git/libDaisy/src/hid/ctrl.h **** 
  55:/Users/amc/git/libDaisy/src/hid/ctrl.h ****     /** Returns the current stored value, without reprocessing */
  56:/Users/amc/git/libDaisy/src/hid/ctrl.h ****     inline float Value() const { return val_; }
 714              		.loc 3 56 18 view .LVU181
 715              	.LBB142:
 716              		.loc 3 56 34 view .LVU182
 717              		.loc 3 56 41 is_stmt 0 view .LVU183
 718 0006 00EB4110 		add	r0, r0, r1, lsl #5
 719              	.LVL57:
 720              		.loc 3 56 41 view .LVU184
 721 000a 00F58C60 		add	r0, r0, #1120
 722              	.LBE142:
 723              	.LBE141:
 129:../src/Pedal.cpp **** 
 724              		.loc 1 129 1 view .LVU185
 725 000e 90ED000A 		vldr.32	s0, [r0]
 726 0012 7047     		bx	lr
 727              		.cfi_endproc
 728              	.LFE4678:
 730              		.section	.text._ZN3amc5Pedal9SetBypassEb,"ax",%progbits
 731              		.align	1
ARM GAS  /var/folders/83/vwtnzcdn1v99b_lf0k0gsjzr0000gn/T//cc93oyUL.s 			page 21


 732              		.p2align 2,,3
 733              		.global	_ZN3amc5Pedal9SetBypassEb
 734              		.syntax unified
 735              		.thumb
 736              		.thumb_func
 738              	_ZN3amc5Pedal9SetBypassEb:
 739              	.LVL58:
 740              	.LFB4679:
 132:../src/Pedal.cpp **** 	audioBypass = enabled;
 741              		.loc 1 132 1 is_stmt 1 view -0
 742              		.cfi_startproc
 743              		@ args = 0, pretend = 0, frame = 0
 744              		@ frame_needed = 0, uses_anonymous_args = 0
 745              		@ link register save eliminated.
 133:../src/Pedal.cpp **** 	audioBypassTrigger.Write(!audioBypass);
 746              		.loc 1 133 2 view .LVU187
 132:../src/Pedal.cpp **** 	audioBypass = enabled;
 747              		.loc 1 132 1 is_stmt 0 view .LVU188
 748 0000 0246     		mov	r2, r0
 749 0002 0B46     		mov	r3, r1
 134:../src/Pedal.cpp **** }
 750              		.loc 1 134 26 view .LVU189
 751 0004 49F2F460 		movw	r0, #38644
 752              	.LVL59:
 134:../src/Pedal.cpp **** }
 753              		.loc 1 134 26 view .LVU190
 754 0008 81F00101 		eor	r1, r1, #1
 755              	.LVL60:
 133:../src/Pedal.cpp **** 	audioBypassTrigger.Write(!audioBypass);
 756              		.loc 1 133 14 view .LVU191
 757 000c 02F5104C 		add	ip, r2, #36864
 134:../src/Pedal.cpp **** }
 758              		.loc 1 134 26 view .LVU192
 759 0010 1044     		add	r0, r0, r2
 133:../src/Pedal.cpp **** 	audioBypassTrigger.Write(!audioBypass);
 760              		.loc 1 133 14 view .LVU193
 761 0012 8CF80837 		strb	r3, [ip, #1800]
 134:../src/Pedal.cpp **** }
 762              		.loc 1 134 2 is_stmt 1 view .LVU194
 134:../src/Pedal.cpp **** }
 763              		.loc 1 134 26 is_stmt 0 view .LVU195
 764 0016 FFF7FEBF 		b	_ZN5daisy4GPIO5WriteEb
 765              	.LVL61:
 134:../src/Pedal.cpp **** }
 766              		.loc 1 134 26 view .LVU196
 767              		.cfi_endproc
 768              	.LFE4679:
 770 001a 00BF     		.section	.text._ZN3amc5Pedal7SetMuteEb,"ax",%progbits
 771              		.align	1
 772              		.p2align 2,,3
 773              		.global	_ZN3amc5Pedal7SetMuteEb
 774              		.syntax unified
 775              		.thumb
 776              		.thumb_func
 778              	_ZN3amc5Pedal7SetMuteEb:
 779              	.LVL62:
 780              	.LFB4680:
ARM GAS  /var/folders/83/vwtnzcdn1v99b_lf0k0gsjzr0000gn/T//cc93oyUL.s 			page 22


 138:../src/Pedal.cpp **** 	audioMute = enabled;
 781              		.loc 1 138 1 is_stmt 1 view -0
 782              		.cfi_startproc
 783              		@ args = 0, pretend = 0, frame = 0
 784              		@ frame_needed = 0, uses_anonymous_args = 0
 785              		@ link register save eliminated.
 139:../src/Pedal.cpp **** 	audioMuteTrigger.Write(audioMute);
 786              		.loc 1 139 2 view .LVU198
 138:../src/Pedal.cpp **** 	audioMute = enabled;
 787              		.loc 1 138 1 is_stmt 0 view .LVU199
 788 0000 0346     		mov	r3, r0
 140:../src/Pedal.cpp **** }
 789              		.loc 1 140 24 view .LVU200
 790 0002 49F20C70 		movw	r0, #38668
 791              	.LVL63:
 139:../src/Pedal.cpp **** 	audioMuteTrigger.Write(audioMute);
 792              		.loc 1 139 12 view .LVU201
 793 0006 03F51042 		add	r2, r3, #36864
 140:../src/Pedal.cpp **** }
 794              		.loc 1 140 24 view .LVU202
 795 000a 1844     		add	r0, r0, r3
 139:../src/Pedal.cpp **** 	audioMuteTrigger.Write(audioMute);
 796              		.loc 1 139 12 view .LVU203
 797 000c 82F82017 		strb	r1, [r2, #1824]
 140:../src/Pedal.cpp **** }
 798              		.loc 1 140 2 is_stmt 1 view .LVU204
 140:../src/Pedal.cpp **** }
 799              		.loc 1 140 24 is_stmt 0 view .LVU205
 800 0010 FFF7FEBF 		b	_ZN5daisy4GPIO5WriteEb
 801              	.LVL64:
 140:../src/Pedal.cpp **** }
 802              		.loc 1 140 24 view .LVU206
 803              		.cfi_endproc
 804              	.LFE4680:
 806              		.section	.text._ZN3amc5Pedal9ClearLedsEv,"ax",%progbits
 807              		.align	1
 808              		.p2align 2,,3
 809              		.global	_ZN3amc5Pedal9ClearLedsEv
 810              		.syntax unified
 811              		.thumb
 812              		.thumb_func
 814              	_ZN3amc5Pedal9ClearLedsEv:
 815              	.LVL65:
 816              	.LFB4681:
 144:../src/Pedal.cpp **** 	for (size_t i = 0; i < LedI::LN; i++)
 817              		.loc 1 144 1 is_stmt 1 view -0
 818              		.cfi_startproc
 819              		@ args = 0, pretend = 0, frame = 0
 820              		@ frame_needed = 0, uses_anonymous_args = 0
 145:../src/Pedal.cpp **** 		SetLed(static_cast<LedI>(i), 0.0f);
 821              		.loc 1 145 2 view .LVU208
 822              	.LBB143:
 145:../src/Pedal.cpp **** 		SetLed(static_cast<LedI>(i), 0.0f);
 823              		.loc 1 145 23 discriminator 1 view .LVU209
 146:../src/Pedal.cpp **** }
 824              		.loc 1 146 3 view .LVU210
 825              	.LBE143:
ARM GAS  /var/folders/83/vwtnzcdn1v99b_lf0k0gsjzr0000gn/T//cc93oyUL.s 			page 23


 144:../src/Pedal.cpp **** 	for (size_t i = 0; i < LedI::LN; i++)
 826              		.loc 1 144 1 is_stmt 0 view .LVU211
 827 0000 10B5     		push	{r4, lr}
 828              		.cfi_def_cfa_offset 8
 829              		.cfi_offset 4, -8
 830              		.cfi_offset 14, -4
 831 0002 2DED028B 		vpush.64	{d8}
 832              		.cfi_def_cfa_offset 16
 833              		.cfi_offset 80, -16
 834              		.cfi_offset 81, -12
 835              	.LBB152:
 836              	.LBB144:
 837              	.LBB145:
 152:../src/Pedal.cpp **** }
 838              		.loc 1 152 14 view .LVU212
 839 0006 9FED098A 		vldr.32	s16, .L33
 840              	.LBE145:
 841              	.LBE144:
 842              	.LBE152:
 144:../src/Pedal.cpp **** 	for (size_t i = 0; i < LedI::LN; i++)
 843              		.loc 1 144 1 view .LVU213
 844 000a 0446     		mov	r4, r0
 845              	.LVL66:
 846              	.LBB153:
 847              	.LBB149:
 848              	.LBI144:
 149:../src/Pedal.cpp **** {
 849              		.loc 1 149 6 is_stmt 1 view .LVU214
 850              	.LBB146:
 151:../src/Pedal.cpp **** 	leds[id].Set(brightness);
 851              		.loc 1 151 2 view .LVU215
 152:../src/Pedal.cpp **** }
 852              		.loc 1 152 2 view .LVU216
 152:../src/Pedal.cpp **** }
 853              		.loc 1 152 14 is_stmt 0 view .LVU217
 854 000c 00F25C50 		addw	r0, r0, #1372
 855              	.LVL67:
 152:../src/Pedal.cpp **** }
 856              		.loc 1 152 14 view .LVU218
 857 0010 B0EE480A 		vmov.f32	s0, s16
 858 0014 FFF7FEFF 		bl	_ZN5daisy3Led3SetEf
 859              	.LVL68:
 152:../src/Pedal.cpp **** }
 860              		.loc 1 152 14 view .LVU219
 861              	.LBE146:
 862              	.LBE149:
 145:../src/Pedal.cpp **** 		SetLed(static_cast<LedI>(i), 0.0f);
 863              		.loc 1 145 2 is_stmt 1 discriminator 3 view .LVU220
 145:../src/Pedal.cpp **** 		SetLed(static_cast<LedI>(i), 0.0f);
 864              		.loc 1 145 23 discriminator 1 view .LVU221
 146:../src/Pedal.cpp **** }
 865              		.loc 1 146 3 view .LVU222
 866              	.LBB150:
 149:../src/Pedal.cpp **** {
 867              		.loc 1 149 6 view .LVU223
 868              	.LBB147:
 151:../src/Pedal.cpp **** 	leds[id].Set(brightness);
ARM GAS  /var/folders/83/vwtnzcdn1v99b_lf0k0gsjzr0000gn/T//cc93oyUL.s 			page 24


 869              		.loc 1 151 2 view .LVU224
 152:../src/Pedal.cpp **** }
 870              		.loc 1 152 2 view .LVU225
 152:../src/Pedal.cpp **** }
 871              		.loc 1 152 14 is_stmt 0 view .LVU226
 872 0018 B0EE480A 		vmov.f32	s0, s16
 873 001c 04F5AF60 		add	r0, r4, #1400
 874              	.LBE147:
 875              	.LBE150:
 876              	.LBE153:
 147:../src/Pedal.cpp **** 
 877              		.loc 1 147 1 view .LVU227
 878 0020 BDEC028B 		vldm	sp!, {d8}
 879              		.cfi_restore 80
 880              		.cfi_restore 81
 881              		.cfi_def_cfa_offset 8
 882 0024 BDE81040 		pop	{r4, lr}
 883              		.cfi_restore 14
 884              		.cfi_restore 4
 885              		.cfi_def_cfa_offset 0
 886              	.LVL69:
 887              	.LBB154:
 888              	.LBB151:
 889              	.LBB148:
 152:../src/Pedal.cpp **** }
 890              		.loc 1 152 14 view .LVU228
 891 0028 FFF7FEBF 		b	_ZN5daisy3Led3SetEf
 892              	.LVL70:
 893              	.L34:
 152:../src/Pedal.cpp **** }
 894              		.loc 1 152 14 view .LVU229
 895              		.align	2
 896              	.L33:
 897 002c 00000000 		.word	0
 898              	.LBE148:
 899              	.LBE151:
 900              	.LBE154:
 901              		.cfi_endproc
 902              	.LFE4681:
 904              		.section	.text._ZN3amc5Pedal6SetLedENS0_4LedIEf,"ax",%progbits
 905              		.align	1
 906              		.p2align 2,,3
 907              		.global	_ZN3amc5Pedal6SetLedENS0_4LedIEf
 908              		.syntax unified
 909              		.thumb
 910              		.thumb_func
 912              	_ZN3amc5Pedal6SetLedENS0_4LedIEf:
 913              	.LVL71:
 914              	.LFB4682:
 150:../src/Pedal.cpp **** 	size_t id = l < LedI::LN ? l : 0;
 915              		.loc 1 150 1 is_stmt 1 view -0
 916              		.cfi_startproc
 917              		@ args = 0, pretend = 0, frame = 0
 918              		@ frame_needed = 0, uses_anonymous_args = 0
 919              		@ link register save eliminated.
 151:../src/Pedal.cpp **** 	leds[id].Set(brightness);
 920              		.loc 1 151 2 view .LVU231
ARM GAS  /var/folders/83/vwtnzcdn1v99b_lf0k0gsjzr0000gn/T//cc93oyUL.s 			page 25


 151:../src/Pedal.cpp **** 	leds[id].Set(brightness);
 921              		.loc 1 151 27 is_stmt 0 view .LVU232
 922 0000 0129     		cmp	r1, #1
 923 0002 04D9     		bls	.L38
 152:../src/Pedal.cpp **** }
 924              		.loc 1 152 2 is_stmt 1 view .LVU233
 925 0004 40F25C51 		movw	r1, #1372
 926              	.LVL72:
 152:../src/Pedal.cpp **** }
 927              		.loc 1 152 14 is_stmt 0 view .LVU234
 928 0008 0844     		add	r0, r0, r1
 929              	.LVL73:
 152:../src/Pedal.cpp **** }
 930              		.loc 1 152 14 view .LVU235
 931 000a FFF7FEBF 		b	_ZN5daisy3Led3SetEf
 932              	.LVL74:
 933              	.L38:
 152:../src/Pedal.cpp **** }
 934              		.loc 1 152 14 view .LVU236
 935 000e 4942     		rsbs	r1, r1, #0
 936              	.LVL75:
 152:../src/Pedal.cpp **** }
 937              		.loc 1 152 14 view .LVU237
 938 0010 01F01C01 		and	r1, r1, #28
 939 0014 01F25C51 		addw	r1, r1, #1372
 152:../src/Pedal.cpp **** }
 940              		.loc 1 152 2 is_stmt 1 view .LVU238
 152:../src/Pedal.cpp **** }
 941              		.loc 1 152 14 is_stmt 0 view .LVU239
 942 0018 0844     		add	r0, r0, r1
 943              	.LVL76:
 152:../src/Pedal.cpp **** }
 944              		.loc 1 152 14 view .LVU240
 945 001a FFF7FEBF 		b	_ZN5daisy3Led3SetEf
 946              	.LVL77:
 152:../src/Pedal.cpp **** }
 947              		.loc 1 152 14 view .LVU241
 948              		.cfi_endproc
 949              	.LFE4682:
 951 001e 00BF     		.section	.text._ZN3amc5Pedal10UpdateLedsEv,"ax",%progbits
 952              		.align	1
 953              		.p2align 2,,3
 954              		.global	_ZN3amc5Pedal10UpdateLedsEv
 955              		.syntax unified
 956              		.thumb
 957              		.thumb_func
 959              	_ZN3amc5Pedal10UpdateLedsEv:
 960              	.LVL78:
 961              	.LFB4683:
 156:../src/Pedal.cpp **** 	for (size_t i = 0; i < LedI::LN; i++)
 962              		.loc 1 156 1 is_stmt 1 view -0
 963              		.cfi_startproc
 964              		@ args = 0, pretend = 0, frame = 0
 965              		@ frame_needed = 0, uses_anonymous_args = 0
 157:../src/Pedal.cpp **** 		leds[i].Update();
 966              		.loc 1 157 2 view .LVU243
 967              	.LBB155:
ARM GAS  /var/folders/83/vwtnzcdn1v99b_lf0k0gsjzr0000gn/T//cc93oyUL.s 			page 26


 157:../src/Pedal.cpp **** 		leds[i].Update();
 968              		.loc 1 157 23 discriminator 1 view .LVU244
 158:../src/Pedal.cpp **** }
 969              		.loc 1 158 3 view .LVU245
 970              	.LBE155:
 156:../src/Pedal.cpp **** 	for (size_t i = 0; i < LedI::LN; i++)
 971              		.loc 1 156 1 is_stmt 0 view .LVU246
 972 0000 10B5     		push	{r4, lr}
 973              		.cfi_def_cfa_offset 8
 974              		.cfi_offset 4, -8
 975              		.cfi_offset 14, -4
 156:../src/Pedal.cpp **** 	for (size_t i = 0; i < LedI::LN; i++)
 976              		.loc 1 156 1 view .LVU247
 977 0002 0446     		mov	r4, r0
 978              	.LBB156:
 158:../src/Pedal.cpp **** }
 979              		.loc 1 158 17 view .LVU248
 980 0004 00F25C50 		addw	r0, r0, #1372
 981              	.LVL79:
 158:../src/Pedal.cpp **** }
 982              		.loc 1 158 17 view .LVU249
 983 0008 FFF7FEFF 		bl	_ZN5daisy3Led6UpdateEv
 984              	.LVL80:
 157:../src/Pedal.cpp **** 		leds[i].Update();
 985              		.loc 1 157 2 is_stmt 1 discriminator 3 view .LVU250
 157:../src/Pedal.cpp **** 		leds[i].Update();
 986              		.loc 1 157 23 discriminator 1 view .LVU251
 158:../src/Pedal.cpp **** }
 987              		.loc 1 158 3 view .LVU252
 158:../src/Pedal.cpp **** }
 988              		.loc 1 158 17 is_stmt 0 view .LVU253
 989 000c 04F5AF60 		add	r0, r4, #1400
 990              	.LBE156:
 159:../src/Pedal.cpp **** 
 991              		.loc 1 159 1 view .LVU254
 992 0010 BDE81040 		pop	{r4, lr}
 993              		.cfi_restore 14
 994              		.cfi_restore 4
 995              		.cfi_def_cfa_offset 0
 996              	.LVL81:
 997              	.LBB157:
 158:../src/Pedal.cpp **** }
 998              		.loc 1 158 17 view .LVU255
 999 0014 FFF7FEBF 		b	_ZN5daisy3Led6UpdateEv
 1000              	.LVL82:
 158:../src/Pedal.cpp **** }
 1001              		.loc 1 158 17 view .LVU256
 1002              	.LBE157:
 1003              		.cfi_endproc
 1004              	.LFE4683:
 1006              		.section	.text._ZN3amc5Pedal18InitAnalogControlsEv,"ax",%progbits
 1007              		.align	1
 1008              		.p2align 2,,3
 1009              		.global	_ZN3amc5Pedal18InitAnalogControlsEv
 1010              		.syntax unified
 1011              		.thumb
 1012              		.thumb_func
ARM GAS  /var/folders/83/vwtnzcdn1v99b_lf0k0gsjzr0000gn/T//cc93oyUL.s 			page 27


 1014              	_ZN3amc5Pedal18InitAnalogControlsEv:
 1015              	.LVL83:
 1016              	.LFB4684:
 162:../src/Pedal.cpp **** 	AdcChannelConfig configs[KnobI::KN]; // one config per knob
 1017              		.loc 1 162 1 is_stmt 1 view -0
 1018              		.cfi_startproc
 1019              		@ args = 0, pretend = 0, frame = 136
 1020              		@ frame_needed = 0, uses_anonymous_args = 0
 163:../src/Pedal.cpp **** 
 1021              		.loc 1 163 2 view .LVU258
 165:../src/Pedal.cpp **** 	configs[KnobI::K2].InitSingle(seed.GetPin(KNOB_PIN_2));
 1022              		.loc 1 165 2 view .LVU259
 162:../src/Pedal.cpp **** 	AdcChannelConfig configs[KnobI::KN]; // one config per knob
 1023              		.loc 1 162 1 is_stmt 0 view .LVU260
 1024 0000 2DE9F041 		push	{r4, r5, r6, r7, r8, lr}
 1025              		.cfi_def_cfa_offset 24
 1026              		.cfi_offset 4, -24
 1027              		.cfi_offset 5, -20
 1028              		.cfi_offset 6, -16
 1029              		.cfi_offset 7, -12
 1030              		.cfi_offset 8, -8
 1031              		.cfi_offset 14, -4
 1032 0004 A2B0     		sub	sp, sp, #136
 1033              		.cfi_def_cfa_offset 160
 162:../src/Pedal.cpp **** 	AdcChannelConfig configs[KnobI::KN]; // one config per knob
 1034              		.loc 1 162 1 view .LVU261
 1035 0006 0746     		mov	r7, r0
 165:../src/Pedal.cpp **** 	configs[KnobI::K2].InitSingle(seed.GetPin(KNOB_PIN_2));
 1036              		.loc 1 165 31 view .LVU262
 1037 0008 0F20     		movs	r0, #15
 1038              	.LVL84:
 1039              	.LBB158:
 174:../src/Pedal.cpp **** 		knobs[i].Init(seed.adc.GetPtr(i), CallbackRate());
 1040              		.loc 1 174 11 view .LVU263
 1041 000a 0024     		movs	r4, #0
 1042              	.LBE158:
 165:../src/Pedal.cpp **** 	configs[KnobI::K2].InitSingle(seed.GetPin(KNOB_PIN_2));
 1043              		.loc 1 165 31 view .LVU264
 1044 000c FFF7FEFF 		bl	_ZN5daisy9DaisySeed6GetPinEh
 1045              	.LVL85:
 1046 0010 ADF80400 		strh	r0, [sp, #4]	@ movhi
 165:../src/Pedal.cpp **** 	configs[KnobI::K2].InitSingle(seed.GetPin(KNOB_PIN_2));
 1047              		.loc 1 165 31 discriminator 1 view .LVU265
 1048 0014 0222     		movs	r2, #2
 1049 0016 0199     		ldr	r1, [sp, #4]
 1050 0018 07A8     		add	r0, sp, #28
 172:../src/Pedal.cpp **** 	
 1051              		.loc 1 172 15 view .LVU266
 1052 001a 07F11808 		add	r8, r7, #24
 165:../src/Pedal.cpp **** 	configs[KnobI::K2].InitSingle(seed.GetPin(KNOB_PIN_2));
 1053              		.loc 1 165 31 discriminator 1 view .LVU267
 1054 001e FFF7FEFF 		bl	_ZN5daisy16AdcChannelConfig10InitSingleE12dsy_gpio_pinNS0_15ConversionSpeedE
 1055              	.LVL86:
 166:../src/Pedal.cpp **** 	configs[KnobI::K3].InitSingle(seed.GetPin(KNOB_PIN_3));
 1056              		.loc 1 166 2 is_stmt 1 view .LVU268
 166:../src/Pedal.cpp **** 	configs[KnobI::K3].InitSingle(seed.GetPin(KNOB_PIN_3));
 1057              		.loc 1 166 31 is_stmt 0 view .LVU269
ARM GAS  /var/folders/83/vwtnzcdn1v99b_lf0k0gsjzr0000gn/T//cc93oyUL.s 			page 28


 1058 0022 1020     		movs	r0, #16
 1059 0024 FFF7FEFF 		bl	_ZN5daisy9DaisySeed6GetPinEh
 1060              	.LVL87:
 1061 0028 ADF80800 		strh	r0, [sp, #8]	@ movhi
 166:../src/Pedal.cpp **** 	configs[KnobI::K3].InitSingle(seed.GetPin(KNOB_PIN_3));
 1062              		.loc 1 166 31 discriminator 1 view .LVU270
 1063 002c 0222     		movs	r2, #2
 1064 002e 0299     		ldr	r1, [sp, #8]
 1065 0030 0DF12E00 		add	r0, sp, #46
 1066 0034 07F25446 		addw	r6, r7, #1108
 1067 0038 FFF7FEFF 		bl	_ZN5daisy16AdcChannelConfig10InitSingleE12dsy_gpio_pinNS0_15ConversionSpeedE
 1068              	.LVL88:
 167:../src/Pedal.cpp **** 	configs[KnobI::K4].InitSingle(seed.GetPin(KNOB_PIN_4));
 1069              		.loc 1 167 2 is_stmt 1 view .LVU271
 167:../src/Pedal.cpp **** 	configs[KnobI::K4].InitSingle(seed.GetPin(KNOB_PIN_4));
 1070              		.loc 1 167 31 is_stmt 0 view .LVU272
 1071 003c 1120     		movs	r0, #17
 1072 003e FFF7FEFF 		bl	_ZN5daisy9DaisySeed6GetPinEh
 1073              	.LVL89:
 1074 0042 ADF80C00 		strh	r0, [sp, #12]	@ movhi
 167:../src/Pedal.cpp **** 	configs[KnobI::K4].InitSingle(seed.GetPin(KNOB_PIN_4));
 1075              		.loc 1 167 31 discriminator 1 view .LVU273
 1076 0046 0222     		movs	r2, #2
 1077 0048 0399     		ldr	r1, [sp, #12]
 1078 004a 10A8     		add	r0, sp, #64
 1079 004c FFF7FEFF 		bl	_ZN5daisy16AdcChannelConfig10InitSingleE12dsy_gpio_pinNS0_15ConversionSpeedE
 1080              	.LVL90:
 168:../src/Pedal.cpp **** 	configs[KnobI::K5].InitSingle(seed.GetPin(KNOB_PIN_5));
 1081              		.loc 1 168 2 is_stmt 1 view .LVU274
 168:../src/Pedal.cpp **** 	configs[KnobI::K5].InitSingle(seed.GetPin(KNOB_PIN_5));
 1082              		.loc 1 168 31 is_stmt 0 view .LVU275
 1083 0050 1220     		movs	r0, #18
 1084 0052 FFF7FEFF 		bl	_ZN5daisy9DaisySeed6GetPinEh
 1085              	.LVL91:
 1086 0056 ADF81000 		strh	r0, [sp, #16]	@ movhi
 168:../src/Pedal.cpp **** 	configs[KnobI::K5].InitSingle(seed.GetPin(KNOB_PIN_5));
 1087              		.loc 1 168 31 discriminator 1 view .LVU276
 1088 005a 0222     		movs	r2, #2
 1089 005c 0499     		ldr	r1, [sp, #16]
 1090 005e 0DF15200 		add	r0, sp, #82
 1091 0062 FFF7FEFF 		bl	_ZN5daisy16AdcChannelConfig10InitSingleE12dsy_gpio_pinNS0_15ConversionSpeedE
 1092              	.LVL92:
 169:../src/Pedal.cpp **** 	configs[KnobI::K6].InitSingle(seed.GetPin(KNOB_PIN_6));
 1093              		.loc 1 169 2 is_stmt 1 view .LVU277
 169:../src/Pedal.cpp **** 	configs[KnobI::K6].InitSingle(seed.GetPin(KNOB_PIN_6));
 1094              		.loc 1 169 31 is_stmt 0 view .LVU278
 1095 0066 1320     		movs	r0, #19
 1096 0068 FFF7FEFF 		bl	_ZN5daisy9DaisySeed6GetPinEh
 1097              	.LVL93:
 1098 006c ADF81400 		strh	r0, [sp, #20]	@ movhi
 169:../src/Pedal.cpp **** 	configs[KnobI::K6].InitSingle(seed.GetPin(KNOB_PIN_6));
 1099              		.loc 1 169 31 discriminator 1 view .LVU279
 1100 0070 0222     		movs	r2, #2
 1101 0072 0599     		ldr	r1, [sp, #20]
 1102 0074 19A8     		add	r0, sp, #100
 1103 0076 FFF7FEFF 		bl	_ZN5daisy16AdcChannelConfig10InitSingleE12dsy_gpio_pinNS0_15ConversionSpeedE
 1104              	.LVL94:
ARM GAS  /var/folders/83/vwtnzcdn1v99b_lf0k0gsjzr0000gn/T//cc93oyUL.s 			page 29


 170:../src/Pedal.cpp **** 
 1105              		.loc 1 170 2 is_stmt 1 view .LVU280
 170:../src/Pedal.cpp **** 
 1106              		.loc 1 170 31 is_stmt 0 view .LVU281
 1107 007a 1420     		movs	r0, #20
 1108 007c FFF7FEFF 		bl	_ZN5daisy9DaisySeed6GetPinEh
 1109              	.LVL95:
 1110 0080 ADF81800 		strh	r0, [sp, #24]	@ movhi
 170:../src/Pedal.cpp **** 
 1111              		.loc 1 170 31 discriminator 1 view .LVU282
 1112 0084 0222     		movs	r2, #2
 1113 0086 0699     		ldr	r1, [sp, #24]
 1114 0088 0DF17600 		add	r0, sp, #118
 1115 008c FFF7FEFF 		bl	_ZN5daisy16AdcChannelConfig10InitSingleE12dsy_gpio_pinNS0_15ConversionSpeedE
 1116              	.LVL96:
 172:../src/Pedal.cpp **** 	
 1117              		.loc 1 172 2 is_stmt 1 view .LVU283
 172:../src/Pedal.cpp **** 	
 1118              		.loc 1 172 15 is_stmt 0 view .LVU284
 1119 0090 0423     		movs	r3, #4
 1120 0092 0622     		movs	r2, #6
 1121 0094 07A9     		add	r1, sp, #28
 1122 0096 4046     		mov	r0, r8
 1123 0098 FFF7FEFF 		bl	_ZN5daisy9AdcHandle4InitEPNS_16AdcChannelConfigEjNS0_12OverSamplingE
 1124              	.LVL97:
 174:../src/Pedal.cpp **** 		knobs[i].Init(seed.adc.GetPtr(i), CallbackRate());
 1125              		.loc 1 174 2 is_stmt 1 view .LVU285
 1126              	.LBB164:
 174:../src/Pedal.cpp **** 		knobs[i].Init(seed.adc.GetPtr(i), CallbackRate());
 1127              		.loc 1 174 20 discriminator 1 view .LVU286
 1128              	.L42:
 175:../src/Pedal.cpp **** }
 1129              		.loc 1 175 3 view .LVU287
 175:../src/Pedal.cpp **** }
 1130              		.loc 1 175 16 is_stmt 0 view .LVU288
 1131 009c E1B2     		uxtb	r1, r4
 1132 009e 4046     		mov	r0, r8
 1133 00a0 FFF7FEFF 		bl	_ZNK5daisy9AdcHandle6GetPtrEh
 1134              	.LVL98:
 1135 00a4 0546     		mov	r5, r0
 1136              	.LBB159:
 1137              	.LBB160:
 104:../src/Pedal.cpp **** }
 1138              		.loc 1 104 31 view .LVU289
 1139 00a6 3846     		mov	r0, r7
 1140              	.LVL99:
 104:../src/Pedal.cpp **** }
 1141              		.loc 1 104 31 view .LVU290
 1142              	.LBE160:
 1143              	.LBI159:
 102:../src/Pedal.cpp **** {
 1144              		.loc 1 102 7 is_stmt 1 view .LVU291
 1145              	.LBB161:
 104:../src/Pedal.cpp **** }
 1146              		.loc 1 104 2 view .LVU292
 1147              	.LBE161:
 1148              	.LBE159:
ARM GAS  /var/folders/83/vwtnzcdn1v99b_lf0k0gsjzr0000gn/T//cc93oyUL.s 			page 30


 174:../src/Pedal.cpp **** 		knobs[i].Init(seed.adc.GetPtr(i), CallbackRate());
 1149              		.loc 1 174 2 is_stmt 0 discriminator 3 view .LVU293
 1150 00a8 0134     		adds	r4, r4, #1
 1151              	.LVL100:
 1152              	.LBB163:
 1153              	.LBB162:
 104:../src/Pedal.cpp **** }
 1154              		.loc 1 104 31 view .LVU294
 1155 00aa FFF7FEFF 		bl	_ZNK5daisy9DaisySeed17AudioCallbackRateEv
 1156              	.LVL101:
 104:../src/Pedal.cpp **** }
 1157              		.loc 1 104 31 view .LVU295
 1158              	.LBE162:
 1159              	.LBE163:
 175:../src/Pedal.cpp **** }
 1160              		.loc 1 175 16 discriminator 2 view .LVU296
 1161 00ae 0023     		movs	r3, #0
 1162 00b0 3046     		mov	r0, r6
 1163 00b2 DFED060A 		vldr.32	s1, .L45
 1164 00b6 2946     		mov	r1, r5
 1165 00b8 1A46     		mov	r2, r3
 1166 00ba FFF7FEFF 		bl	_ZN5daisy13AnalogControl4InitEPtfbbf
 1167              	.LVL102:
 174:../src/Pedal.cpp **** 		knobs[i].Init(seed.adc.GetPtr(i), CallbackRate());
 1168              		.loc 1 174 2 is_stmt 1 discriminator 3 view .LVU297
 174:../src/Pedal.cpp **** 		knobs[i].Init(seed.adc.GetPtr(i), CallbackRate());
 1169              		.loc 1 174 20 discriminator 1 view .LVU298
 1170 00be 062C     		cmp	r4, #6
 1171 00c0 06F12006 		add	r6, r6, #32
 1172 00c4 EAD1     		bne	.L42
 1173              	.LBE164:
 176:../src/Pedal.cpp **** 
 1174              		.loc 1 176 1 is_stmt 0 view .LVU299
 1175 00c6 22B0     		add	sp, sp, #136
 1176              		.cfi_def_cfa_offset 24
 1177              		@ sp needed
 1178 00c8 BDE8F081 		pop	{r4, r5, r6, r7, r8, pc}
 1179              	.LVL103:
 1180              	.L46:
 176:../src/Pedal.cpp **** 
 1181              		.loc 1 176 1 view .LVU300
 1182              		.align	2
 1183              	.L45:
 1184 00cc 6F12033B 		.word	990057071
 1185              		.cfi_endproc
 1186              	.LFE4684:
 1188              		.section	.text._ZN3amc5Pedal12InitEncodersEv,"ax",%progbits
 1189              		.align	1
 1190              		.p2align 2,,3
 1191              		.global	_ZN3amc5Pedal12InitEncodersEv
 1192              		.syntax unified
 1193              		.thumb
 1194              		.thumb_func
 1196              	_ZN3amc5Pedal12InitEncodersEv:
 1197              	.LVL104:
 1198              	.LFB4685:
 179:../src/Pedal.cpp **** 	encoders[EncoderI::E1].Init(seed.GetPin(ENCODER_1_A_PIN),
ARM GAS  /var/folders/83/vwtnzcdn1v99b_lf0k0gsjzr0000gn/T//cc93oyUL.s 			page 31


 1199              		.loc 1 179 1 is_stmt 1 view -0
 1200              		.cfi_startproc
 1201              		@ args = 0, pretend = 0, frame = 16
 1202              		@ frame_needed = 0, uses_anonymous_args = 0
 180:../src/Pedal.cpp **** 		seed.GetPin(ENCODER_1_B_PIN),
 1203              		.loc 1 180 2 view .LVU302
 179:../src/Pedal.cpp **** 	encoders[EncoderI::E1].Init(seed.GetPin(ENCODER_1_A_PIN),
 1204              		.loc 1 179 1 is_stmt 0 view .LVU303
 1205 0000 10B5     		push	{r4, lr}
 1206              		.cfi_def_cfa_offset 8
 1207              		.cfi_offset 4, -8
 1208              		.cfi_offset 14, -4
 1209 0002 0446     		mov	r4, r0
 1210 0004 84B0     		sub	sp, sp, #16
 1211              		.cfi_def_cfa_offset 24
 180:../src/Pedal.cpp **** 		seed.GetPin(ENCODER_1_B_PIN),
 1212              		.loc 1 180 29 view .LVU304
 1213 0006 0320     		movs	r0, #3
 1214              	.LVL105:
 180:../src/Pedal.cpp **** 		seed.GetPin(ENCODER_1_B_PIN),
 1215              		.loc 1 180 29 view .LVU305
 1216 0008 FFF7FEFF 		bl	_ZN5daisy9DaisySeed6GetPinEh
 1217              	.LVL106:
 1218 000c 0346     		mov	r3, r0	@ movhi
 180:../src/Pedal.cpp **** 		seed.GetPin(ENCODER_1_B_PIN),
 1219              		.loc 1 180 29 discriminator 1 view .LVU306
 1220 000e 0220     		movs	r0, #2
 180:../src/Pedal.cpp **** 		seed.GetPin(ENCODER_1_B_PIN),
 1221              		.loc 1 180 29 view .LVU307
 1222 0010 ADF80430 		strh	r3, [sp, #4]	@ movhi
 180:../src/Pedal.cpp **** 		seed.GetPin(ENCODER_1_B_PIN),
 1223              		.loc 1 180 29 discriminator 1 view .LVU308
 1224 0014 FFF7FEFF 		bl	_ZN5daisy9DaisySeed6GetPinEh
 1225              	.LVL107:
 1226 0018 0346     		mov	r3, r0	@ movhi
 180:../src/Pedal.cpp **** 		seed.GetPin(ENCODER_1_B_PIN),
 1227              		.loc 1 180 29 discriminator 2 view .LVU309
 1228 001a 0420     		movs	r0, #4
 180:../src/Pedal.cpp **** 		seed.GetPin(ENCODER_1_B_PIN),
 1229              		.loc 1 180 29 discriminator 1 view .LVU310
 1230 001c ADF80830 		strh	r3, [sp, #8]	@ movhi
 180:../src/Pedal.cpp **** 		seed.GetPin(ENCODER_1_B_PIN),
 1231              		.loc 1 180 29 discriminator 2 view .LVU311
 1232 0020 FFF7FEFF 		bl	_ZN5daisy9DaisySeed6GetPinEh
 1233              	.LVL108:
 1234 0024 ADF80C00 		strh	r0, [sp, #12]	@ movhi
 180:../src/Pedal.cpp **** 		seed.GetPin(ENCODER_1_B_PIN),
 1235              		.loc 1 180 29 discriminator 3 view .LVU312
 1236 0028 04F21450 		addw	r0, r4, #1300
 1237 002c 9FED040A 		vldr.32	s0, .L49
 1238 0030 039B     		ldr	r3, [sp, #12]
 1239 0032 DDE90112 		ldrd	r1, r2, [sp, #4]
 183:../src/Pedal.cpp **** 
 1240              		.loc 1 183 1 view .LVU313
 1241 0036 04B0     		add	sp, sp, #16
 1242              		.cfi_def_cfa_offset 8
 1243              		@ sp needed
ARM GAS  /var/folders/83/vwtnzcdn1v99b_lf0k0gsjzr0000gn/T//cc93oyUL.s 			page 32


 1244 0038 BDE81040 		pop	{r4, lr}
 1245              		.cfi_restore 14
 1246              		.cfi_restore 4
 1247              		.cfi_def_cfa_offset 0
 1248              	.LVL109:
 180:../src/Pedal.cpp **** 		seed.GetPin(ENCODER_1_B_PIN),
 1249              		.loc 1 180 29 discriminator 3 view .LVU314
 1250 003c FFF7FEBF 		b	_ZN5daisy7Encoder4InitE12dsy_gpio_pinS1_S1_f
 1251              	.LVL110:
 1252              	.L50:
 180:../src/Pedal.cpp **** 		seed.GetPin(ENCODER_1_B_PIN),
 1253              		.loc 1 180 29 discriminator 3 view .LVU315
 1254              		.align	2
 1255              	.L49:
 1256 0040 00000000 		.word	0
 1257              		.cfi_endproc
 1258              	.LFE4685:
 1260              		.section	.text._ZN3amc5Pedal12InitSwitchesEv,"ax",%progbits
 1261              		.align	1
 1262              		.p2align 2,,3
 1263              		.global	_ZN3amc5Pedal12InitSwitchesEv
 1264              		.syntax unified
 1265              		.thumb
 1266              		.thumb_func
 1268              	_ZN3amc5Pedal12InitSwitchesEv:
 1269              	.LVL111:
 1270              	.LFB4686:
 186:../src/Pedal.cpp **** 	switches[SwitchI::S1].Init(seed.GetPin(SWITCH_1_PIN));
 1271              		.loc 1 186 1 is_stmt 1 view -0
 1272              		.cfi_startproc
 1273              		@ args = 0, pretend = 0, frame = 8
 1274              		@ frame_needed = 0, uses_anonymous_args = 0
 187:../src/Pedal.cpp **** 	switches[SwitchI::S2].Init(seed.GetPin(SWITCH_2_PIN));
 1275              		.loc 1 187 2 view .LVU317
 186:../src/Pedal.cpp **** 	switches[SwitchI::S1].Init(seed.GetPin(SWITCH_1_PIN));
 1276              		.loc 1 186 1 is_stmt 0 view .LVU318
 1277 0000 10B5     		push	{r4, lr}
 1278              		.cfi_def_cfa_offset 8
 1279              		.cfi_offset 4, -8
 1280              		.cfi_offset 14, -4
 1281 0002 0446     		mov	r4, r0
 187:../src/Pedal.cpp **** 	switches[SwitchI::S2].Init(seed.GetPin(SWITCH_2_PIN));
 1282              		.loc 1 187 28 view .LVU319
 1283 0004 0620     		movs	r0, #6
 1284              	.LVL112:
 186:../src/Pedal.cpp **** 	switches[SwitchI::S1].Init(seed.GetPin(SWITCH_1_PIN));
 1285              		.loc 1 186 1 view .LVU320
 1286 0006 2DED028B 		vpush.64	{d8}
 1287              		.cfi_def_cfa_offset 16
 1288              		.cfi_offset 80, -16
 1289              		.cfi_offset 81, -12
 1290 000a 82B0     		sub	sp, sp, #8
 1291              		.cfi_def_cfa_offset 24
 187:../src/Pedal.cpp **** 	switches[SwitchI::S2].Init(seed.GetPin(SWITCH_2_PIN));
 1292              		.loc 1 187 28 discriminator 1 view .LVU321
 1293 000c 9FED0F8A 		vldr.32	s16, .L53
 187:../src/Pedal.cpp **** 	switches[SwitchI::S2].Init(seed.GetPin(SWITCH_2_PIN));
ARM GAS  /var/folders/83/vwtnzcdn1v99b_lf0k0gsjzr0000gn/T//cc93oyUL.s 			page 33


 1294              		.loc 1 187 28 view .LVU322
 1295 0010 FFF7FEFF 		bl	_ZN5daisy9DaisySeed6GetPinEh
 1296              	.LVL113:
 1297 0014 0346     		mov	r3, r0	@ movhi
 187:../src/Pedal.cpp **** 	switches[SwitchI::S2].Init(seed.GetPin(SWITCH_2_PIN));
 1298              		.loc 1 187 28 discriminator 1 view .LVU323
 1299 0016 B0EE480A 		vmov.f32	s0, s16
 1300 001a 04F23C50 		addw	r0, r4, #1340
 187:../src/Pedal.cpp **** 	switches[SwitchI::S2].Init(seed.GetPin(SWITCH_2_PIN));
 1301              		.loc 1 187 28 view .LVU324
 1302 001e ADF80030 		strh	r3, [sp]	@ movhi
 187:../src/Pedal.cpp **** 	switches[SwitchI::S2].Init(seed.GetPin(SWITCH_2_PIN));
 1303              		.loc 1 187 28 discriminator 1 view .LVU325
 1304 0022 0099     		ldr	r1, [sp]
 1305 0024 FFF7FEFF 		bl	_ZN5daisy6Switch4InitE12dsy_gpio_pinf
 1306              	.LVL114:
 188:../src/Pedal.cpp **** }
 1307              		.loc 1 188 2 is_stmt 1 view .LVU326
 188:../src/Pedal.cpp **** }
 1308              		.loc 1 188 28 is_stmt 0 view .LVU327
 1309 0028 0520     		movs	r0, #5
 1310 002a FFF7FEFF 		bl	_ZN5daisy9DaisySeed6GetPinEh
 1311              	.LVL115:
 1312 002e 0346     		mov	r3, r0	@ movhi
 188:../src/Pedal.cpp **** }
 1313              		.loc 1 188 28 discriminator 1 view .LVU328
 1314 0030 B0EE480A 		vmov.f32	s0, s16
 1315 0034 04F24C50 		addw	r0, r4, #1356
 188:../src/Pedal.cpp **** }
 1316              		.loc 1 188 28 view .LVU329
 1317 0038 ADF80430 		strh	r3, [sp, #4]	@ movhi
 188:../src/Pedal.cpp **** }
 1318              		.loc 1 188 28 discriminator 1 view .LVU330
 1319 003c 0199     		ldr	r1, [sp, #4]
 189:../src/Pedal.cpp **** 
 1320              		.loc 1 189 1 view .LVU331
 1321 003e 02B0     		add	sp, sp, #8
 1322              		.cfi_def_cfa_offset 16
 1323              		@ sp needed
 1324 0040 BDEC028B 		vldm	sp!, {d8}
 1325              		.cfi_restore 80
 1326              		.cfi_restore 81
 1327              		.cfi_def_cfa_offset 8
 1328 0044 BDE81040 		pop	{r4, lr}
 1329              		.cfi_restore 14
 1330              		.cfi_restore 4
 1331              		.cfi_def_cfa_offset 0
 1332              	.LVL116:
 188:../src/Pedal.cpp **** }
 1333              		.loc 1 188 28 discriminator 1 view .LVU332
 1334 0048 FFF7FEBF 		b	_ZN5daisy6Switch4InitE12dsy_gpio_pinf
 1335              	.LVL117:
 1336              	.L54:
 188:../src/Pedal.cpp **** }
 1337              		.loc 1 188 28 discriminator 1 view .LVU333
 1338              		.align	2
 1339              	.L53:
ARM GAS  /var/folders/83/vwtnzcdn1v99b_lf0k0gsjzr0000gn/T//cc93oyUL.s 			page 34


 1340 004c 00000000 		.word	0
 1341              		.cfi_endproc
 1342              	.LFE4686:
 1344              		.section	.text._ZN3amc5Pedal8InitLedsEv,"ax",%progbits
 1345              		.align	1
 1346              		.p2align 2,,3
 1347              		.global	_ZN3amc5Pedal8InitLedsEv
 1348              		.syntax unified
 1349              		.thumb
 1350              		.thumb_func
 1352              	_ZN3amc5Pedal8InitLedsEv:
 1353              	.LVL118:
 1354              	.LFB4687:
 192:../src/Pedal.cpp **** 	leds[LedI::L1].Init(seed.GetPin(LED_1_PIN), false);
 1355              		.loc 1 192 1 is_stmt 1 view -0
 1356              		.cfi_startproc
 1357              		@ args = 0, pretend = 0, frame = 8
 1358              		@ frame_needed = 0, uses_anonymous_args = 0
 193:../src/Pedal.cpp **** 	leds[LedI::L2].Init(seed.GetPin(LED_2_PIN), false);
 1359              		.loc 1 193 2 view .LVU335
 192:../src/Pedal.cpp **** 	leds[LedI::L1].Init(seed.GetPin(LED_1_PIN), false);
 1360              		.loc 1 192 1 is_stmt 0 view .LVU336
 1361 0000 10B5     		push	{r4, lr}
 1362              		.cfi_def_cfa_offset 8
 1363              		.cfi_offset 4, -8
 1364              		.cfi_offset 14, -4
 1365 0002 0446     		mov	r4, r0
 193:../src/Pedal.cpp **** 	leds[LedI::L2].Init(seed.GetPin(LED_2_PIN), false);
 1366              		.loc 1 193 21 view .LVU337
 1367 0004 1620     		movs	r0, #22
 1368              	.LVL119:
 192:../src/Pedal.cpp **** 	leds[LedI::L1].Init(seed.GetPin(LED_1_PIN), false);
 1369              		.loc 1 192 1 view .LVU338
 1370 0006 2DED028B 		vpush.64	{d8}
 1371              		.cfi_def_cfa_offset 16
 1372              		.cfi_offset 80, -16
 1373              		.cfi_offset 81, -12
 1374 000a 82B0     		sub	sp, sp, #8
 1375              		.cfi_def_cfa_offset 24
 193:../src/Pedal.cpp **** 	leds[LedI::L2].Init(seed.GetPin(LED_2_PIN), false);
 1376              		.loc 1 193 21 discriminator 1 view .LVU339
 1377 000c 9FED108A 		vldr.32	s16, .L57
 193:../src/Pedal.cpp **** 	leds[LedI::L2].Init(seed.GetPin(LED_2_PIN), false);
 1378              		.loc 1 193 21 view .LVU340
 1379 0010 FFF7FEFF 		bl	_ZN5daisy9DaisySeed6GetPinEh
 1380              	.LVL120:
 1381 0014 0346     		mov	r3, r0	@ movhi
 193:../src/Pedal.cpp **** 	leds[LedI::L2].Init(seed.GetPin(LED_2_PIN), false);
 1382              		.loc 1 193 21 discriminator 1 view .LVU341
 1383 0016 B0EE480A 		vmov.f32	s0, s16
 1384 001a 0022     		movs	r2, #0
 193:../src/Pedal.cpp **** 	leds[LedI::L2].Init(seed.GetPin(LED_2_PIN), false);
 1385              		.loc 1 193 21 view .LVU342
 1386 001c ADF80030 		strh	r3, [sp]	@ movhi
 193:../src/Pedal.cpp **** 	leds[LedI::L2].Init(seed.GetPin(LED_2_PIN), false);
 1387              		.loc 1 193 21 discriminator 1 view .LVU343
 1388 0020 04F25C50 		addw	r0, r4, #1372
ARM GAS  /var/folders/83/vwtnzcdn1v99b_lf0k0gsjzr0000gn/T//cc93oyUL.s 			page 35


 1389 0024 0099     		ldr	r1, [sp]
 1390 0026 FFF7FEFF 		bl	_ZN5daisy3Led4InitE12dsy_gpio_pinbf
 1391              	.LVL121:
 194:../src/Pedal.cpp **** }
 1392              		.loc 1 194 2 is_stmt 1 view .LVU344
 194:../src/Pedal.cpp **** }
 1393              		.loc 1 194 21 is_stmt 0 view .LVU345
 1394 002a 1720     		movs	r0, #23
 1395 002c FFF7FEFF 		bl	_ZN5daisy9DaisySeed6GetPinEh
 1396              	.LVL122:
 194:../src/Pedal.cpp **** }
 1397              		.loc 1 194 21 discriminator 1 view .LVU346
 1398 0030 B0EE480A 		vmov.f32	s0, s16
 194:../src/Pedal.cpp **** }
 1399              		.loc 1 194 21 view .LVU347
 1400 0034 ADF80400 		strh	r0, [sp, #4]	@ movhi
 194:../src/Pedal.cpp **** }
 1401              		.loc 1 194 21 discriminator 1 view .LVU348
 1402 0038 0022     		movs	r2, #0
 1403 003a 04F5AF60 		add	r0, r4, #1400
 1404 003e 0199     		ldr	r1, [sp, #4]
 195:../src/Pedal.cpp **** 
 1405              		.loc 1 195 1 view .LVU349
 1406 0040 02B0     		add	sp, sp, #8
 1407              		.cfi_def_cfa_offset 16
 1408              		@ sp needed
 1409 0042 BDEC028B 		vldm	sp!, {d8}
 1410              		.cfi_restore 80
 1411              		.cfi_restore 81
 1412              		.cfi_def_cfa_offset 8
 1413 0046 BDE81040 		pop	{r4, lr}
 1414              		.cfi_restore 14
 1415              		.cfi_restore 4
 1416              		.cfi_def_cfa_offset 0
 1417              	.LVL123:
 194:../src/Pedal.cpp **** }
 1418              		.loc 1 194 21 discriminator 1 view .LVU350
 1419 004a FFF7FEBF 		b	_ZN5daisy3Led4InitE12dsy_gpio_pinbf
 1420              	.LVL124:
 1421              	.L58:
 194:../src/Pedal.cpp **** }
 1422              		.loc 1 194 21 discriminator 1 view .LVU351
 1423 004e 00BF     		.align	2
 1424              	.L57:
 1425 0050 00007A44 		.word	1148846080
 1426              		.cfi_endproc
 1427              	.LFE4687:
 1429              		.section	.text._ZN3amc5Pedal8InitMidiEv,"ax",%progbits
 1430              		.align	1
 1431              		.p2align 2,,3
 1432              		.global	_ZN3amc5Pedal8InitMidiEv
 1433              		.syntax unified
 1434              		.thumb
 1435              		.thumb_func
 1437              	_ZN3amc5Pedal8InitMidiEv:
 1438              	.LVL125:
 1439              	.LFB4688:
ARM GAS  /var/folders/83/vwtnzcdn1v99b_lf0k0gsjzr0000gn/T//cc93oyUL.s 			page 36


 198:../src/Pedal.cpp **** 	MidiUartHandler::Config config;
 1440              		.loc 1 198 1 is_stmt 1 view -0
 1441              		.cfi_startproc
 1442              		@ args = 0, pretend = 0, frame = 80
 1443              		@ frame_needed = 0, uses_anonymous_args = 0
 199:../src/Pedal.cpp **** 	config.transport_config.rx = seed.GetPin(MIDI_RX_PIN);
 1444              		.loc 1 199 2 view .LVU353
 198:../src/Pedal.cpp **** 	MidiUartHandler::Config config;
 1445              		.loc 1 198 1 is_stmt 0 view .LVU354
 1446 0000 70B5     		push	{r4, r5, r6, lr}
 1447              		.cfi_def_cfa_offset 16
 1448              		.cfi_offset 4, -16
 1449              		.cfi_offset 5, -12
 1450              		.cfi_offset 6, -8
 1451              		.cfi_offset 14, -4
 1452 0002 94B0     		sub	sp, sp, #80
 1453              		.cfi_def_cfa_offset 96
 1454              	.LVL126:
 1455              	.LBB180:
 1456              	.LBI180:
 1457              		.file 4 "/Users/amc/git/libDaisy/src/hid/midi.h"
   1:/Users/amc/git/libDaisy/src/hid/midi.h **** #pragma once
   2:/Users/amc/git/libDaisy/src/hid/midi.h **** #ifndef DSY_MIDI_H
   3:/Users/amc/git/libDaisy/src/hid/midi.h **** #define DSY_MIDI_H
   4:/Users/amc/git/libDaisy/src/hid/midi.h **** 
   5:/Users/amc/git/libDaisy/src/hid/midi.h **** #include <stdint.h>
   6:/Users/amc/git/libDaisy/src/hid/midi.h **** #include <stdlib.h>
   7:/Users/amc/git/libDaisy/src/hid/midi.h **** #include <algorithm>
   8:/Users/amc/git/libDaisy/src/hid/midi.h **** #include "per/uart.h"
   9:/Users/amc/git/libDaisy/src/hid/midi.h **** #include "util/ringbuffer.h"
  10:/Users/amc/git/libDaisy/src/hid/midi.h **** #include "util/FIFO.h"
  11:/Users/amc/git/libDaisy/src/hid/midi.h **** #include "hid/midi_parser.h"
  12:/Users/amc/git/libDaisy/src/hid/midi.h **** #include "hid/usb_midi.h"
  13:/Users/amc/git/libDaisy/src/hid/midi.h **** #include "sys/dma.h"
  14:/Users/amc/git/libDaisy/src/hid/midi.h **** #include "sys/system.h"
  15:/Users/amc/git/libDaisy/src/hid/midi.h **** 
  16:/Users/amc/git/libDaisy/src/hid/midi.h **** namespace daisy
  17:/Users/amc/git/libDaisy/src/hid/midi.h **** {
  18:/Users/amc/git/libDaisy/src/hid/midi.h **** /** @brief   Transport layer for sending and receiving MIDI data over UART
  19:/Users/amc/git/libDaisy/src/hid/midi.h ****  *  @details This is the mode of communication used for TRS and DIN MIDI
  20:/Users/amc/git/libDaisy/src/hid/midi.h ****  *           There is an additional 2kB of RAM data used within this class
  21:/Users/amc/git/libDaisy/src/hid/midi.h ****  *           for processing bulk data from the UART peripheral
  22:/Users/amc/git/libDaisy/src/hid/midi.h ****  *  @ingroup midi
  23:/Users/amc/git/libDaisy/src/hid/midi.h **** */
  24:/Users/amc/git/libDaisy/src/hid/midi.h **** class MidiUartTransport
  25:/Users/amc/git/libDaisy/src/hid/midi.h **** {
  26:/Users/amc/git/libDaisy/src/hid/midi.h ****   public:
  27:/Users/amc/git/libDaisy/src/hid/midi.h ****     typedef void (*MidiRxParseCallback)(uint8_t* data,
  28:/Users/amc/git/libDaisy/src/hid/midi.h ****                                         size_t   size,
  29:/Users/amc/git/libDaisy/src/hid/midi.h ****                                         void*    context);
  30:/Users/amc/git/libDaisy/src/hid/midi.h **** 
  31:/Users/amc/git/libDaisy/src/hid/midi.h ****     MidiUartTransport() {}
  32:/Users/amc/git/libDaisy/src/hid/midi.h ****     ~MidiUartTransport() {}
  33:/Users/amc/git/libDaisy/src/hid/midi.h **** 
  34:/Users/amc/git/libDaisy/src/hid/midi.h ****     /** @brief Configuration structure for UART MIDI */
  35:/Users/amc/git/libDaisy/src/hid/midi.h ****     struct Config
  36:/Users/amc/git/libDaisy/src/hid/midi.h ****     {
ARM GAS  /var/folders/83/vwtnzcdn1v99b_lf0k0gsjzr0000gn/T//cc93oyUL.s 			page 37


  37:/Users/amc/git/libDaisy/src/hid/midi.h ****         UartHandler::Config::Peripheral periph;
  38:/Users/amc/git/libDaisy/src/hid/midi.h ****         dsy_gpio_pin                    rx;
  39:/Users/amc/git/libDaisy/src/hid/midi.h ****         dsy_gpio_pin                    tx;
  40:/Users/amc/git/libDaisy/src/hid/midi.h **** 
  41:/Users/amc/git/libDaisy/src/hid/midi.h ****         /** Pointer to buffer for DMA UART rx byte transfer in background.
  42:/Users/amc/git/libDaisy/src/hid/midi.h ****          *
  43:/Users/amc/git/libDaisy/src/hid/midi.h ****          *  @details By default this uses a shared buffer in DMA_BUFFER_MEM_SECTION,
  44:/Users/amc/git/libDaisy/src/hid/midi.h ****          *           which can only be utilized for a single UART peripheral. To
  45:/Users/amc/git/libDaisy/src/hid/midi.h ****          *           use MIDI with multiple UART peripherals, you must provide your own
  46:/Users/amc/git/libDaisy/src/hid/midi.h ****          *           buffer, allocated to a DMA-capable memory section.
  47:/Users/amc/git/libDaisy/src/hid/midi.h ****          */
  48:/Users/amc/git/libDaisy/src/hid/midi.h ****         uint8_t* rx_buffer;
  49:/Users/amc/git/libDaisy/src/hid/midi.h **** 
  50:/Users/amc/git/libDaisy/src/hid/midi.h ****         /** Size in bytes of rx_buffer.
  51:/Users/amc/git/libDaisy/src/hid/midi.h ****          *
  52:/Users/amc/git/libDaisy/src/hid/midi.h ****          *  @details This size determines the maximum Rx bytes readable by the UART in the backgrou
  53:/Users/amc/git/libDaisy/src/hid/midi.h ****          *           By default it's set to the size of the default shared rx_buffer (256 bytes).
  54:/Users/amc/git/libDaisy/src/hid/midi.h ****          *           While much smaller sizes can be used, data can get missed if the buffer is too
  55:/Users/amc/git/libDaisy/src/hid/midi.h ****          */
  56:/Users/amc/git/libDaisy/src/hid/midi.h ****         size_t rx_buffer_size;
  57:/Users/amc/git/libDaisy/src/hid/midi.h **** 
  58:/Users/amc/git/libDaisy/src/hid/midi.h ****         Config();
  59:/Users/amc/git/libDaisy/src/hid/midi.h ****     };
  60:/Users/amc/git/libDaisy/src/hid/midi.h **** 
  61:/Users/amc/git/libDaisy/src/hid/midi.h ****     /** @brief Initialization of UART using config struct */
  62:/Users/amc/git/libDaisy/src/hid/midi.h ****     inline void Init(Config config)
  63:/Users/amc/git/libDaisy/src/hid/midi.h ****     {
  64:/Users/amc/git/libDaisy/src/hid/midi.h ****         UartHandler::Config uart_config;
  65:/Users/amc/git/libDaisy/src/hid/midi.h **** 
  66:/Users/amc/git/libDaisy/src/hid/midi.h ****         //defaults
  67:/Users/amc/git/libDaisy/src/hid/midi.h ****         uart_config.baudrate   = 31250;
  68:/Users/amc/git/libDaisy/src/hid/midi.h ****         uart_config.stopbits   = UartHandler::Config::StopBits::BITS_1;
  69:/Users/amc/git/libDaisy/src/hid/midi.h ****         uart_config.parity     = UartHandler::Config::Parity::NONE;
  70:/Users/amc/git/libDaisy/src/hid/midi.h ****         uart_config.mode       = UartHandler::Config::Mode::TX_RX;
  71:/Users/amc/git/libDaisy/src/hid/midi.h ****         uart_config.wordlength = UartHandler::Config::WordLength::BITS_8;
  72:/Users/amc/git/libDaisy/src/hid/midi.h **** 
  73:/Users/amc/git/libDaisy/src/hid/midi.h ****         //user settings
  74:/Users/amc/git/libDaisy/src/hid/midi.h ****         uart_config.periph        = config.periph;
  75:/Users/amc/git/libDaisy/src/hid/midi.h ****         uart_config.pin_config.rx = config.rx;
  76:/Users/amc/git/libDaisy/src/hid/midi.h ****         uart_config.pin_config.tx = config.tx;
  77:/Users/amc/git/libDaisy/src/hid/midi.h **** 
  78:/Users/amc/git/libDaisy/src/hid/midi.h ****         rx_buffer      = config.rx_buffer;
  79:/Users/amc/git/libDaisy/src/hid/midi.h ****         rx_buffer_size = config.rx_buffer_size;
  80:/Users/amc/git/libDaisy/src/hid/midi.h **** 
  81:/Users/amc/git/libDaisy/src/hid/midi.h ****         /** zero the buffer to ensure emptiness regardless of source memory */
  82:/Users/amc/git/libDaisy/src/hid/midi.h ****         std::fill(rx_buffer, rx_buffer + rx_buffer_size, 0);
  83:/Users/amc/git/libDaisy/src/hid/midi.h **** 
  84:/Users/amc/git/libDaisy/src/hid/midi.h ****         uart_.Init(uart_config);
  85:/Users/amc/git/libDaisy/src/hid/midi.h ****     }
  86:/Users/amc/git/libDaisy/src/hid/midi.h **** 
  87:/Users/amc/git/libDaisy/src/hid/midi.h ****     /** @brief Start the UART peripheral in listening mode.
  88:/Users/amc/git/libDaisy/src/hid/midi.h ****      *  This will fill an internal data structure in the background */
  89:/Users/amc/git/libDaisy/src/hid/midi.h ****     inline void StartRx(MidiRxParseCallback parse_callback, void* context)
  90:/Users/amc/git/libDaisy/src/hid/midi.h ****     {
  91:/Users/amc/git/libDaisy/src/hid/midi.h ****         parse_context_  = context;
  92:/Users/amc/git/libDaisy/src/hid/midi.h ****         parse_callback_ = parse_callback;
  93:/Users/amc/git/libDaisy/src/hid/midi.h ****         dsy_dma_clear_cache_for_buffer((uint8_t*)this,
ARM GAS  /var/folders/83/vwtnzcdn1v99b_lf0k0gsjzr0000gn/T//cc93oyUL.s 			page 38


  94:/Users/amc/git/libDaisy/src/hid/midi.h ****                                        sizeof(MidiUartTransport));
  95:/Users/amc/git/libDaisy/src/hid/midi.h ****         uart_.DmaListenStart(
  96:/Users/amc/git/libDaisy/src/hid/midi.h ****             rx_buffer, rx_buffer_size, MidiUartTransport::rxCallback, this);
  97:/Users/amc/git/libDaisy/src/hid/midi.h ****     }
  98:/Users/amc/git/libDaisy/src/hid/midi.h **** 
  99:/Users/amc/git/libDaisy/src/hid/midi.h ****     /** @brief returns whether the UART peripheral is actively listening in the background or not *
 100:/Users/amc/git/libDaisy/src/hid/midi.h ****     inline bool RxActive() { return uart_.IsListening(); }
 101:/Users/amc/git/libDaisy/src/hid/midi.h **** 
 102:/Users/amc/git/libDaisy/src/hid/midi.h ****     /** @brief This is a no-op for UART transport - Rx is via DMA callback with circular buffer */
 103:/Users/amc/git/libDaisy/src/hid/midi.h ****     inline void FlushRx() {}
 104:/Users/amc/git/libDaisy/src/hid/midi.h **** 
 105:/Users/amc/git/libDaisy/src/hid/midi.h ****     /** @brief sends the buffer of bytes out of the UART peripheral */
 106:/Users/amc/git/libDaisy/src/hid/midi.h ****     inline void Tx(uint8_t* buff, size_t size) { uart_.PollTx(buff, size); }
 107:/Users/amc/git/libDaisy/src/hid/midi.h **** 
 108:/Users/amc/git/libDaisy/src/hid/midi.h ****   private:
 109:/Users/amc/git/libDaisy/src/hid/midi.h ****     UartHandler         uart_;
 110:/Users/amc/git/libDaisy/src/hid/midi.h ****     uint8_t*            rx_buffer;
 111:/Users/amc/git/libDaisy/src/hid/midi.h ****     size_t              rx_buffer_size;
 112:/Users/amc/git/libDaisy/src/hid/midi.h ****     void*               parse_context_;
 113:/Users/amc/git/libDaisy/src/hid/midi.h ****     MidiRxParseCallback parse_callback_;
 114:/Users/amc/git/libDaisy/src/hid/midi.h **** 
 115:/Users/amc/git/libDaisy/src/hid/midi.h ****     /** Static callback for Uart MIDI that occurs when
 116:/Users/amc/git/libDaisy/src/hid/midi.h ****          *  new data is available from the peripheral.
 117:/Users/amc/git/libDaisy/src/hid/midi.h ****          *  The new data is transferred from the peripheral to the
 118:/Users/amc/git/libDaisy/src/hid/midi.h ****          *  MIDI instance's byte FIFO that feeds the MIDI parser.
 119:/Users/amc/git/libDaisy/src/hid/midi.h ****          *
 120:/Users/amc/git/libDaisy/src/hid/midi.h ****          *  TODO: Handle UartHandler errors better/at all.
 121:/Users/amc/git/libDaisy/src/hid/midi.h ****          *  (If there is a UART error, there's not really any recovery
 122:/Users/amc/git/libDaisy/src/hid/midi.h ****          *  option at the moment)
 123:/Users/amc/git/libDaisy/src/hid/midi.h ****          */
 124:/Users/amc/git/libDaisy/src/hid/midi.h ****     static void rxCallback(uint8_t*            data,
 125:/Users/amc/git/libDaisy/src/hid/midi.h ****                            size_t              size,
 126:/Users/amc/git/libDaisy/src/hid/midi.h ****                            void*               context,
 127:/Users/amc/git/libDaisy/src/hid/midi.h ****                            UartHandler::Result res)
 128:/Users/amc/git/libDaisy/src/hid/midi.h ****     {
 129:/Users/amc/git/libDaisy/src/hid/midi.h ****         /** Read context as transport type */
 130:/Users/amc/git/libDaisy/src/hid/midi.h ****         MidiUartTransport* transport
 131:/Users/amc/git/libDaisy/src/hid/midi.h ****             = reinterpret_cast<MidiUartTransport*>(context);
 132:/Users/amc/git/libDaisy/src/hid/midi.h ****         if(res == UartHandler::Result::OK)
 133:/Users/amc/git/libDaisy/src/hid/midi.h ****         {
 134:/Users/amc/git/libDaisy/src/hid/midi.h ****             if(transport->parse_callback_)
 135:/Users/amc/git/libDaisy/src/hid/midi.h ****             {
 136:/Users/amc/git/libDaisy/src/hid/midi.h ****                 transport->parse_callback_(
 137:/Users/amc/git/libDaisy/src/hid/midi.h ****                     data, size, transport->parse_context_);
 138:/Users/amc/git/libDaisy/src/hid/midi.h ****             }
 139:/Users/amc/git/libDaisy/src/hid/midi.h ****         }
 140:/Users/amc/git/libDaisy/src/hid/midi.h ****     }
 141:/Users/amc/git/libDaisy/src/hid/midi.h **** };
 142:/Users/amc/git/libDaisy/src/hid/midi.h **** 
 143:/Users/amc/git/libDaisy/src/hid/midi.h **** /**
 144:/Users/amc/git/libDaisy/src/hid/midi.h ****     @brief Simple MIDI Handler \n
 145:/Users/amc/git/libDaisy/src/hid/midi.h ****     Parses bytes from an input into valid MidiEvents. \n
 146:/Users/amc/git/libDaisy/src/hid/midi.h ****     The MidiEvents fill a FIFO queue that the user can pop messages from.
 147:/Users/amc/git/libDaisy/src/hid/midi.h ****     @author shensley
 148:/Users/amc/git/libDaisy/src/hid/midi.h ****     @date March 2020
 149:/Users/amc/git/libDaisy/src/hid/midi.h ****     @ingroup midi
 150:/Users/amc/git/libDaisy/src/hid/midi.h **** */
ARM GAS  /var/folders/83/vwtnzcdn1v99b_lf0k0gsjzr0000gn/T//cc93oyUL.s 			page 39


 151:/Users/amc/git/libDaisy/src/hid/midi.h **** template <typename Transport>
 152:/Users/amc/git/libDaisy/src/hid/midi.h **** class MidiHandler
 153:/Users/amc/git/libDaisy/src/hid/midi.h **** {
 154:/Users/amc/git/libDaisy/src/hid/midi.h ****   public:
 155:/Users/amc/git/libDaisy/src/hid/midi.h ****     MidiHandler() {}
 156:/Users/amc/git/libDaisy/src/hid/midi.h ****     ~MidiHandler() {}
 157:/Users/amc/git/libDaisy/src/hid/midi.h **** 
 158:/Users/amc/git/libDaisy/src/hid/midi.h ****     struct Config
 1458              		.loc 4 158 12 is_stmt 1 view .LVU355
 1459              	.LBE180:
 198:../src/Pedal.cpp **** 	MidiUartHandler::Config config;
 1460              		.loc 1 198 1 is_stmt 0 view .LVU356
 1461 0004 0446     		mov	r4, r0
 1462              	.LBB182:
 1463              	.LBB183:
 1464              	.LBB184:
 1465              	.LBB185:
  70:/Users/amc/git/libDaisy/src/hid/midi.h ****         uart_config.wordlength = UartHandler::Config::WordLength::BITS_8;
 1466              		.loc 4 70 32 view .LVU357
 1467 0006 0226     		movs	r6, #2
 1468              	.LBE185:
 1469              	.LBE184:
 1470              	.LBE183:
 1471              	.LBE182:
 1472              	.LBB212:
 1473              	.LBB181:
 1474              		.loc 4 158 12 view .LVU358
 1475 0008 01AD     		add	r5, sp, #4
 1476              	.LVL127:
 1477              		.loc 4 158 12 view .LVU359
 1478 000a 2846     		mov	r0, r5
 1479              	.LVL128:
 1480              		.loc 4 158 12 view .LVU360
 1481 000c FFF7FEFF 		bl	_ZN5daisy17MidiUartTransport6ConfigC1Ev
 1482              	.LVL129:
 1483              		.loc 4 158 12 view .LVU361
 1484              	.LBE181:
 1485              	.LBE212:
 200:../src/Pedal.cpp **** 	config.transport_config.tx = seed.GetPin(MIDI_TX_PIN);
 1486              		.loc 1 200 2 is_stmt 1 view .LVU362
 200:../src/Pedal.cpp **** 	config.transport_config.tx = seed.GetPin(MIDI_TX_PIN);
 1487              		.loc 1 200 42 is_stmt 0 view .LVU363
 1488 0010 1E20     		movs	r0, #30
 1489 0012 FFF7FEFF 		bl	_ZN5daisy9DaisySeed6GetPinEh
 1490              	.LVL130:
 1491 0016 0346     		mov	r3, r0	@ movhi
 201:../src/Pedal.cpp **** 	midi.Init(config);
 1492              		.loc 1 201 42 view .LVU364
 1493 0018 1D20     		movs	r0, #29
 200:../src/Pedal.cpp **** 	config.transport_config.tx = seed.GetPin(MIDI_TX_PIN);
 1494              		.loc 1 200 42 view .LVU365
 1495 001a ADF80830 		strh	r3, [sp, #8]	@ movhi
 201:../src/Pedal.cpp **** 	midi.Init(config);
 1496              		.loc 1 201 2 is_stmt 1 view .LVU366
 201:../src/Pedal.cpp **** 	midi.Init(config);
 1497              		.loc 1 201 42 is_stmt 0 view .LVU367
 1498 001e FFF7FEFF 		bl	_ZN5daisy9DaisySeed6GetPinEh
ARM GAS  /var/folders/83/vwtnzcdn1v99b_lf0k0gsjzr0000gn/T//cc93oyUL.s 			page 40


 1499              	.LVL131:
 1500 0022 0DF1140E 		add	lr, sp, #20
 1501              	.LBB213:
 1502              	.LBB209:
 159:/Users/amc/git/libDaisy/src/hid/midi.h ****     {
 160:/Users/amc/git/libDaisy/src/hid/midi.h ****         typename Transport::Config transport_config;
 161:/Users/amc/git/libDaisy/src/hid/midi.h ****     };
 162:/Users/amc/git/libDaisy/src/hid/midi.h **** 
 163:/Users/amc/git/libDaisy/src/hid/midi.h ****     /** Initializes the MidiHandler
 164:/Users/amc/git/libDaisy/src/hid/midi.h ****      *  \param config Configuration structure used to define specifics to the MIDI Handler.
 165:/Users/amc/git/libDaisy/src/hid/midi.h ****      */
 166:/Users/amc/git/libDaisy/src/hid/midi.h ****     void Init(Config config)
 167:/Users/amc/git/libDaisy/src/hid/midi.h ****     {
 168:/Users/amc/git/libDaisy/src/hid/midi.h ****         config_ = config;
 1503              		.loc 4 168 9 view .LVU368
 1504 0026 04F2945C 		addw	ip, r4, #1428
 1505              	.LBE209:
 1506              	.LBE213:
 201:../src/Pedal.cpp **** 	midi.Init(config);
 1507              		.loc 1 201 42 view .LVU369
 1508 002a ADF80A00 		strh	r0, [sp, #10]	@ movhi
 202:../src/Pedal.cpp **** }
 1509              		.loc 1 202 2 is_stmt 1 view .LVU370
 1510              	.LVL132:
 1511              	.LBB214:
 1512              	.LBB210:
 1513              	.LBB205:
 1514              	.LBB202:
  70:/Users/amc/git/libDaisy/src/hid/midi.h ****         uart_config.wordlength = UartHandler::Config::WordLength::BITS_8;
 1515              		.loc 4 70 32 is_stmt 0 view .LVU371
 1516 002e 1196     		str	r6, [sp, #68]
 1517 0030 95E80F00 		ldm	r5, {r0, r1, r2, r3}
 1518 0034 09AD     		add	r5, sp, #36
 1519              	.LBE202:
 1520              	.LBE205:
 1521              		.loc 4 168 9 view .LVU372
 1522 0036 8CE80F00 		stm	ip, {r0, r1, r2, r3}
 1523 003a 85E80F00 		stm	r5, {r0, r1, r2, r3}
 1524 003e 8EE80F00 		stm	lr, {r0, r1, r2, r3}
 1525              	.LBE210:
 1526              	.LBI182:
 166:/Users/amc/git/libDaisy/src/hid/midi.h ****     {
 1527              		.loc 4 166 10 is_stmt 1 view .LVU373
 1528              	.LVL133:
 1529              	.LBB211:
 1530              	.LBB206:
 1531              	.LBB203:
 1532              	.LBB186:
 1533              	.LBB187:
 1534              	.LBB188:
 1535              		.file 5 "/Users/amc/git/libDaisy/src/per/uart.h"
   1:/Users/amc/git/libDaisy/src/per/uart.h **** /* 
   2:/Users/amc/git/libDaisy/src/per/uart.h **** TODO
   3:/Users/amc/git/libDaisy/src/per/uart.h **** - Overflow handling, etc. for Rx Queue.
   4:/Users/amc/git/libDaisy/src/per/uart.h **** */
   5:/Users/amc/git/libDaisy/src/per/uart.h **** 
   6:/Users/amc/git/libDaisy/src/per/uart.h **** #pragma once
ARM GAS  /var/folders/83/vwtnzcdn1v99b_lf0k0gsjzr0000gn/T//cc93oyUL.s 			page 41


   7:/Users/amc/git/libDaisy/src/per/uart.h **** #ifndef DSY_UART_H
   8:/Users/amc/git/libDaisy/src/per/uart.h **** #define DSY_UART_H /**< macro */
   9:/Users/amc/git/libDaisy/src/per/uart.h **** #include "daisy_core.h"
  10:/Users/amc/git/libDaisy/src/per/uart.h **** 
  11:/Users/amc/git/libDaisy/src/per/uart.h **** 
  12:/Users/amc/git/libDaisy/src/per/uart.h **** namespace daisy
  13:/Users/amc/git/libDaisy/src/per/uart.h **** {
  14:/Users/amc/git/libDaisy/src/per/uart.h **** /** @addtogroup serial
  15:/Users/amc/git/libDaisy/src/per/uart.h ****     @{
  16:/Users/amc/git/libDaisy/src/per/uart.h ****     */
  17:/Users/amc/git/libDaisy/src/per/uart.h **** 
  18:/Users/amc/git/libDaisy/src/per/uart.h **** /** 
  19:/Users/amc/git/libDaisy/src/per/uart.h ****     Uart Peripheral
  20:/Users/amc/git/libDaisy/src/per/uart.h ****     @author shensley
  21:/Users/amc/git/libDaisy/src/per/uart.h ****     @date March 2020
  22:/Users/amc/git/libDaisy/src/per/uart.h ****     */
  23:/Users/amc/git/libDaisy/src/per/uart.h **** class UartHandler
  24:/Users/amc/git/libDaisy/src/per/uart.h **** {
  25:/Users/amc/git/libDaisy/src/per/uart.h ****   public:
  26:/Users/amc/git/libDaisy/src/per/uart.h ****     struct Config
  27:/Users/amc/git/libDaisy/src/per/uart.h ****     {
  28:/Users/amc/git/libDaisy/src/per/uart.h ****         enum class Peripheral
  29:/Users/amc/git/libDaisy/src/per/uart.h ****         {
  30:/Users/amc/git/libDaisy/src/per/uart.h ****             USART_1,
  31:/Users/amc/git/libDaisy/src/per/uart.h ****             USART_2,
  32:/Users/amc/git/libDaisy/src/per/uart.h ****             USART_3,
  33:/Users/amc/git/libDaisy/src/per/uart.h ****             UART_4,
  34:/Users/amc/git/libDaisy/src/per/uart.h ****             UART_5,
  35:/Users/amc/git/libDaisy/src/per/uart.h ****             USART_6,
  36:/Users/amc/git/libDaisy/src/per/uart.h ****             UART_7,
  37:/Users/amc/git/libDaisy/src/per/uart.h ****             UART_8,
  38:/Users/amc/git/libDaisy/src/per/uart.h ****             LPUART_1,
  39:/Users/amc/git/libDaisy/src/per/uart.h ****         };
  40:/Users/amc/git/libDaisy/src/per/uart.h **** 
  41:/Users/amc/git/libDaisy/src/per/uart.h ****         enum class StopBits
  42:/Users/amc/git/libDaisy/src/per/uart.h ****         {
  43:/Users/amc/git/libDaisy/src/per/uart.h ****             BITS_0_5,
  44:/Users/amc/git/libDaisy/src/per/uart.h ****             BITS_1,
  45:/Users/amc/git/libDaisy/src/per/uart.h ****             BITS_1_5,
  46:/Users/amc/git/libDaisy/src/per/uart.h ****             BITS_2,
  47:/Users/amc/git/libDaisy/src/per/uart.h ****         };
  48:/Users/amc/git/libDaisy/src/per/uart.h **** 
  49:/Users/amc/git/libDaisy/src/per/uart.h ****         enum class Parity
  50:/Users/amc/git/libDaisy/src/per/uart.h ****         {
  51:/Users/amc/git/libDaisy/src/per/uart.h ****             NONE,
  52:/Users/amc/git/libDaisy/src/per/uart.h ****             EVEN,
  53:/Users/amc/git/libDaisy/src/per/uart.h ****             ODD,
  54:/Users/amc/git/libDaisy/src/per/uart.h ****         };
  55:/Users/amc/git/libDaisy/src/per/uart.h **** 
  56:/Users/amc/git/libDaisy/src/per/uart.h ****         enum class Mode
  57:/Users/amc/git/libDaisy/src/per/uart.h ****         {
  58:/Users/amc/git/libDaisy/src/per/uart.h ****             RX,
  59:/Users/amc/git/libDaisy/src/per/uart.h ****             TX,
  60:/Users/amc/git/libDaisy/src/per/uart.h ****             TX_RX,
  61:/Users/amc/git/libDaisy/src/per/uart.h ****         };
  62:/Users/amc/git/libDaisy/src/per/uart.h **** 
  63:/Users/amc/git/libDaisy/src/per/uart.h ****         enum class WordLength
ARM GAS  /var/folders/83/vwtnzcdn1v99b_lf0k0gsjzr0000gn/T//cc93oyUL.s 			page 42


  64:/Users/amc/git/libDaisy/src/per/uart.h ****         {
  65:/Users/amc/git/libDaisy/src/per/uart.h ****             BITS_7,
  66:/Users/amc/git/libDaisy/src/per/uart.h ****             BITS_8,
  67:/Users/amc/git/libDaisy/src/per/uart.h ****             BITS_9,
  68:/Users/amc/git/libDaisy/src/per/uart.h ****         };
  69:/Users/amc/git/libDaisy/src/per/uart.h **** 
  70:/Users/amc/git/libDaisy/src/per/uart.h ****         struct
  71:/Users/amc/git/libDaisy/src/per/uart.h ****         {
  72:/Users/amc/git/libDaisy/src/per/uart.h ****             dsy_gpio_pin tx; /**< & */
  73:/Users/amc/git/libDaisy/src/per/uart.h ****             dsy_gpio_pin rx; /**< & */
  74:/Users/amc/git/libDaisy/src/per/uart.h ****         } pin_config;        /**< & */
  75:/Users/amc/git/libDaisy/src/per/uart.h **** 
  76:/Users/amc/git/libDaisy/src/per/uart.h ****         Config()
  77:/Users/amc/git/libDaisy/src/per/uart.h ****         {
  78:/Users/amc/git/libDaisy/src/per/uart.h ****             // user must init periph, pin_config, and mode
  79:/Users/amc/git/libDaisy/src/per/uart.h ****             stopbits   = StopBits::BITS_1;
 1536              		.loc 5 79 24 is_stmt 0 view .LVU374
 1537 0042 0123     		movs	r3, #1
  80:/Users/amc/git/libDaisy/src/per/uart.h ****             parity     = Parity::NONE;
  81:/Users/amc/git/libDaisy/src/per/uart.h ****             wordlength = WordLength::BITS_8;
  82:/Users/amc/git/libDaisy/src/per/uart.h ****             baudrate   = 31250;
 1538              		.loc 5 82 24 view .LVU375
 1539 0044 47F61222 		movw	r2, #31250
 1540 0048 0546     		mov	r5, r0
 1541              	.LVL134:
  80:/Users/amc/git/libDaisy/src/per/uart.h ****             parity     = Parity::NONE;
 1542              		.loc 5 80 24 view .LVU376
 1543 004a 0021     		movs	r1, #0
  79:/Users/amc/git/libDaisy/src/per/uart.h ****             parity     = Parity::NONE;
 1544              		.loc 5 79 24 view .LVU377
 1545 004c 0F93     		str	r3, [sp, #60]
  81:/Users/amc/git/libDaisy/src/per/uart.h ****             baudrate   = 31250;
 1546              		.loc 5 81 24 view .LVU378
 1547 004e 1293     		str	r3, [sp, #72]
 1548              	.LBE188:
 1549              	.LBE187:
 1550              	.LBE186:
  75:/Users/amc/git/libDaisy/src/hid/midi.h ****         uart_config.pin_config.tx = config.tx;
 1551              		.loc 4 75 35 view .LVU379
 1552 0050 BDF82830 		ldrh	r3, [sp, #40]
 1553 0054 D4F89C05 		ldr	r0, [r4, #1436]
 1554              	.LVL135:
 1555              	.LBB195:
 1556              	.LBB192:
 1557              	.LBB189:
 1558              		.loc 5 82 24 view .LVU380
 1559 0058 1392     		str	r2, [sp, #76]
 1560              	.LBE189:
 1561              	.LBE192:
 1562              	.LBE195:
  75:/Users/amc/git/libDaisy/src/hid/midi.h ****         uart_config.pin_config.tx = config.tx;
 1563              		.loc 4 75 35 view .LVU381
 1564 005a ADF83630 		strh	r3, [sp, #54]	@ movhi
 1565 005e D4F8A025 		ldr	r2, [r4, #1440]
 1566              	.LVL136:
  75:/Users/amc/git/libDaisy/src/hid/midi.h ****         uart_config.pin_config.tx = config.tx;
 1567              		.loc 4 75 35 view .LVU382
ARM GAS  /var/folders/83/vwtnzcdn1v99b_lf0k0gsjzr0000gn/T//cc93oyUL.s 			page 43


 1568              	.LBE203:
 1569              	.LBI184:
  62:/Users/amc/git/libDaisy/src/hid/midi.h ****     {
 1570              		.loc 4 62 17 is_stmt 1 view .LVU383
 1571              	.LBB204:
  64:/Users/amc/git/libDaisy/src/hid/midi.h **** 
 1572              		.loc 4 64 9 view .LVU384
 1573              	.LBB196:
 1574              	.LBI186:
  76:/Users/amc/git/libDaisy/src/per/uart.h ****         {
 1575              		.loc 5 76 9 view .LVU385
 1576              	.LBB193:
 1577              	.LBB190:
  79:/Users/amc/git/libDaisy/src/per/uart.h ****             parity     = Parity::NONE;
 1578              		.loc 5 79 13 view .LVU386
  80:/Users/amc/git/libDaisy/src/per/uart.h ****             wordlength = WordLength::BITS_8;
 1579              		.loc 5 80 13 view .LVU387
  81:/Users/amc/git/libDaisy/src/per/uart.h ****             baudrate   = 31250;
 1580              		.loc 5 81 13 view .LVU388
 1581              		.loc 5 82 13 view .LVU389
 1582              		.loc 5 82 13 is_stmt 0 view .LVU390
 1583              	.LBE190:
 1584              	.LBE193:
 1585              	.LBE196:
  67:/Users/amc/git/libDaisy/src/hid/midi.h ****         uart_config.stopbits   = UartHandler::Config::StopBits::BITS_1;
 1586              		.loc 4 67 9 is_stmt 1 view .LVU391
  68:/Users/amc/git/libDaisy/src/hid/midi.h ****         uart_config.parity     = UartHandler::Config::Parity::NONE;
 1587              		.loc 4 68 9 view .LVU392
  69:/Users/amc/git/libDaisy/src/hid/midi.h ****         uart_config.mode       = UartHandler::Config::Mode::TX_RX;
 1588              		.loc 4 69 9 view .LVU393
  70:/Users/amc/git/libDaisy/src/hid/midi.h ****         uart_config.wordlength = UartHandler::Config::WordLength::BITS_8;
 1589              		.loc 4 70 9 view .LVU394
  71:/Users/amc/git/libDaisy/src/hid/midi.h **** 
 1590              		.loc 4 71 9 view .LVU395
  74:/Users/amc/git/libDaisy/src/hid/midi.h ****         uart_config.pin_config.rx = config.rx;
 1591              		.loc 4 74 9 view .LVU396
  76:/Users/amc/git/libDaisy/src/hid/midi.h **** 
 1592              		.loc 4 76 35 is_stmt 0 view .LVU397
 1593 0062 BDF82A30 		ldrh	r3, [sp, #42]
 1594              	.LBB197:
 1595              	.LBB194:
 1596              	.LBB191:
  80:/Users/amc/git/libDaisy/src/per/uart.h ****             wordlength = WordLength::BITS_8;
 1597              		.loc 5 80 24 view .LVU398
 1598 0066 1091     		str	r1, [sp, #64]
 1599              	.LBE191:
 1600              	.LBE194:
 1601              	.LBE197:
  74:/Users/amc/git/libDaisy/src/hid/midi.h ****         uart_config.pin_config.rx = config.rx;
 1602              		.loc 4 74 35 view .LVU399
 1603 0068 0E95     		str	r5, [sp, #56]
  75:/Users/amc/git/libDaisy/src/hid/midi.h ****         uart_config.pin_config.tx = config.tx;
 1604              		.loc 4 75 9 is_stmt 1 view .LVU400
  76:/Users/amc/git/libDaisy/src/hid/midi.h **** 
 1605              		.loc 4 76 9 view .LVU401
  78:/Users/amc/git/libDaisy/src/hid/midi.h ****         rx_buffer_size = config.rx_buffer_size;
 1606              		.loc 4 78 24 is_stmt 0 view .LVU402
ARM GAS  /var/folders/83/vwtnzcdn1v99b_lf0k0gsjzr0000gn/T//cc93oyUL.s 			page 44


 1607 006a C4F8A805 		str	r0, [r4, #1448]
  79:/Users/amc/git/libDaisy/src/hid/midi.h **** 
 1608              		.loc 4 79 24 view .LVU403
 1609 006e C4F8AC25 		str	r2, [r4, #1452]
  76:/Users/amc/git/libDaisy/src/hid/midi.h **** 
 1610              		.loc 4 76 35 view .LVU404
 1611 0072 ADF83430 		strh	r3, [sp, #52]	@ movhi
  78:/Users/amc/git/libDaisy/src/hid/midi.h ****         rx_buffer_size = config.rx_buffer_size;
 1612              		.loc 4 78 9 is_stmt 1 view .LVU405
  79:/Users/amc/git/libDaisy/src/hid/midi.h **** 
 1613              		.loc 4 79 9 view .LVU406
  82:/Users/amc/git/libDaisy/src/hid/midi.h **** 
 1614              		.loc 4 82 9 view .LVU407
 1615              	.LVL137:
 1616              	.LBB198:
 1617              	.LBI198:
 1618              		.file 6 "/Applications/ArmGNUToolchain/13.2.Rel1/arm-none-eabi/arm-none-eabi/include/c++/13.2.1/bi
   1:/Applications/ArmGNUToolchain/13.2.Rel1/arm-none-eabi/arm-none-eabi/include/c++/13.2.1/bits/stl_algobase.h **** // Core algorithmic facilities -*- C++ -*-
   2:/Applications/ArmGNUToolchain/13.2.Rel1/arm-none-eabi/arm-none-eabi/include/c++/13.2.1/bits/stl_algobase.h **** 
   3:/Applications/ArmGNUToolchain/13.2.Rel1/arm-none-eabi/arm-none-eabi/include/c++/13.2.1/bits/stl_algobase.h **** // Copyright (C) 2001-2023 Free Software Foundation, Inc.
   4:/Applications/ArmGNUToolchain/13.2.Rel1/arm-none-eabi/arm-none-eabi/include/c++/13.2.1/bits/stl_algobase.h **** //
   5:/Applications/ArmGNUToolchain/13.2.Rel1/arm-none-eabi/arm-none-eabi/include/c++/13.2.1/bits/stl_algobase.h **** // This file is part of the GNU ISO C++ Library.  This library is free
   6:/Applications/ArmGNUToolchain/13.2.Rel1/arm-none-eabi/arm-none-eabi/include/c++/13.2.1/bits/stl_algobase.h **** // software; you can redistribute it and/or modify it under the
   7:/Applications/ArmGNUToolchain/13.2.Rel1/arm-none-eabi/arm-none-eabi/include/c++/13.2.1/bits/stl_algobase.h **** // terms of the GNU General Public License as published by the
   8:/Applications/ArmGNUToolchain/13.2.Rel1/arm-none-eabi/arm-none-eabi/include/c++/13.2.1/bits/stl_algobase.h **** // Free Software Foundation; either version 3, or (at your option)
   9:/Applications/ArmGNUToolchain/13.2.Rel1/arm-none-eabi/arm-none-eabi/include/c++/13.2.1/bits/stl_algobase.h **** // any later version.
  10:/Applications/ArmGNUToolchain/13.2.Rel1/arm-none-eabi/arm-none-eabi/include/c++/13.2.1/bits/stl_algobase.h **** 
  11:/Applications/ArmGNUToolchain/13.2.Rel1/arm-none-eabi/arm-none-eabi/include/c++/13.2.1/bits/stl_algobase.h **** // This library is distributed in the hope that it will be useful,
  12:/Applications/ArmGNUToolchain/13.2.Rel1/arm-none-eabi/arm-none-eabi/include/c++/13.2.1/bits/stl_algobase.h **** // but WITHOUT ANY WARRANTY; without even the implied warranty of
  13:/Applications/ArmGNUToolchain/13.2.Rel1/arm-none-eabi/arm-none-eabi/include/c++/13.2.1/bits/stl_algobase.h **** // MERCHANTABILITY or FITNESS FOR A PARTICULAR PURPOSE.  See the
  14:/Applications/ArmGNUToolchain/13.2.Rel1/arm-none-eabi/arm-none-eabi/include/c++/13.2.1/bits/stl_algobase.h **** // GNU General Public License for more details.
  15:/Applications/ArmGNUToolchain/13.2.Rel1/arm-none-eabi/arm-none-eabi/include/c++/13.2.1/bits/stl_algobase.h **** 
  16:/Applications/ArmGNUToolchain/13.2.Rel1/arm-none-eabi/arm-none-eabi/include/c++/13.2.1/bits/stl_algobase.h **** // Under Section 7 of GPL version 3, you are granted additional
  17:/Applications/ArmGNUToolchain/13.2.Rel1/arm-none-eabi/arm-none-eabi/include/c++/13.2.1/bits/stl_algobase.h **** // permissions described in the GCC Runtime Library Exception, version
  18:/Applications/ArmGNUToolchain/13.2.Rel1/arm-none-eabi/arm-none-eabi/include/c++/13.2.1/bits/stl_algobase.h **** // 3.1, as published by the Free Software Foundation.
  19:/Applications/ArmGNUToolchain/13.2.Rel1/arm-none-eabi/arm-none-eabi/include/c++/13.2.1/bits/stl_algobase.h **** 
  20:/Applications/ArmGNUToolchain/13.2.Rel1/arm-none-eabi/arm-none-eabi/include/c++/13.2.1/bits/stl_algobase.h **** // You should have received a copy of the GNU General Public License and
  21:/Applications/ArmGNUToolchain/13.2.Rel1/arm-none-eabi/arm-none-eabi/include/c++/13.2.1/bits/stl_algobase.h **** // a copy of the GCC Runtime Library Exception along with this program;
  22:/Applications/ArmGNUToolchain/13.2.Rel1/arm-none-eabi/arm-none-eabi/include/c++/13.2.1/bits/stl_algobase.h **** // see the files COPYING3 and COPYING.RUNTIME respectively.  If not, see
  23:/Applications/ArmGNUToolchain/13.2.Rel1/arm-none-eabi/arm-none-eabi/include/c++/13.2.1/bits/stl_algobase.h **** // <http://www.gnu.org/licenses/>.
  24:/Applications/ArmGNUToolchain/13.2.Rel1/arm-none-eabi/arm-none-eabi/include/c++/13.2.1/bits/stl_algobase.h **** 
  25:/Applications/ArmGNUToolchain/13.2.Rel1/arm-none-eabi/arm-none-eabi/include/c++/13.2.1/bits/stl_algobase.h **** /*
  26:/Applications/ArmGNUToolchain/13.2.Rel1/arm-none-eabi/arm-none-eabi/include/c++/13.2.1/bits/stl_algobase.h ****  *
  27:/Applications/ArmGNUToolchain/13.2.Rel1/arm-none-eabi/arm-none-eabi/include/c++/13.2.1/bits/stl_algobase.h ****  * Copyright (c) 1994
  28:/Applications/ArmGNUToolchain/13.2.Rel1/arm-none-eabi/arm-none-eabi/include/c++/13.2.1/bits/stl_algobase.h ****  * Hewlett-Packard Company
  29:/Applications/ArmGNUToolchain/13.2.Rel1/arm-none-eabi/arm-none-eabi/include/c++/13.2.1/bits/stl_algobase.h ****  *
  30:/Applications/ArmGNUToolchain/13.2.Rel1/arm-none-eabi/arm-none-eabi/include/c++/13.2.1/bits/stl_algobase.h ****  * Permission to use, copy, modify, distribute and sell this software
  31:/Applications/ArmGNUToolchain/13.2.Rel1/arm-none-eabi/arm-none-eabi/include/c++/13.2.1/bits/stl_algobase.h ****  * and its documentation for any purpose is hereby granted without fee,
  32:/Applications/ArmGNUToolchain/13.2.Rel1/arm-none-eabi/arm-none-eabi/include/c++/13.2.1/bits/stl_algobase.h ****  * provided that the above copyright notice appear in all copies and
  33:/Applications/ArmGNUToolchain/13.2.Rel1/arm-none-eabi/arm-none-eabi/include/c++/13.2.1/bits/stl_algobase.h ****  * that both that copyright notice and this permission notice appear
  34:/Applications/ArmGNUToolchain/13.2.Rel1/arm-none-eabi/arm-none-eabi/include/c++/13.2.1/bits/stl_algobase.h ****  * in supporting documentation.  Hewlett-Packard Company makes no
  35:/Applications/ArmGNUToolchain/13.2.Rel1/arm-none-eabi/arm-none-eabi/include/c++/13.2.1/bits/stl_algobase.h ****  * representations about the suitability of this software for any
  36:/Applications/ArmGNUToolchain/13.2.Rel1/arm-none-eabi/arm-none-eabi/include/c++/13.2.1/bits/stl_algobase.h ****  * purpose.  It is provided "as is" without express or implied warranty.
  37:/Applications/ArmGNUToolchain/13.2.Rel1/arm-none-eabi/arm-none-eabi/include/c++/13.2.1/bits/stl_algobase.h ****  *
  38:/Applications/ArmGNUToolchain/13.2.Rel1/arm-none-eabi/arm-none-eabi/include/c++/13.2.1/bits/stl_algobase.h ****  *
  39:/Applications/ArmGNUToolchain/13.2.Rel1/arm-none-eabi/arm-none-eabi/include/c++/13.2.1/bits/stl_algobase.h ****  * Copyright (c) 1996-1998
  40:/Applications/ArmGNUToolchain/13.2.Rel1/arm-none-eabi/arm-none-eabi/include/c++/13.2.1/bits/stl_algobase.h ****  * Silicon Graphics Computer Systems, Inc.
ARM GAS  /var/folders/83/vwtnzcdn1v99b_lf0k0gsjzr0000gn/T//cc93oyUL.s 			page 45


  41:/Applications/ArmGNUToolchain/13.2.Rel1/arm-none-eabi/arm-none-eabi/include/c++/13.2.1/bits/stl_algobase.h ****  *
  42:/Applications/ArmGNUToolchain/13.2.Rel1/arm-none-eabi/arm-none-eabi/include/c++/13.2.1/bits/stl_algobase.h ****  * Permission to use, copy, modify, distribute and sell this software
  43:/Applications/ArmGNUToolchain/13.2.Rel1/arm-none-eabi/arm-none-eabi/include/c++/13.2.1/bits/stl_algobase.h ****  * and its documentation for any purpose is hereby granted without fee,
  44:/Applications/ArmGNUToolchain/13.2.Rel1/arm-none-eabi/arm-none-eabi/include/c++/13.2.1/bits/stl_algobase.h ****  * provided that the above copyright notice appear in all copies and
  45:/Applications/ArmGNUToolchain/13.2.Rel1/arm-none-eabi/arm-none-eabi/include/c++/13.2.1/bits/stl_algobase.h ****  * that both that copyright notice and this permission notice appear
  46:/Applications/ArmGNUToolchain/13.2.Rel1/arm-none-eabi/arm-none-eabi/include/c++/13.2.1/bits/stl_algobase.h ****  * in supporting documentation.  Silicon Graphics makes no
  47:/Applications/ArmGNUToolchain/13.2.Rel1/arm-none-eabi/arm-none-eabi/include/c++/13.2.1/bits/stl_algobase.h ****  * representations about the suitability of this software for any
  48:/Applications/ArmGNUToolchain/13.2.Rel1/arm-none-eabi/arm-none-eabi/include/c++/13.2.1/bits/stl_algobase.h ****  * purpose.  It is provided "as is" without express or implied warranty.
  49:/Applications/ArmGNUToolchain/13.2.Rel1/arm-none-eabi/arm-none-eabi/include/c++/13.2.1/bits/stl_algobase.h ****  */
  50:/Applications/ArmGNUToolchain/13.2.Rel1/arm-none-eabi/arm-none-eabi/include/c++/13.2.1/bits/stl_algobase.h **** 
  51:/Applications/ArmGNUToolchain/13.2.Rel1/arm-none-eabi/arm-none-eabi/include/c++/13.2.1/bits/stl_algobase.h **** /** @file bits/stl_algobase.h
  52:/Applications/ArmGNUToolchain/13.2.Rel1/arm-none-eabi/arm-none-eabi/include/c++/13.2.1/bits/stl_algobase.h ****  *  This is an internal header file, included by other library headers.
  53:/Applications/ArmGNUToolchain/13.2.Rel1/arm-none-eabi/arm-none-eabi/include/c++/13.2.1/bits/stl_algobase.h ****  *  Do not attempt to use it directly. @headername{algorithm}
  54:/Applications/ArmGNUToolchain/13.2.Rel1/arm-none-eabi/arm-none-eabi/include/c++/13.2.1/bits/stl_algobase.h ****  */
  55:/Applications/ArmGNUToolchain/13.2.Rel1/arm-none-eabi/arm-none-eabi/include/c++/13.2.1/bits/stl_algobase.h **** 
  56:/Applications/ArmGNUToolchain/13.2.Rel1/arm-none-eabi/arm-none-eabi/include/c++/13.2.1/bits/stl_algobase.h **** #ifndef _STL_ALGOBASE_H
  57:/Applications/ArmGNUToolchain/13.2.Rel1/arm-none-eabi/arm-none-eabi/include/c++/13.2.1/bits/stl_algobase.h **** #define _STL_ALGOBASE_H 1
  58:/Applications/ArmGNUToolchain/13.2.Rel1/arm-none-eabi/arm-none-eabi/include/c++/13.2.1/bits/stl_algobase.h **** 
  59:/Applications/ArmGNUToolchain/13.2.Rel1/arm-none-eabi/arm-none-eabi/include/c++/13.2.1/bits/stl_algobase.h **** #include <bits/c++config.h>
  60:/Applications/ArmGNUToolchain/13.2.Rel1/arm-none-eabi/arm-none-eabi/include/c++/13.2.1/bits/stl_algobase.h **** #include <bits/functexcept.h>
  61:/Applications/ArmGNUToolchain/13.2.Rel1/arm-none-eabi/arm-none-eabi/include/c++/13.2.1/bits/stl_algobase.h **** #include <bits/cpp_type_traits.h>
  62:/Applications/ArmGNUToolchain/13.2.Rel1/arm-none-eabi/arm-none-eabi/include/c++/13.2.1/bits/stl_algobase.h **** #include <ext/type_traits.h>
  63:/Applications/ArmGNUToolchain/13.2.Rel1/arm-none-eabi/arm-none-eabi/include/c++/13.2.1/bits/stl_algobase.h **** #include <ext/numeric_traits.h>
  64:/Applications/ArmGNUToolchain/13.2.Rel1/arm-none-eabi/arm-none-eabi/include/c++/13.2.1/bits/stl_algobase.h **** #include <bits/stl_pair.h>
  65:/Applications/ArmGNUToolchain/13.2.Rel1/arm-none-eabi/arm-none-eabi/include/c++/13.2.1/bits/stl_algobase.h **** #include <bits/stl_iterator_base_types.h>
  66:/Applications/ArmGNUToolchain/13.2.Rel1/arm-none-eabi/arm-none-eabi/include/c++/13.2.1/bits/stl_algobase.h **** #include <bits/stl_iterator_base_funcs.h>
  67:/Applications/ArmGNUToolchain/13.2.Rel1/arm-none-eabi/arm-none-eabi/include/c++/13.2.1/bits/stl_algobase.h **** #include <bits/stl_iterator.h>
  68:/Applications/ArmGNUToolchain/13.2.Rel1/arm-none-eabi/arm-none-eabi/include/c++/13.2.1/bits/stl_algobase.h **** #include <bits/concept_check.h>
  69:/Applications/ArmGNUToolchain/13.2.Rel1/arm-none-eabi/arm-none-eabi/include/c++/13.2.1/bits/stl_algobase.h **** #include <debug/debug.h>
  70:/Applications/ArmGNUToolchain/13.2.Rel1/arm-none-eabi/arm-none-eabi/include/c++/13.2.1/bits/stl_algobase.h **** #include <bits/move.h> // For std::swap
  71:/Applications/ArmGNUToolchain/13.2.Rel1/arm-none-eabi/arm-none-eabi/include/c++/13.2.1/bits/stl_algobase.h **** #include <bits/predefined_ops.h>
  72:/Applications/ArmGNUToolchain/13.2.Rel1/arm-none-eabi/arm-none-eabi/include/c++/13.2.1/bits/stl_algobase.h **** #if __cplusplus >= 201103L
  73:/Applications/ArmGNUToolchain/13.2.Rel1/arm-none-eabi/arm-none-eabi/include/c++/13.2.1/bits/stl_algobase.h **** # include <type_traits>
  74:/Applications/ArmGNUToolchain/13.2.Rel1/arm-none-eabi/arm-none-eabi/include/c++/13.2.1/bits/stl_algobase.h **** #endif
  75:/Applications/ArmGNUToolchain/13.2.Rel1/arm-none-eabi/arm-none-eabi/include/c++/13.2.1/bits/stl_algobase.h **** #if __cplusplus >= 201402L
  76:/Applications/ArmGNUToolchain/13.2.Rel1/arm-none-eabi/arm-none-eabi/include/c++/13.2.1/bits/stl_algobase.h **** # include <bit> // std::__bit_width
  77:/Applications/ArmGNUToolchain/13.2.Rel1/arm-none-eabi/arm-none-eabi/include/c++/13.2.1/bits/stl_algobase.h **** #endif
  78:/Applications/ArmGNUToolchain/13.2.Rel1/arm-none-eabi/arm-none-eabi/include/c++/13.2.1/bits/stl_algobase.h **** #if __cplusplus >= 202002L
  79:/Applications/ArmGNUToolchain/13.2.Rel1/arm-none-eabi/arm-none-eabi/include/c++/13.2.1/bits/stl_algobase.h **** # include <compare>
  80:/Applications/ArmGNUToolchain/13.2.Rel1/arm-none-eabi/arm-none-eabi/include/c++/13.2.1/bits/stl_algobase.h **** #endif
  81:/Applications/ArmGNUToolchain/13.2.Rel1/arm-none-eabi/arm-none-eabi/include/c++/13.2.1/bits/stl_algobase.h **** 
  82:/Applications/ArmGNUToolchain/13.2.Rel1/arm-none-eabi/arm-none-eabi/include/c++/13.2.1/bits/stl_algobase.h **** namespace std _GLIBCXX_VISIBILITY(default)
  83:/Applications/ArmGNUToolchain/13.2.Rel1/arm-none-eabi/arm-none-eabi/include/c++/13.2.1/bits/stl_algobase.h **** {
  84:/Applications/ArmGNUToolchain/13.2.Rel1/arm-none-eabi/arm-none-eabi/include/c++/13.2.1/bits/stl_algobase.h **** _GLIBCXX_BEGIN_NAMESPACE_VERSION
  85:/Applications/ArmGNUToolchain/13.2.Rel1/arm-none-eabi/arm-none-eabi/include/c++/13.2.1/bits/stl_algobase.h **** 
  86:/Applications/ArmGNUToolchain/13.2.Rel1/arm-none-eabi/arm-none-eabi/include/c++/13.2.1/bits/stl_algobase.h ****   /*
  87:/Applications/ArmGNUToolchain/13.2.Rel1/arm-none-eabi/arm-none-eabi/include/c++/13.2.1/bits/stl_algobase.h ****    * A constexpr wrapper for __builtin_memcmp.
  88:/Applications/ArmGNUToolchain/13.2.Rel1/arm-none-eabi/arm-none-eabi/include/c++/13.2.1/bits/stl_algobase.h ****    * @param __num The number of elements of type _Tp (not bytes).
  89:/Applications/ArmGNUToolchain/13.2.Rel1/arm-none-eabi/arm-none-eabi/include/c++/13.2.1/bits/stl_algobase.h ****    */
  90:/Applications/ArmGNUToolchain/13.2.Rel1/arm-none-eabi/arm-none-eabi/include/c++/13.2.1/bits/stl_algobase.h ****   template<typename _Tp, typename _Up>
  91:/Applications/ArmGNUToolchain/13.2.Rel1/arm-none-eabi/arm-none-eabi/include/c++/13.2.1/bits/stl_algobase.h ****     _GLIBCXX14_CONSTEXPR
  92:/Applications/ArmGNUToolchain/13.2.Rel1/arm-none-eabi/arm-none-eabi/include/c++/13.2.1/bits/stl_algobase.h ****     inline int
  93:/Applications/ArmGNUToolchain/13.2.Rel1/arm-none-eabi/arm-none-eabi/include/c++/13.2.1/bits/stl_algobase.h ****     __memcmp(const _Tp* __first1, const _Up* __first2, size_t __num)
  94:/Applications/ArmGNUToolchain/13.2.Rel1/arm-none-eabi/arm-none-eabi/include/c++/13.2.1/bits/stl_algobase.h ****     {
  95:/Applications/ArmGNUToolchain/13.2.Rel1/arm-none-eabi/arm-none-eabi/include/c++/13.2.1/bits/stl_algobase.h **** #if __cplusplus >= 201103L
  96:/Applications/ArmGNUToolchain/13.2.Rel1/arm-none-eabi/arm-none-eabi/include/c++/13.2.1/bits/stl_algobase.h ****       static_assert(sizeof(_Tp) == sizeof(_Up), "can be compared with memcmp");
  97:/Applications/ArmGNUToolchain/13.2.Rel1/arm-none-eabi/arm-none-eabi/include/c++/13.2.1/bits/stl_algobase.h **** #endif
ARM GAS  /var/folders/83/vwtnzcdn1v99b_lf0k0gsjzr0000gn/T//cc93oyUL.s 			page 46


  98:/Applications/ArmGNUToolchain/13.2.Rel1/arm-none-eabi/arm-none-eabi/include/c++/13.2.1/bits/stl_algobase.h **** #ifdef __cpp_lib_is_constant_evaluated
  99:/Applications/ArmGNUToolchain/13.2.Rel1/arm-none-eabi/arm-none-eabi/include/c++/13.2.1/bits/stl_algobase.h ****       if (std::is_constant_evaluated())
 100:/Applications/ArmGNUToolchain/13.2.Rel1/arm-none-eabi/arm-none-eabi/include/c++/13.2.1/bits/stl_algobase.h **** 	{
 101:/Applications/ArmGNUToolchain/13.2.Rel1/arm-none-eabi/arm-none-eabi/include/c++/13.2.1/bits/stl_algobase.h **** 	  for(; __num > 0; ++__first1, ++__first2, --__num)
 102:/Applications/ArmGNUToolchain/13.2.Rel1/arm-none-eabi/arm-none-eabi/include/c++/13.2.1/bits/stl_algobase.h **** 	    if (*__first1 != *__first2)
 103:/Applications/ArmGNUToolchain/13.2.Rel1/arm-none-eabi/arm-none-eabi/include/c++/13.2.1/bits/stl_algobase.h **** 	      return *__first1 < *__first2 ? -1 : 1;
 104:/Applications/ArmGNUToolchain/13.2.Rel1/arm-none-eabi/arm-none-eabi/include/c++/13.2.1/bits/stl_algobase.h **** 	  return 0;
 105:/Applications/ArmGNUToolchain/13.2.Rel1/arm-none-eabi/arm-none-eabi/include/c++/13.2.1/bits/stl_algobase.h **** 	}
 106:/Applications/ArmGNUToolchain/13.2.Rel1/arm-none-eabi/arm-none-eabi/include/c++/13.2.1/bits/stl_algobase.h ****       else
 107:/Applications/ArmGNUToolchain/13.2.Rel1/arm-none-eabi/arm-none-eabi/include/c++/13.2.1/bits/stl_algobase.h **** #endif
 108:/Applications/ArmGNUToolchain/13.2.Rel1/arm-none-eabi/arm-none-eabi/include/c++/13.2.1/bits/stl_algobase.h **** 	return __builtin_memcmp(__first1, __first2, sizeof(_Tp) * __num);
 109:/Applications/ArmGNUToolchain/13.2.Rel1/arm-none-eabi/arm-none-eabi/include/c++/13.2.1/bits/stl_algobase.h ****     }
 110:/Applications/ArmGNUToolchain/13.2.Rel1/arm-none-eabi/arm-none-eabi/include/c++/13.2.1/bits/stl_algobase.h **** 
 111:/Applications/ArmGNUToolchain/13.2.Rel1/arm-none-eabi/arm-none-eabi/include/c++/13.2.1/bits/stl_algobase.h **** #if __cplusplus < 201103L
 112:/Applications/ArmGNUToolchain/13.2.Rel1/arm-none-eabi/arm-none-eabi/include/c++/13.2.1/bits/stl_algobase.h ****   // See http://gcc.gnu.org/ml/libstdc++/2004-08/msg00167.html: in a
 113:/Applications/ArmGNUToolchain/13.2.Rel1/arm-none-eabi/arm-none-eabi/include/c++/13.2.1/bits/stl_algobase.h ****   // nutshell, we are partially implementing the resolution of DR 187,
 114:/Applications/ArmGNUToolchain/13.2.Rel1/arm-none-eabi/arm-none-eabi/include/c++/13.2.1/bits/stl_algobase.h ****   // when it's safe, i.e., the value_types are equal.
 115:/Applications/ArmGNUToolchain/13.2.Rel1/arm-none-eabi/arm-none-eabi/include/c++/13.2.1/bits/stl_algobase.h ****   template<bool _BoolType>
 116:/Applications/ArmGNUToolchain/13.2.Rel1/arm-none-eabi/arm-none-eabi/include/c++/13.2.1/bits/stl_algobase.h ****     struct __iter_swap
 117:/Applications/ArmGNUToolchain/13.2.Rel1/arm-none-eabi/arm-none-eabi/include/c++/13.2.1/bits/stl_algobase.h ****     {
 118:/Applications/ArmGNUToolchain/13.2.Rel1/arm-none-eabi/arm-none-eabi/include/c++/13.2.1/bits/stl_algobase.h ****       template<typename _ForwardIterator1, typename _ForwardIterator2>
 119:/Applications/ArmGNUToolchain/13.2.Rel1/arm-none-eabi/arm-none-eabi/include/c++/13.2.1/bits/stl_algobase.h **** 	static void
 120:/Applications/ArmGNUToolchain/13.2.Rel1/arm-none-eabi/arm-none-eabi/include/c++/13.2.1/bits/stl_algobase.h **** 	iter_swap(_ForwardIterator1 __a, _ForwardIterator2 __b)
 121:/Applications/ArmGNUToolchain/13.2.Rel1/arm-none-eabi/arm-none-eabi/include/c++/13.2.1/bits/stl_algobase.h **** 	{
 122:/Applications/ArmGNUToolchain/13.2.Rel1/arm-none-eabi/arm-none-eabi/include/c++/13.2.1/bits/stl_algobase.h **** 	  typedef typename iterator_traits<_ForwardIterator1>::value_type
 123:/Applications/ArmGNUToolchain/13.2.Rel1/arm-none-eabi/arm-none-eabi/include/c++/13.2.1/bits/stl_algobase.h **** 	    _ValueType1;
 124:/Applications/ArmGNUToolchain/13.2.Rel1/arm-none-eabi/arm-none-eabi/include/c++/13.2.1/bits/stl_algobase.h **** 	  _ValueType1 __tmp = *__a;
 125:/Applications/ArmGNUToolchain/13.2.Rel1/arm-none-eabi/arm-none-eabi/include/c++/13.2.1/bits/stl_algobase.h **** 	  *__a = *__b;
 126:/Applications/ArmGNUToolchain/13.2.Rel1/arm-none-eabi/arm-none-eabi/include/c++/13.2.1/bits/stl_algobase.h **** 	  *__b = __tmp;
 127:/Applications/ArmGNUToolchain/13.2.Rel1/arm-none-eabi/arm-none-eabi/include/c++/13.2.1/bits/stl_algobase.h **** 	}
 128:/Applications/ArmGNUToolchain/13.2.Rel1/arm-none-eabi/arm-none-eabi/include/c++/13.2.1/bits/stl_algobase.h ****     };
 129:/Applications/ArmGNUToolchain/13.2.Rel1/arm-none-eabi/arm-none-eabi/include/c++/13.2.1/bits/stl_algobase.h **** 
 130:/Applications/ArmGNUToolchain/13.2.Rel1/arm-none-eabi/arm-none-eabi/include/c++/13.2.1/bits/stl_algobase.h ****   template<>
 131:/Applications/ArmGNUToolchain/13.2.Rel1/arm-none-eabi/arm-none-eabi/include/c++/13.2.1/bits/stl_algobase.h ****     struct __iter_swap<true>
 132:/Applications/ArmGNUToolchain/13.2.Rel1/arm-none-eabi/arm-none-eabi/include/c++/13.2.1/bits/stl_algobase.h ****     {
 133:/Applications/ArmGNUToolchain/13.2.Rel1/arm-none-eabi/arm-none-eabi/include/c++/13.2.1/bits/stl_algobase.h ****       template<typename _ForwardIterator1, typename _ForwardIterator2>
 134:/Applications/ArmGNUToolchain/13.2.Rel1/arm-none-eabi/arm-none-eabi/include/c++/13.2.1/bits/stl_algobase.h **** 	static void
 135:/Applications/ArmGNUToolchain/13.2.Rel1/arm-none-eabi/arm-none-eabi/include/c++/13.2.1/bits/stl_algobase.h **** 	iter_swap(_ForwardIterator1 __a, _ForwardIterator2 __b)
 136:/Applications/ArmGNUToolchain/13.2.Rel1/arm-none-eabi/arm-none-eabi/include/c++/13.2.1/bits/stl_algobase.h **** 	{
 137:/Applications/ArmGNUToolchain/13.2.Rel1/arm-none-eabi/arm-none-eabi/include/c++/13.2.1/bits/stl_algobase.h **** 	  swap(*__a, *__b);
 138:/Applications/ArmGNUToolchain/13.2.Rel1/arm-none-eabi/arm-none-eabi/include/c++/13.2.1/bits/stl_algobase.h **** 	}
 139:/Applications/ArmGNUToolchain/13.2.Rel1/arm-none-eabi/arm-none-eabi/include/c++/13.2.1/bits/stl_algobase.h ****     };
 140:/Applications/ArmGNUToolchain/13.2.Rel1/arm-none-eabi/arm-none-eabi/include/c++/13.2.1/bits/stl_algobase.h **** #endif // C++03
 141:/Applications/ArmGNUToolchain/13.2.Rel1/arm-none-eabi/arm-none-eabi/include/c++/13.2.1/bits/stl_algobase.h **** 
 142:/Applications/ArmGNUToolchain/13.2.Rel1/arm-none-eabi/arm-none-eabi/include/c++/13.2.1/bits/stl_algobase.h ****   /**
 143:/Applications/ArmGNUToolchain/13.2.Rel1/arm-none-eabi/arm-none-eabi/include/c++/13.2.1/bits/stl_algobase.h ****    *  @brief Swaps the contents of two iterators.
 144:/Applications/ArmGNUToolchain/13.2.Rel1/arm-none-eabi/arm-none-eabi/include/c++/13.2.1/bits/stl_algobase.h ****    *  @ingroup mutating_algorithms
 145:/Applications/ArmGNUToolchain/13.2.Rel1/arm-none-eabi/arm-none-eabi/include/c++/13.2.1/bits/stl_algobase.h ****    *  @param  __a  An iterator.
 146:/Applications/ArmGNUToolchain/13.2.Rel1/arm-none-eabi/arm-none-eabi/include/c++/13.2.1/bits/stl_algobase.h ****    *  @param  __b  Another iterator.
 147:/Applications/ArmGNUToolchain/13.2.Rel1/arm-none-eabi/arm-none-eabi/include/c++/13.2.1/bits/stl_algobase.h ****    *  @return   Nothing.
 148:/Applications/ArmGNUToolchain/13.2.Rel1/arm-none-eabi/arm-none-eabi/include/c++/13.2.1/bits/stl_algobase.h ****    *
 149:/Applications/ArmGNUToolchain/13.2.Rel1/arm-none-eabi/arm-none-eabi/include/c++/13.2.1/bits/stl_algobase.h ****    *  This function swaps the values pointed to by two iterators, not the
 150:/Applications/ArmGNUToolchain/13.2.Rel1/arm-none-eabi/arm-none-eabi/include/c++/13.2.1/bits/stl_algobase.h ****    *  iterators themselves.
 151:/Applications/ArmGNUToolchain/13.2.Rel1/arm-none-eabi/arm-none-eabi/include/c++/13.2.1/bits/stl_algobase.h ****   */
 152:/Applications/ArmGNUToolchain/13.2.Rel1/arm-none-eabi/arm-none-eabi/include/c++/13.2.1/bits/stl_algobase.h ****   template<typename _ForwardIterator1, typename _ForwardIterator2>
 153:/Applications/ArmGNUToolchain/13.2.Rel1/arm-none-eabi/arm-none-eabi/include/c++/13.2.1/bits/stl_algobase.h ****     _GLIBCXX20_CONSTEXPR
 154:/Applications/ArmGNUToolchain/13.2.Rel1/arm-none-eabi/arm-none-eabi/include/c++/13.2.1/bits/stl_algobase.h ****     inline void
ARM GAS  /var/folders/83/vwtnzcdn1v99b_lf0k0gsjzr0000gn/T//cc93oyUL.s 			page 47


 155:/Applications/ArmGNUToolchain/13.2.Rel1/arm-none-eabi/arm-none-eabi/include/c++/13.2.1/bits/stl_algobase.h ****     iter_swap(_ForwardIterator1 __a, _ForwardIterator2 __b)
 156:/Applications/ArmGNUToolchain/13.2.Rel1/arm-none-eabi/arm-none-eabi/include/c++/13.2.1/bits/stl_algobase.h ****     {
 157:/Applications/ArmGNUToolchain/13.2.Rel1/arm-none-eabi/arm-none-eabi/include/c++/13.2.1/bits/stl_algobase.h ****       // concept requirements
 158:/Applications/ArmGNUToolchain/13.2.Rel1/arm-none-eabi/arm-none-eabi/include/c++/13.2.1/bits/stl_algobase.h ****       __glibcxx_function_requires(_Mutable_ForwardIteratorConcept<
 159:/Applications/ArmGNUToolchain/13.2.Rel1/arm-none-eabi/arm-none-eabi/include/c++/13.2.1/bits/stl_algobase.h **** 				  _ForwardIterator1>)
 160:/Applications/ArmGNUToolchain/13.2.Rel1/arm-none-eabi/arm-none-eabi/include/c++/13.2.1/bits/stl_algobase.h ****       __glibcxx_function_requires(_Mutable_ForwardIteratorConcept<
 161:/Applications/ArmGNUToolchain/13.2.Rel1/arm-none-eabi/arm-none-eabi/include/c++/13.2.1/bits/stl_algobase.h **** 				  _ForwardIterator2>)
 162:/Applications/ArmGNUToolchain/13.2.Rel1/arm-none-eabi/arm-none-eabi/include/c++/13.2.1/bits/stl_algobase.h **** 
 163:/Applications/ArmGNUToolchain/13.2.Rel1/arm-none-eabi/arm-none-eabi/include/c++/13.2.1/bits/stl_algobase.h **** #if __cplusplus < 201103L
 164:/Applications/ArmGNUToolchain/13.2.Rel1/arm-none-eabi/arm-none-eabi/include/c++/13.2.1/bits/stl_algobase.h ****       typedef typename iterator_traits<_ForwardIterator1>::value_type
 165:/Applications/ArmGNUToolchain/13.2.Rel1/arm-none-eabi/arm-none-eabi/include/c++/13.2.1/bits/stl_algobase.h **** 	_ValueType1;
 166:/Applications/ArmGNUToolchain/13.2.Rel1/arm-none-eabi/arm-none-eabi/include/c++/13.2.1/bits/stl_algobase.h ****       typedef typename iterator_traits<_ForwardIterator2>::value_type
 167:/Applications/ArmGNUToolchain/13.2.Rel1/arm-none-eabi/arm-none-eabi/include/c++/13.2.1/bits/stl_algobase.h **** 	_ValueType2;
 168:/Applications/ArmGNUToolchain/13.2.Rel1/arm-none-eabi/arm-none-eabi/include/c++/13.2.1/bits/stl_algobase.h **** 
 169:/Applications/ArmGNUToolchain/13.2.Rel1/arm-none-eabi/arm-none-eabi/include/c++/13.2.1/bits/stl_algobase.h ****       __glibcxx_function_requires(_ConvertibleConcept<_ValueType1,
 170:/Applications/ArmGNUToolchain/13.2.Rel1/arm-none-eabi/arm-none-eabi/include/c++/13.2.1/bits/stl_algobase.h **** 				  _ValueType2>)
 171:/Applications/ArmGNUToolchain/13.2.Rel1/arm-none-eabi/arm-none-eabi/include/c++/13.2.1/bits/stl_algobase.h ****       __glibcxx_function_requires(_ConvertibleConcept<_ValueType2,
 172:/Applications/ArmGNUToolchain/13.2.Rel1/arm-none-eabi/arm-none-eabi/include/c++/13.2.1/bits/stl_algobase.h **** 				  _ValueType1>)
 173:/Applications/ArmGNUToolchain/13.2.Rel1/arm-none-eabi/arm-none-eabi/include/c++/13.2.1/bits/stl_algobase.h **** 
 174:/Applications/ArmGNUToolchain/13.2.Rel1/arm-none-eabi/arm-none-eabi/include/c++/13.2.1/bits/stl_algobase.h ****       typedef typename iterator_traits<_ForwardIterator1>::reference
 175:/Applications/ArmGNUToolchain/13.2.Rel1/arm-none-eabi/arm-none-eabi/include/c++/13.2.1/bits/stl_algobase.h **** 	_ReferenceType1;
 176:/Applications/ArmGNUToolchain/13.2.Rel1/arm-none-eabi/arm-none-eabi/include/c++/13.2.1/bits/stl_algobase.h ****       typedef typename iterator_traits<_ForwardIterator2>::reference
 177:/Applications/ArmGNUToolchain/13.2.Rel1/arm-none-eabi/arm-none-eabi/include/c++/13.2.1/bits/stl_algobase.h **** 	_ReferenceType2;
 178:/Applications/ArmGNUToolchain/13.2.Rel1/arm-none-eabi/arm-none-eabi/include/c++/13.2.1/bits/stl_algobase.h ****       std::__iter_swap<__are_same<_ValueType1, _ValueType2>::__value
 179:/Applications/ArmGNUToolchain/13.2.Rel1/arm-none-eabi/arm-none-eabi/include/c++/13.2.1/bits/stl_algobase.h **** 	&& __are_same<_ValueType1&, _ReferenceType1>::__value
 180:/Applications/ArmGNUToolchain/13.2.Rel1/arm-none-eabi/arm-none-eabi/include/c++/13.2.1/bits/stl_algobase.h **** 	&& __are_same<_ValueType2&, _ReferenceType2>::__value>::
 181:/Applications/ArmGNUToolchain/13.2.Rel1/arm-none-eabi/arm-none-eabi/include/c++/13.2.1/bits/stl_algobase.h **** 	iter_swap(__a, __b);
 182:/Applications/ArmGNUToolchain/13.2.Rel1/arm-none-eabi/arm-none-eabi/include/c++/13.2.1/bits/stl_algobase.h **** #else
 183:/Applications/ArmGNUToolchain/13.2.Rel1/arm-none-eabi/arm-none-eabi/include/c++/13.2.1/bits/stl_algobase.h ****       // _GLIBCXX_RESOLVE_LIB_DEFECTS
 184:/Applications/ArmGNUToolchain/13.2.Rel1/arm-none-eabi/arm-none-eabi/include/c++/13.2.1/bits/stl_algobase.h ****       // 187. iter_swap underspecified
 185:/Applications/ArmGNUToolchain/13.2.Rel1/arm-none-eabi/arm-none-eabi/include/c++/13.2.1/bits/stl_algobase.h ****       swap(*__a, *__b);
 186:/Applications/ArmGNUToolchain/13.2.Rel1/arm-none-eabi/arm-none-eabi/include/c++/13.2.1/bits/stl_algobase.h **** #endif
 187:/Applications/ArmGNUToolchain/13.2.Rel1/arm-none-eabi/arm-none-eabi/include/c++/13.2.1/bits/stl_algobase.h ****     }
 188:/Applications/ArmGNUToolchain/13.2.Rel1/arm-none-eabi/arm-none-eabi/include/c++/13.2.1/bits/stl_algobase.h **** 
 189:/Applications/ArmGNUToolchain/13.2.Rel1/arm-none-eabi/arm-none-eabi/include/c++/13.2.1/bits/stl_algobase.h ****   /**
 190:/Applications/ArmGNUToolchain/13.2.Rel1/arm-none-eabi/arm-none-eabi/include/c++/13.2.1/bits/stl_algobase.h ****    *  @brief Swap the elements of two sequences.
 191:/Applications/ArmGNUToolchain/13.2.Rel1/arm-none-eabi/arm-none-eabi/include/c++/13.2.1/bits/stl_algobase.h ****    *  @ingroup mutating_algorithms
 192:/Applications/ArmGNUToolchain/13.2.Rel1/arm-none-eabi/arm-none-eabi/include/c++/13.2.1/bits/stl_algobase.h ****    *  @param  __first1  A forward iterator.
 193:/Applications/ArmGNUToolchain/13.2.Rel1/arm-none-eabi/arm-none-eabi/include/c++/13.2.1/bits/stl_algobase.h ****    *  @param  __last1   A forward iterator.
 194:/Applications/ArmGNUToolchain/13.2.Rel1/arm-none-eabi/arm-none-eabi/include/c++/13.2.1/bits/stl_algobase.h ****    *  @param  __first2  A forward iterator.
 195:/Applications/ArmGNUToolchain/13.2.Rel1/arm-none-eabi/arm-none-eabi/include/c++/13.2.1/bits/stl_algobase.h ****    *  @return   An iterator equal to @p first2+(last1-first1).
 196:/Applications/ArmGNUToolchain/13.2.Rel1/arm-none-eabi/arm-none-eabi/include/c++/13.2.1/bits/stl_algobase.h ****    *
 197:/Applications/ArmGNUToolchain/13.2.Rel1/arm-none-eabi/arm-none-eabi/include/c++/13.2.1/bits/stl_algobase.h ****    *  Swaps each element in the range @p [first1,last1) with the
 198:/Applications/ArmGNUToolchain/13.2.Rel1/arm-none-eabi/arm-none-eabi/include/c++/13.2.1/bits/stl_algobase.h ****    *  corresponding element in the range @p [first2,(last1-first1)).
 199:/Applications/ArmGNUToolchain/13.2.Rel1/arm-none-eabi/arm-none-eabi/include/c++/13.2.1/bits/stl_algobase.h ****    *  The ranges must not overlap.
 200:/Applications/ArmGNUToolchain/13.2.Rel1/arm-none-eabi/arm-none-eabi/include/c++/13.2.1/bits/stl_algobase.h ****   */
 201:/Applications/ArmGNUToolchain/13.2.Rel1/arm-none-eabi/arm-none-eabi/include/c++/13.2.1/bits/stl_algobase.h ****   template<typename _ForwardIterator1, typename _ForwardIterator2>
 202:/Applications/ArmGNUToolchain/13.2.Rel1/arm-none-eabi/arm-none-eabi/include/c++/13.2.1/bits/stl_algobase.h ****     _GLIBCXX20_CONSTEXPR
 203:/Applications/ArmGNUToolchain/13.2.Rel1/arm-none-eabi/arm-none-eabi/include/c++/13.2.1/bits/stl_algobase.h ****     _ForwardIterator2
 204:/Applications/ArmGNUToolchain/13.2.Rel1/arm-none-eabi/arm-none-eabi/include/c++/13.2.1/bits/stl_algobase.h ****     swap_ranges(_ForwardIterator1 __first1, _ForwardIterator1 __last1,
 205:/Applications/ArmGNUToolchain/13.2.Rel1/arm-none-eabi/arm-none-eabi/include/c++/13.2.1/bits/stl_algobase.h **** 		_ForwardIterator2 __first2)
 206:/Applications/ArmGNUToolchain/13.2.Rel1/arm-none-eabi/arm-none-eabi/include/c++/13.2.1/bits/stl_algobase.h ****     {
 207:/Applications/ArmGNUToolchain/13.2.Rel1/arm-none-eabi/arm-none-eabi/include/c++/13.2.1/bits/stl_algobase.h ****       // concept requirements
 208:/Applications/ArmGNUToolchain/13.2.Rel1/arm-none-eabi/arm-none-eabi/include/c++/13.2.1/bits/stl_algobase.h ****       __glibcxx_function_requires(_Mutable_ForwardIteratorConcept<
 209:/Applications/ArmGNUToolchain/13.2.Rel1/arm-none-eabi/arm-none-eabi/include/c++/13.2.1/bits/stl_algobase.h **** 				  _ForwardIterator1>)
 210:/Applications/ArmGNUToolchain/13.2.Rel1/arm-none-eabi/arm-none-eabi/include/c++/13.2.1/bits/stl_algobase.h ****       __glibcxx_function_requires(_Mutable_ForwardIteratorConcept<
 211:/Applications/ArmGNUToolchain/13.2.Rel1/arm-none-eabi/arm-none-eabi/include/c++/13.2.1/bits/stl_algobase.h **** 				  _ForwardIterator2>)
ARM GAS  /var/folders/83/vwtnzcdn1v99b_lf0k0gsjzr0000gn/T//cc93oyUL.s 			page 48


 212:/Applications/ArmGNUToolchain/13.2.Rel1/arm-none-eabi/arm-none-eabi/include/c++/13.2.1/bits/stl_algobase.h ****       __glibcxx_requires_valid_range(__first1, __last1);
 213:/Applications/ArmGNUToolchain/13.2.Rel1/arm-none-eabi/arm-none-eabi/include/c++/13.2.1/bits/stl_algobase.h **** 
 214:/Applications/ArmGNUToolchain/13.2.Rel1/arm-none-eabi/arm-none-eabi/include/c++/13.2.1/bits/stl_algobase.h ****       for (; __first1 != __last1; ++__first1, (void)++__first2)
 215:/Applications/ArmGNUToolchain/13.2.Rel1/arm-none-eabi/arm-none-eabi/include/c++/13.2.1/bits/stl_algobase.h **** 	std::iter_swap(__first1, __first2);
 216:/Applications/ArmGNUToolchain/13.2.Rel1/arm-none-eabi/arm-none-eabi/include/c++/13.2.1/bits/stl_algobase.h ****       return __first2;
 217:/Applications/ArmGNUToolchain/13.2.Rel1/arm-none-eabi/arm-none-eabi/include/c++/13.2.1/bits/stl_algobase.h ****     }
 218:/Applications/ArmGNUToolchain/13.2.Rel1/arm-none-eabi/arm-none-eabi/include/c++/13.2.1/bits/stl_algobase.h **** 
 219:/Applications/ArmGNUToolchain/13.2.Rel1/arm-none-eabi/arm-none-eabi/include/c++/13.2.1/bits/stl_algobase.h ****   /**
 220:/Applications/ArmGNUToolchain/13.2.Rel1/arm-none-eabi/arm-none-eabi/include/c++/13.2.1/bits/stl_algobase.h ****    *  @brief This does what you think it does.
 221:/Applications/ArmGNUToolchain/13.2.Rel1/arm-none-eabi/arm-none-eabi/include/c++/13.2.1/bits/stl_algobase.h ****    *  @ingroup sorting_algorithms
 222:/Applications/ArmGNUToolchain/13.2.Rel1/arm-none-eabi/arm-none-eabi/include/c++/13.2.1/bits/stl_algobase.h ****    *  @param  __a  A thing of arbitrary type.
 223:/Applications/ArmGNUToolchain/13.2.Rel1/arm-none-eabi/arm-none-eabi/include/c++/13.2.1/bits/stl_algobase.h ****    *  @param  __b  Another thing of arbitrary type.
 224:/Applications/ArmGNUToolchain/13.2.Rel1/arm-none-eabi/arm-none-eabi/include/c++/13.2.1/bits/stl_algobase.h ****    *  @return   The lesser of the parameters.
 225:/Applications/ArmGNUToolchain/13.2.Rel1/arm-none-eabi/arm-none-eabi/include/c++/13.2.1/bits/stl_algobase.h ****    *
 226:/Applications/ArmGNUToolchain/13.2.Rel1/arm-none-eabi/arm-none-eabi/include/c++/13.2.1/bits/stl_algobase.h ****    *  This is the simple classic generic implementation.  It will work on
 227:/Applications/ArmGNUToolchain/13.2.Rel1/arm-none-eabi/arm-none-eabi/include/c++/13.2.1/bits/stl_algobase.h ****    *  temporary expressions, since they are only evaluated once, unlike a
 228:/Applications/ArmGNUToolchain/13.2.Rel1/arm-none-eabi/arm-none-eabi/include/c++/13.2.1/bits/stl_algobase.h ****    *  preprocessor macro.
 229:/Applications/ArmGNUToolchain/13.2.Rel1/arm-none-eabi/arm-none-eabi/include/c++/13.2.1/bits/stl_algobase.h ****   */
 230:/Applications/ArmGNUToolchain/13.2.Rel1/arm-none-eabi/arm-none-eabi/include/c++/13.2.1/bits/stl_algobase.h ****   template<typename _Tp>
 231:/Applications/ArmGNUToolchain/13.2.Rel1/arm-none-eabi/arm-none-eabi/include/c++/13.2.1/bits/stl_algobase.h ****     _GLIBCXX14_CONSTEXPR
 232:/Applications/ArmGNUToolchain/13.2.Rel1/arm-none-eabi/arm-none-eabi/include/c++/13.2.1/bits/stl_algobase.h ****     inline const _Tp&
 233:/Applications/ArmGNUToolchain/13.2.Rel1/arm-none-eabi/arm-none-eabi/include/c++/13.2.1/bits/stl_algobase.h ****     min(const _Tp& __a, const _Tp& __b)
 234:/Applications/ArmGNUToolchain/13.2.Rel1/arm-none-eabi/arm-none-eabi/include/c++/13.2.1/bits/stl_algobase.h ****     {
 235:/Applications/ArmGNUToolchain/13.2.Rel1/arm-none-eabi/arm-none-eabi/include/c++/13.2.1/bits/stl_algobase.h ****       // concept requirements
 236:/Applications/ArmGNUToolchain/13.2.Rel1/arm-none-eabi/arm-none-eabi/include/c++/13.2.1/bits/stl_algobase.h ****       __glibcxx_function_requires(_LessThanComparableConcept<_Tp>)
 237:/Applications/ArmGNUToolchain/13.2.Rel1/arm-none-eabi/arm-none-eabi/include/c++/13.2.1/bits/stl_algobase.h ****       //return __b < __a ? __b : __a;
 238:/Applications/ArmGNUToolchain/13.2.Rel1/arm-none-eabi/arm-none-eabi/include/c++/13.2.1/bits/stl_algobase.h ****       if (__b < __a)
 239:/Applications/ArmGNUToolchain/13.2.Rel1/arm-none-eabi/arm-none-eabi/include/c++/13.2.1/bits/stl_algobase.h **** 	return __b;
 240:/Applications/ArmGNUToolchain/13.2.Rel1/arm-none-eabi/arm-none-eabi/include/c++/13.2.1/bits/stl_algobase.h ****       return __a;
 241:/Applications/ArmGNUToolchain/13.2.Rel1/arm-none-eabi/arm-none-eabi/include/c++/13.2.1/bits/stl_algobase.h ****     }
 242:/Applications/ArmGNUToolchain/13.2.Rel1/arm-none-eabi/arm-none-eabi/include/c++/13.2.1/bits/stl_algobase.h **** 
 243:/Applications/ArmGNUToolchain/13.2.Rel1/arm-none-eabi/arm-none-eabi/include/c++/13.2.1/bits/stl_algobase.h ****   /**
 244:/Applications/ArmGNUToolchain/13.2.Rel1/arm-none-eabi/arm-none-eabi/include/c++/13.2.1/bits/stl_algobase.h ****    *  @brief This does what you think it does.
 245:/Applications/ArmGNUToolchain/13.2.Rel1/arm-none-eabi/arm-none-eabi/include/c++/13.2.1/bits/stl_algobase.h ****    *  @ingroup sorting_algorithms
 246:/Applications/ArmGNUToolchain/13.2.Rel1/arm-none-eabi/arm-none-eabi/include/c++/13.2.1/bits/stl_algobase.h ****    *  @param  __a  A thing of arbitrary type.
 247:/Applications/ArmGNUToolchain/13.2.Rel1/arm-none-eabi/arm-none-eabi/include/c++/13.2.1/bits/stl_algobase.h ****    *  @param  __b  Another thing of arbitrary type.
 248:/Applications/ArmGNUToolchain/13.2.Rel1/arm-none-eabi/arm-none-eabi/include/c++/13.2.1/bits/stl_algobase.h ****    *  @return   The greater of the parameters.
 249:/Applications/ArmGNUToolchain/13.2.Rel1/arm-none-eabi/arm-none-eabi/include/c++/13.2.1/bits/stl_algobase.h ****    *
 250:/Applications/ArmGNUToolchain/13.2.Rel1/arm-none-eabi/arm-none-eabi/include/c++/13.2.1/bits/stl_algobase.h ****    *  This is the simple classic generic implementation.  It will work on
 251:/Applications/ArmGNUToolchain/13.2.Rel1/arm-none-eabi/arm-none-eabi/include/c++/13.2.1/bits/stl_algobase.h ****    *  temporary expressions, since they are only evaluated once, unlike a
 252:/Applications/ArmGNUToolchain/13.2.Rel1/arm-none-eabi/arm-none-eabi/include/c++/13.2.1/bits/stl_algobase.h ****    *  preprocessor macro.
 253:/Applications/ArmGNUToolchain/13.2.Rel1/arm-none-eabi/arm-none-eabi/include/c++/13.2.1/bits/stl_algobase.h ****   */
 254:/Applications/ArmGNUToolchain/13.2.Rel1/arm-none-eabi/arm-none-eabi/include/c++/13.2.1/bits/stl_algobase.h ****   template<typename _Tp>
 255:/Applications/ArmGNUToolchain/13.2.Rel1/arm-none-eabi/arm-none-eabi/include/c++/13.2.1/bits/stl_algobase.h ****     _GLIBCXX14_CONSTEXPR
 256:/Applications/ArmGNUToolchain/13.2.Rel1/arm-none-eabi/arm-none-eabi/include/c++/13.2.1/bits/stl_algobase.h ****     inline const _Tp&
 257:/Applications/ArmGNUToolchain/13.2.Rel1/arm-none-eabi/arm-none-eabi/include/c++/13.2.1/bits/stl_algobase.h ****     max(const _Tp& __a, const _Tp& __b)
 258:/Applications/ArmGNUToolchain/13.2.Rel1/arm-none-eabi/arm-none-eabi/include/c++/13.2.1/bits/stl_algobase.h ****     {
 259:/Applications/ArmGNUToolchain/13.2.Rel1/arm-none-eabi/arm-none-eabi/include/c++/13.2.1/bits/stl_algobase.h ****       // concept requirements
 260:/Applications/ArmGNUToolchain/13.2.Rel1/arm-none-eabi/arm-none-eabi/include/c++/13.2.1/bits/stl_algobase.h ****       __glibcxx_function_requires(_LessThanComparableConcept<_Tp>)
 261:/Applications/ArmGNUToolchain/13.2.Rel1/arm-none-eabi/arm-none-eabi/include/c++/13.2.1/bits/stl_algobase.h ****       //return  __a < __b ? __b : __a;
 262:/Applications/ArmGNUToolchain/13.2.Rel1/arm-none-eabi/arm-none-eabi/include/c++/13.2.1/bits/stl_algobase.h ****       if (__a < __b)
 263:/Applications/ArmGNUToolchain/13.2.Rel1/arm-none-eabi/arm-none-eabi/include/c++/13.2.1/bits/stl_algobase.h **** 	return __b;
 264:/Applications/ArmGNUToolchain/13.2.Rel1/arm-none-eabi/arm-none-eabi/include/c++/13.2.1/bits/stl_algobase.h ****       return __a;
 265:/Applications/ArmGNUToolchain/13.2.Rel1/arm-none-eabi/arm-none-eabi/include/c++/13.2.1/bits/stl_algobase.h ****     }
 266:/Applications/ArmGNUToolchain/13.2.Rel1/arm-none-eabi/arm-none-eabi/include/c++/13.2.1/bits/stl_algobase.h **** 
 267:/Applications/ArmGNUToolchain/13.2.Rel1/arm-none-eabi/arm-none-eabi/include/c++/13.2.1/bits/stl_algobase.h ****   /**
 268:/Applications/ArmGNUToolchain/13.2.Rel1/arm-none-eabi/arm-none-eabi/include/c++/13.2.1/bits/stl_algobase.h ****    *  @brief This does what you think it does.
ARM GAS  /var/folders/83/vwtnzcdn1v99b_lf0k0gsjzr0000gn/T//cc93oyUL.s 			page 49


 269:/Applications/ArmGNUToolchain/13.2.Rel1/arm-none-eabi/arm-none-eabi/include/c++/13.2.1/bits/stl_algobase.h ****    *  @ingroup sorting_algorithms
 270:/Applications/ArmGNUToolchain/13.2.Rel1/arm-none-eabi/arm-none-eabi/include/c++/13.2.1/bits/stl_algobase.h ****    *  @param  __a  A thing of arbitrary type.
 271:/Applications/ArmGNUToolchain/13.2.Rel1/arm-none-eabi/arm-none-eabi/include/c++/13.2.1/bits/stl_algobase.h ****    *  @param  __b  Another thing of arbitrary type.
 272:/Applications/ArmGNUToolchain/13.2.Rel1/arm-none-eabi/arm-none-eabi/include/c++/13.2.1/bits/stl_algobase.h ****    *  @param  __comp  A @link comparison_functors comparison functor@endlink.
 273:/Applications/ArmGNUToolchain/13.2.Rel1/arm-none-eabi/arm-none-eabi/include/c++/13.2.1/bits/stl_algobase.h ****    *  @return   The lesser of the parameters.
 274:/Applications/ArmGNUToolchain/13.2.Rel1/arm-none-eabi/arm-none-eabi/include/c++/13.2.1/bits/stl_algobase.h ****    *
 275:/Applications/ArmGNUToolchain/13.2.Rel1/arm-none-eabi/arm-none-eabi/include/c++/13.2.1/bits/stl_algobase.h ****    *  This will work on temporary expressions, since they are only evaluated
 276:/Applications/ArmGNUToolchain/13.2.Rel1/arm-none-eabi/arm-none-eabi/include/c++/13.2.1/bits/stl_algobase.h ****    *  once, unlike a preprocessor macro.
 277:/Applications/ArmGNUToolchain/13.2.Rel1/arm-none-eabi/arm-none-eabi/include/c++/13.2.1/bits/stl_algobase.h ****   */
 278:/Applications/ArmGNUToolchain/13.2.Rel1/arm-none-eabi/arm-none-eabi/include/c++/13.2.1/bits/stl_algobase.h ****   template<typename _Tp, typename _Compare>
 279:/Applications/ArmGNUToolchain/13.2.Rel1/arm-none-eabi/arm-none-eabi/include/c++/13.2.1/bits/stl_algobase.h ****     _GLIBCXX14_CONSTEXPR
 280:/Applications/ArmGNUToolchain/13.2.Rel1/arm-none-eabi/arm-none-eabi/include/c++/13.2.1/bits/stl_algobase.h ****     inline const _Tp&
 281:/Applications/ArmGNUToolchain/13.2.Rel1/arm-none-eabi/arm-none-eabi/include/c++/13.2.1/bits/stl_algobase.h ****     min(const _Tp& __a, const _Tp& __b, _Compare __comp)
 282:/Applications/ArmGNUToolchain/13.2.Rel1/arm-none-eabi/arm-none-eabi/include/c++/13.2.1/bits/stl_algobase.h ****     {
 283:/Applications/ArmGNUToolchain/13.2.Rel1/arm-none-eabi/arm-none-eabi/include/c++/13.2.1/bits/stl_algobase.h ****       //return __comp(__b, __a) ? __b : __a;
 284:/Applications/ArmGNUToolchain/13.2.Rel1/arm-none-eabi/arm-none-eabi/include/c++/13.2.1/bits/stl_algobase.h ****       if (__comp(__b, __a))
 285:/Applications/ArmGNUToolchain/13.2.Rel1/arm-none-eabi/arm-none-eabi/include/c++/13.2.1/bits/stl_algobase.h **** 	return __b;
 286:/Applications/ArmGNUToolchain/13.2.Rel1/arm-none-eabi/arm-none-eabi/include/c++/13.2.1/bits/stl_algobase.h ****       return __a;
 287:/Applications/ArmGNUToolchain/13.2.Rel1/arm-none-eabi/arm-none-eabi/include/c++/13.2.1/bits/stl_algobase.h ****     }
 288:/Applications/ArmGNUToolchain/13.2.Rel1/arm-none-eabi/arm-none-eabi/include/c++/13.2.1/bits/stl_algobase.h **** 
 289:/Applications/ArmGNUToolchain/13.2.Rel1/arm-none-eabi/arm-none-eabi/include/c++/13.2.1/bits/stl_algobase.h ****   /**
 290:/Applications/ArmGNUToolchain/13.2.Rel1/arm-none-eabi/arm-none-eabi/include/c++/13.2.1/bits/stl_algobase.h ****    *  @brief This does what you think it does.
 291:/Applications/ArmGNUToolchain/13.2.Rel1/arm-none-eabi/arm-none-eabi/include/c++/13.2.1/bits/stl_algobase.h ****    *  @ingroup sorting_algorithms
 292:/Applications/ArmGNUToolchain/13.2.Rel1/arm-none-eabi/arm-none-eabi/include/c++/13.2.1/bits/stl_algobase.h ****    *  @param  __a  A thing of arbitrary type.
 293:/Applications/ArmGNUToolchain/13.2.Rel1/arm-none-eabi/arm-none-eabi/include/c++/13.2.1/bits/stl_algobase.h ****    *  @param  __b  Another thing of arbitrary type.
 294:/Applications/ArmGNUToolchain/13.2.Rel1/arm-none-eabi/arm-none-eabi/include/c++/13.2.1/bits/stl_algobase.h ****    *  @param  __comp  A @link comparison_functors comparison functor@endlink.
 295:/Applications/ArmGNUToolchain/13.2.Rel1/arm-none-eabi/arm-none-eabi/include/c++/13.2.1/bits/stl_algobase.h ****    *  @return   The greater of the parameters.
 296:/Applications/ArmGNUToolchain/13.2.Rel1/arm-none-eabi/arm-none-eabi/include/c++/13.2.1/bits/stl_algobase.h ****    *
 297:/Applications/ArmGNUToolchain/13.2.Rel1/arm-none-eabi/arm-none-eabi/include/c++/13.2.1/bits/stl_algobase.h ****    *  This will work on temporary expressions, since they are only evaluated
 298:/Applications/ArmGNUToolchain/13.2.Rel1/arm-none-eabi/arm-none-eabi/include/c++/13.2.1/bits/stl_algobase.h ****    *  once, unlike a preprocessor macro.
 299:/Applications/ArmGNUToolchain/13.2.Rel1/arm-none-eabi/arm-none-eabi/include/c++/13.2.1/bits/stl_algobase.h ****   */
 300:/Applications/ArmGNUToolchain/13.2.Rel1/arm-none-eabi/arm-none-eabi/include/c++/13.2.1/bits/stl_algobase.h ****   template<typename _Tp, typename _Compare>
 301:/Applications/ArmGNUToolchain/13.2.Rel1/arm-none-eabi/arm-none-eabi/include/c++/13.2.1/bits/stl_algobase.h ****     _GLIBCXX14_CONSTEXPR
 302:/Applications/ArmGNUToolchain/13.2.Rel1/arm-none-eabi/arm-none-eabi/include/c++/13.2.1/bits/stl_algobase.h ****     inline const _Tp&
 303:/Applications/ArmGNUToolchain/13.2.Rel1/arm-none-eabi/arm-none-eabi/include/c++/13.2.1/bits/stl_algobase.h ****     max(const _Tp& __a, const _Tp& __b, _Compare __comp)
 304:/Applications/ArmGNUToolchain/13.2.Rel1/arm-none-eabi/arm-none-eabi/include/c++/13.2.1/bits/stl_algobase.h ****     {
 305:/Applications/ArmGNUToolchain/13.2.Rel1/arm-none-eabi/arm-none-eabi/include/c++/13.2.1/bits/stl_algobase.h ****       //return __comp(__a, __b) ? __b : __a;
 306:/Applications/ArmGNUToolchain/13.2.Rel1/arm-none-eabi/arm-none-eabi/include/c++/13.2.1/bits/stl_algobase.h ****       if (__comp(__a, __b))
 307:/Applications/ArmGNUToolchain/13.2.Rel1/arm-none-eabi/arm-none-eabi/include/c++/13.2.1/bits/stl_algobase.h **** 	return __b;
 308:/Applications/ArmGNUToolchain/13.2.Rel1/arm-none-eabi/arm-none-eabi/include/c++/13.2.1/bits/stl_algobase.h ****       return __a;
 309:/Applications/ArmGNUToolchain/13.2.Rel1/arm-none-eabi/arm-none-eabi/include/c++/13.2.1/bits/stl_algobase.h ****     }
 310:/Applications/ArmGNUToolchain/13.2.Rel1/arm-none-eabi/arm-none-eabi/include/c++/13.2.1/bits/stl_algobase.h **** 
 311:/Applications/ArmGNUToolchain/13.2.Rel1/arm-none-eabi/arm-none-eabi/include/c++/13.2.1/bits/stl_algobase.h ****   // Fallback implementation of the function in bits/stl_iterator.h used to
 312:/Applications/ArmGNUToolchain/13.2.Rel1/arm-none-eabi/arm-none-eabi/include/c++/13.2.1/bits/stl_algobase.h ****   // remove the __normal_iterator wrapper. See copy, fill, ...
 313:/Applications/ArmGNUToolchain/13.2.Rel1/arm-none-eabi/arm-none-eabi/include/c++/13.2.1/bits/stl_algobase.h ****   template<typename _Iterator>
 314:/Applications/ArmGNUToolchain/13.2.Rel1/arm-none-eabi/arm-none-eabi/include/c++/13.2.1/bits/stl_algobase.h ****     _GLIBCXX20_CONSTEXPR
 315:/Applications/ArmGNUToolchain/13.2.Rel1/arm-none-eabi/arm-none-eabi/include/c++/13.2.1/bits/stl_algobase.h ****     inline _Iterator
 316:/Applications/ArmGNUToolchain/13.2.Rel1/arm-none-eabi/arm-none-eabi/include/c++/13.2.1/bits/stl_algobase.h ****     __niter_base(_Iterator __it)
 317:/Applications/ArmGNUToolchain/13.2.Rel1/arm-none-eabi/arm-none-eabi/include/c++/13.2.1/bits/stl_algobase.h ****     _GLIBCXX_NOEXCEPT_IF(std::is_nothrow_copy_constructible<_Iterator>::value)
 318:/Applications/ArmGNUToolchain/13.2.Rel1/arm-none-eabi/arm-none-eabi/include/c++/13.2.1/bits/stl_algobase.h ****     { return __it; }
 319:/Applications/ArmGNUToolchain/13.2.Rel1/arm-none-eabi/arm-none-eabi/include/c++/13.2.1/bits/stl_algobase.h **** 
 320:/Applications/ArmGNUToolchain/13.2.Rel1/arm-none-eabi/arm-none-eabi/include/c++/13.2.1/bits/stl_algobase.h ****   template<typename _Ite, typename _Seq>
 321:/Applications/ArmGNUToolchain/13.2.Rel1/arm-none-eabi/arm-none-eabi/include/c++/13.2.1/bits/stl_algobase.h ****     _Ite
 322:/Applications/ArmGNUToolchain/13.2.Rel1/arm-none-eabi/arm-none-eabi/include/c++/13.2.1/bits/stl_algobase.h ****     __niter_base(const ::__gnu_debug::_Safe_iterator<_Ite, _Seq,
 323:/Applications/ArmGNUToolchain/13.2.Rel1/arm-none-eabi/arm-none-eabi/include/c++/13.2.1/bits/stl_algobase.h **** 		 std::random_access_iterator_tag>&);
 324:/Applications/ArmGNUToolchain/13.2.Rel1/arm-none-eabi/arm-none-eabi/include/c++/13.2.1/bits/stl_algobase.h **** 
 325:/Applications/ArmGNUToolchain/13.2.Rel1/arm-none-eabi/arm-none-eabi/include/c++/13.2.1/bits/stl_algobase.h ****   // Reverse the __niter_base transformation to get a
ARM GAS  /var/folders/83/vwtnzcdn1v99b_lf0k0gsjzr0000gn/T//cc93oyUL.s 			page 50


 326:/Applications/ArmGNUToolchain/13.2.Rel1/arm-none-eabi/arm-none-eabi/include/c++/13.2.1/bits/stl_algobase.h ****   // __normal_iterator back again (this assumes that __normal_iterator
 327:/Applications/ArmGNUToolchain/13.2.Rel1/arm-none-eabi/arm-none-eabi/include/c++/13.2.1/bits/stl_algobase.h ****   // is only used to wrap random access iterators, like pointers).
 328:/Applications/ArmGNUToolchain/13.2.Rel1/arm-none-eabi/arm-none-eabi/include/c++/13.2.1/bits/stl_algobase.h ****   template<typename _From, typename _To>
 329:/Applications/ArmGNUToolchain/13.2.Rel1/arm-none-eabi/arm-none-eabi/include/c++/13.2.1/bits/stl_algobase.h ****     _GLIBCXX20_CONSTEXPR
 330:/Applications/ArmGNUToolchain/13.2.Rel1/arm-none-eabi/arm-none-eabi/include/c++/13.2.1/bits/stl_algobase.h ****     inline _From
 331:/Applications/ArmGNUToolchain/13.2.Rel1/arm-none-eabi/arm-none-eabi/include/c++/13.2.1/bits/stl_algobase.h ****     __niter_wrap(_From __from, _To __res)
 332:/Applications/ArmGNUToolchain/13.2.Rel1/arm-none-eabi/arm-none-eabi/include/c++/13.2.1/bits/stl_algobase.h ****     { return __from + (__res - std::__niter_base(__from)); }
 333:/Applications/ArmGNUToolchain/13.2.Rel1/arm-none-eabi/arm-none-eabi/include/c++/13.2.1/bits/stl_algobase.h **** 
 334:/Applications/ArmGNUToolchain/13.2.Rel1/arm-none-eabi/arm-none-eabi/include/c++/13.2.1/bits/stl_algobase.h ****   // No need to wrap, iterator already has the right type.
 335:/Applications/ArmGNUToolchain/13.2.Rel1/arm-none-eabi/arm-none-eabi/include/c++/13.2.1/bits/stl_algobase.h ****   template<typename _Iterator>
 336:/Applications/ArmGNUToolchain/13.2.Rel1/arm-none-eabi/arm-none-eabi/include/c++/13.2.1/bits/stl_algobase.h ****     _GLIBCXX20_CONSTEXPR
 337:/Applications/ArmGNUToolchain/13.2.Rel1/arm-none-eabi/arm-none-eabi/include/c++/13.2.1/bits/stl_algobase.h ****     inline _Iterator
 338:/Applications/ArmGNUToolchain/13.2.Rel1/arm-none-eabi/arm-none-eabi/include/c++/13.2.1/bits/stl_algobase.h ****     __niter_wrap(const _Iterator&, _Iterator __res)
 339:/Applications/ArmGNUToolchain/13.2.Rel1/arm-none-eabi/arm-none-eabi/include/c++/13.2.1/bits/stl_algobase.h ****     { return __res; }
 340:/Applications/ArmGNUToolchain/13.2.Rel1/arm-none-eabi/arm-none-eabi/include/c++/13.2.1/bits/stl_algobase.h **** 
 341:/Applications/ArmGNUToolchain/13.2.Rel1/arm-none-eabi/arm-none-eabi/include/c++/13.2.1/bits/stl_algobase.h ****   // All of these auxiliary structs serve two purposes.  (1) Replace
 342:/Applications/ArmGNUToolchain/13.2.Rel1/arm-none-eabi/arm-none-eabi/include/c++/13.2.1/bits/stl_algobase.h ****   // calls to copy with memmove whenever possible.  (Memmove, not memcpy,
 343:/Applications/ArmGNUToolchain/13.2.Rel1/arm-none-eabi/arm-none-eabi/include/c++/13.2.1/bits/stl_algobase.h ****   // because the input and output ranges are permitted to overlap.)
 344:/Applications/ArmGNUToolchain/13.2.Rel1/arm-none-eabi/arm-none-eabi/include/c++/13.2.1/bits/stl_algobase.h ****   // (2) If we're using random access iterators, then write the loop as
 345:/Applications/ArmGNUToolchain/13.2.Rel1/arm-none-eabi/arm-none-eabi/include/c++/13.2.1/bits/stl_algobase.h ****   // a for loop with an explicit count.
 346:/Applications/ArmGNUToolchain/13.2.Rel1/arm-none-eabi/arm-none-eabi/include/c++/13.2.1/bits/stl_algobase.h **** 
 347:/Applications/ArmGNUToolchain/13.2.Rel1/arm-none-eabi/arm-none-eabi/include/c++/13.2.1/bits/stl_algobase.h ****   template<bool _IsMove, bool _IsSimple, typename _Category>
 348:/Applications/ArmGNUToolchain/13.2.Rel1/arm-none-eabi/arm-none-eabi/include/c++/13.2.1/bits/stl_algobase.h ****     struct __copy_move
 349:/Applications/ArmGNUToolchain/13.2.Rel1/arm-none-eabi/arm-none-eabi/include/c++/13.2.1/bits/stl_algobase.h ****     {
 350:/Applications/ArmGNUToolchain/13.2.Rel1/arm-none-eabi/arm-none-eabi/include/c++/13.2.1/bits/stl_algobase.h ****       template<typename _II, typename _OI>
 351:/Applications/ArmGNUToolchain/13.2.Rel1/arm-none-eabi/arm-none-eabi/include/c++/13.2.1/bits/stl_algobase.h **** 	_GLIBCXX20_CONSTEXPR
 352:/Applications/ArmGNUToolchain/13.2.Rel1/arm-none-eabi/arm-none-eabi/include/c++/13.2.1/bits/stl_algobase.h **** 	static _OI
 353:/Applications/ArmGNUToolchain/13.2.Rel1/arm-none-eabi/arm-none-eabi/include/c++/13.2.1/bits/stl_algobase.h **** 	__copy_m(_II __first, _II __last, _OI __result)
 354:/Applications/ArmGNUToolchain/13.2.Rel1/arm-none-eabi/arm-none-eabi/include/c++/13.2.1/bits/stl_algobase.h **** 	{
 355:/Applications/ArmGNUToolchain/13.2.Rel1/arm-none-eabi/arm-none-eabi/include/c++/13.2.1/bits/stl_algobase.h **** 	  for (; __first != __last; ++__result, (void)++__first)
 356:/Applications/ArmGNUToolchain/13.2.Rel1/arm-none-eabi/arm-none-eabi/include/c++/13.2.1/bits/stl_algobase.h **** 	    *__result = *__first;
 357:/Applications/ArmGNUToolchain/13.2.Rel1/arm-none-eabi/arm-none-eabi/include/c++/13.2.1/bits/stl_algobase.h **** 	  return __result;
 358:/Applications/ArmGNUToolchain/13.2.Rel1/arm-none-eabi/arm-none-eabi/include/c++/13.2.1/bits/stl_algobase.h **** 	}
 359:/Applications/ArmGNUToolchain/13.2.Rel1/arm-none-eabi/arm-none-eabi/include/c++/13.2.1/bits/stl_algobase.h ****     };
 360:/Applications/ArmGNUToolchain/13.2.Rel1/arm-none-eabi/arm-none-eabi/include/c++/13.2.1/bits/stl_algobase.h **** 
 361:/Applications/ArmGNUToolchain/13.2.Rel1/arm-none-eabi/arm-none-eabi/include/c++/13.2.1/bits/stl_algobase.h **** #if __cplusplus >= 201103L
 362:/Applications/ArmGNUToolchain/13.2.Rel1/arm-none-eabi/arm-none-eabi/include/c++/13.2.1/bits/stl_algobase.h ****   template<typename _Category>
 363:/Applications/ArmGNUToolchain/13.2.Rel1/arm-none-eabi/arm-none-eabi/include/c++/13.2.1/bits/stl_algobase.h ****     struct __copy_move<true, false, _Category>
 364:/Applications/ArmGNUToolchain/13.2.Rel1/arm-none-eabi/arm-none-eabi/include/c++/13.2.1/bits/stl_algobase.h ****     {
 365:/Applications/ArmGNUToolchain/13.2.Rel1/arm-none-eabi/arm-none-eabi/include/c++/13.2.1/bits/stl_algobase.h ****       template<typename _II, typename _OI>
 366:/Applications/ArmGNUToolchain/13.2.Rel1/arm-none-eabi/arm-none-eabi/include/c++/13.2.1/bits/stl_algobase.h **** 	_GLIBCXX20_CONSTEXPR
 367:/Applications/ArmGNUToolchain/13.2.Rel1/arm-none-eabi/arm-none-eabi/include/c++/13.2.1/bits/stl_algobase.h **** 	static _OI
 368:/Applications/ArmGNUToolchain/13.2.Rel1/arm-none-eabi/arm-none-eabi/include/c++/13.2.1/bits/stl_algobase.h **** 	__copy_m(_II __first, _II __last, _OI __result)
 369:/Applications/ArmGNUToolchain/13.2.Rel1/arm-none-eabi/arm-none-eabi/include/c++/13.2.1/bits/stl_algobase.h **** 	{
 370:/Applications/ArmGNUToolchain/13.2.Rel1/arm-none-eabi/arm-none-eabi/include/c++/13.2.1/bits/stl_algobase.h **** 	  for (; __first != __last; ++__result, (void)++__first)
 371:/Applications/ArmGNUToolchain/13.2.Rel1/arm-none-eabi/arm-none-eabi/include/c++/13.2.1/bits/stl_algobase.h **** 	    *__result = std::move(*__first);
 372:/Applications/ArmGNUToolchain/13.2.Rel1/arm-none-eabi/arm-none-eabi/include/c++/13.2.1/bits/stl_algobase.h **** 	  return __result;
 373:/Applications/ArmGNUToolchain/13.2.Rel1/arm-none-eabi/arm-none-eabi/include/c++/13.2.1/bits/stl_algobase.h **** 	}
 374:/Applications/ArmGNUToolchain/13.2.Rel1/arm-none-eabi/arm-none-eabi/include/c++/13.2.1/bits/stl_algobase.h ****     };
 375:/Applications/ArmGNUToolchain/13.2.Rel1/arm-none-eabi/arm-none-eabi/include/c++/13.2.1/bits/stl_algobase.h **** #endif
 376:/Applications/ArmGNUToolchain/13.2.Rel1/arm-none-eabi/arm-none-eabi/include/c++/13.2.1/bits/stl_algobase.h **** 
 377:/Applications/ArmGNUToolchain/13.2.Rel1/arm-none-eabi/arm-none-eabi/include/c++/13.2.1/bits/stl_algobase.h ****   template<>
 378:/Applications/ArmGNUToolchain/13.2.Rel1/arm-none-eabi/arm-none-eabi/include/c++/13.2.1/bits/stl_algobase.h ****     struct __copy_move<false, false, random_access_iterator_tag>
 379:/Applications/ArmGNUToolchain/13.2.Rel1/arm-none-eabi/arm-none-eabi/include/c++/13.2.1/bits/stl_algobase.h ****     {
 380:/Applications/ArmGNUToolchain/13.2.Rel1/arm-none-eabi/arm-none-eabi/include/c++/13.2.1/bits/stl_algobase.h ****       template<typename _II, typename _OI>
 381:/Applications/ArmGNUToolchain/13.2.Rel1/arm-none-eabi/arm-none-eabi/include/c++/13.2.1/bits/stl_algobase.h **** 	_GLIBCXX20_CONSTEXPR
 382:/Applications/ArmGNUToolchain/13.2.Rel1/arm-none-eabi/arm-none-eabi/include/c++/13.2.1/bits/stl_algobase.h **** 	static _OI
ARM GAS  /var/folders/83/vwtnzcdn1v99b_lf0k0gsjzr0000gn/T//cc93oyUL.s 			page 51


 383:/Applications/ArmGNUToolchain/13.2.Rel1/arm-none-eabi/arm-none-eabi/include/c++/13.2.1/bits/stl_algobase.h **** 	__copy_m(_II __first, _II __last, _OI __result)
 384:/Applications/ArmGNUToolchain/13.2.Rel1/arm-none-eabi/arm-none-eabi/include/c++/13.2.1/bits/stl_algobase.h **** 	{
 385:/Applications/ArmGNUToolchain/13.2.Rel1/arm-none-eabi/arm-none-eabi/include/c++/13.2.1/bits/stl_algobase.h **** 	  typedef typename iterator_traits<_II>::difference_type _Distance;
 386:/Applications/ArmGNUToolchain/13.2.Rel1/arm-none-eabi/arm-none-eabi/include/c++/13.2.1/bits/stl_algobase.h **** 	  for(_Distance __n = __last - __first; __n > 0; --__n)
 387:/Applications/ArmGNUToolchain/13.2.Rel1/arm-none-eabi/arm-none-eabi/include/c++/13.2.1/bits/stl_algobase.h **** 	    {
 388:/Applications/ArmGNUToolchain/13.2.Rel1/arm-none-eabi/arm-none-eabi/include/c++/13.2.1/bits/stl_algobase.h **** 	      *__result = *__first;
 389:/Applications/ArmGNUToolchain/13.2.Rel1/arm-none-eabi/arm-none-eabi/include/c++/13.2.1/bits/stl_algobase.h **** 	      ++__first;
 390:/Applications/ArmGNUToolchain/13.2.Rel1/arm-none-eabi/arm-none-eabi/include/c++/13.2.1/bits/stl_algobase.h **** 	      ++__result;
 391:/Applications/ArmGNUToolchain/13.2.Rel1/arm-none-eabi/arm-none-eabi/include/c++/13.2.1/bits/stl_algobase.h **** 	    }
 392:/Applications/ArmGNUToolchain/13.2.Rel1/arm-none-eabi/arm-none-eabi/include/c++/13.2.1/bits/stl_algobase.h **** 	  return __result;
 393:/Applications/ArmGNUToolchain/13.2.Rel1/arm-none-eabi/arm-none-eabi/include/c++/13.2.1/bits/stl_algobase.h **** 	}
 394:/Applications/ArmGNUToolchain/13.2.Rel1/arm-none-eabi/arm-none-eabi/include/c++/13.2.1/bits/stl_algobase.h **** 
 395:/Applications/ArmGNUToolchain/13.2.Rel1/arm-none-eabi/arm-none-eabi/include/c++/13.2.1/bits/stl_algobase.h ****       template<typename _Tp, typename _Up>
 396:/Applications/ArmGNUToolchain/13.2.Rel1/arm-none-eabi/arm-none-eabi/include/c++/13.2.1/bits/stl_algobase.h **** 	static void
 397:/Applications/ArmGNUToolchain/13.2.Rel1/arm-none-eabi/arm-none-eabi/include/c++/13.2.1/bits/stl_algobase.h **** 	__assign_one(_Tp* __to, _Up* __from)
 398:/Applications/ArmGNUToolchain/13.2.Rel1/arm-none-eabi/arm-none-eabi/include/c++/13.2.1/bits/stl_algobase.h **** 	{ *__to = *__from; }
 399:/Applications/ArmGNUToolchain/13.2.Rel1/arm-none-eabi/arm-none-eabi/include/c++/13.2.1/bits/stl_algobase.h ****     };
 400:/Applications/ArmGNUToolchain/13.2.Rel1/arm-none-eabi/arm-none-eabi/include/c++/13.2.1/bits/stl_algobase.h **** 
 401:/Applications/ArmGNUToolchain/13.2.Rel1/arm-none-eabi/arm-none-eabi/include/c++/13.2.1/bits/stl_algobase.h **** #if __cplusplus >= 201103L
 402:/Applications/ArmGNUToolchain/13.2.Rel1/arm-none-eabi/arm-none-eabi/include/c++/13.2.1/bits/stl_algobase.h ****   template<>
 403:/Applications/ArmGNUToolchain/13.2.Rel1/arm-none-eabi/arm-none-eabi/include/c++/13.2.1/bits/stl_algobase.h ****     struct __copy_move<true, false, random_access_iterator_tag>
 404:/Applications/ArmGNUToolchain/13.2.Rel1/arm-none-eabi/arm-none-eabi/include/c++/13.2.1/bits/stl_algobase.h ****     {
 405:/Applications/ArmGNUToolchain/13.2.Rel1/arm-none-eabi/arm-none-eabi/include/c++/13.2.1/bits/stl_algobase.h ****       template<typename _II, typename _OI>
 406:/Applications/ArmGNUToolchain/13.2.Rel1/arm-none-eabi/arm-none-eabi/include/c++/13.2.1/bits/stl_algobase.h **** 	_GLIBCXX20_CONSTEXPR
 407:/Applications/ArmGNUToolchain/13.2.Rel1/arm-none-eabi/arm-none-eabi/include/c++/13.2.1/bits/stl_algobase.h **** 	static _OI
 408:/Applications/ArmGNUToolchain/13.2.Rel1/arm-none-eabi/arm-none-eabi/include/c++/13.2.1/bits/stl_algobase.h **** 	__copy_m(_II __first, _II __last, _OI __result)
 409:/Applications/ArmGNUToolchain/13.2.Rel1/arm-none-eabi/arm-none-eabi/include/c++/13.2.1/bits/stl_algobase.h **** 	{
 410:/Applications/ArmGNUToolchain/13.2.Rel1/arm-none-eabi/arm-none-eabi/include/c++/13.2.1/bits/stl_algobase.h **** 	  typedef typename iterator_traits<_II>::difference_type _Distance;
 411:/Applications/ArmGNUToolchain/13.2.Rel1/arm-none-eabi/arm-none-eabi/include/c++/13.2.1/bits/stl_algobase.h **** 	  for(_Distance __n = __last - __first; __n > 0; --__n)
 412:/Applications/ArmGNUToolchain/13.2.Rel1/arm-none-eabi/arm-none-eabi/include/c++/13.2.1/bits/stl_algobase.h **** 	    {
 413:/Applications/ArmGNUToolchain/13.2.Rel1/arm-none-eabi/arm-none-eabi/include/c++/13.2.1/bits/stl_algobase.h **** 	      *__result = std::move(*__first);
 414:/Applications/ArmGNUToolchain/13.2.Rel1/arm-none-eabi/arm-none-eabi/include/c++/13.2.1/bits/stl_algobase.h **** 	      ++__first;
 415:/Applications/ArmGNUToolchain/13.2.Rel1/arm-none-eabi/arm-none-eabi/include/c++/13.2.1/bits/stl_algobase.h **** 	      ++__result;
 416:/Applications/ArmGNUToolchain/13.2.Rel1/arm-none-eabi/arm-none-eabi/include/c++/13.2.1/bits/stl_algobase.h **** 	    }
 417:/Applications/ArmGNUToolchain/13.2.Rel1/arm-none-eabi/arm-none-eabi/include/c++/13.2.1/bits/stl_algobase.h **** 	  return __result;
 418:/Applications/ArmGNUToolchain/13.2.Rel1/arm-none-eabi/arm-none-eabi/include/c++/13.2.1/bits/stl_algobase.h **** 	}
 419:/Applications/ArmGNUToolchain/13.2.Rel1/arm-none-eabi/arm-none-eabi/include/c++/13.2.1/bits/stl_algobase.h **** 
 420:/Applications/ArmGNUToolchain/13.2.Rel1/arm-none-eabi/arm-none-eabi/include/c++/13.2.1/bits/stl_algobase.h ****       template<typename _Tp, typename _Up>
 421:/Applications/ArmGNUToolchain/13.2.Rel1/arm-none-eabi/arm-none-eabi/include/c++/13.2.1/bits/stl_algobase.h **** 	static void
 422:/Applications/ArmGNUToolchain/13.2.Rel1/arm-none-eabi/arm-none-eabi/include/c++/13.2.1/bits/stl_algobase.h **** 	__assign_one(_Tp* __to, _Up* __from)
 423:/Applications/ArmGNUToolchain/13.2.Rel1/arm-none-eabi/arm-none-eabi/include/c++/13.2.1/bits/stl_algobase.h **** 	{ *__to = std::move(*__from); }
 424:/Applications/ArmGNUToolchain/13.2.Rel1/arm-none-eabi/arm-none-eabi/include/c++/13.2.1/bits/stl_algobase.h ****     };
 425:/Applications/ArmGNUToolchain/13.2.Rel1/arm-none-eabi/arm-none-eabi/include/c++/13.2.1/bits/stl_algobase.h **** #endif
 426:/Applications/ArmGNUToolchain/13.2.Rel1/arm-none-eabi/arm-none-eabi/include/c++/13.2.1/bits/stl_algobase.h **** 
 427:/Applications/ArmGNUToolchain/13.2.Rel1/arm-none-eabi/arm-none-eabi/include/c++/13.2.1/bits/stl_algobase.h ****   template<bool _IsMove>
 428:/Applications/ArmGNUToolchain/13.2.Rel1/arm-none-eabi/arm-none-eabi/include/c++/13.2.1/bits/stl_algobase.h ****     struct __copy_move<_IsMove, true, random_access_iterator_tag>
 429:/Applications/ArmGNUToolchain/13.2.Rel1/arm-none-eabi/arm-none-eabi/include/c++/13.2.1/bits/stl_algobase.h ****     {
 430:/Applications/ArmGNUToolchain/13.2.Rel1/arm-none-eabi/arm-none-eabi/include/c++/13.2.1/bits/stl_algobase.h ****       template<typename _Tp, typename _Up>
 431:/Applications/ArmGNUToolchain/13.2.Rel1/arm-none-eabi/arm-none-eabi/include/c++/13.2.1/bits/stl_algobase.h **** 	_GLIBCXX20_CONSTEXPR
 432:/Applications/ArmGNUToolchain/13.2.Rel1/arm-none-eabi/arm-none-eabi/include/c++/13.2.1/bits/stl_algobase.h **** 	static _Up*
 433:/Applications/ArmGNUToolchain/13.2.Rel1/arm-none-eabi/arm-none-eabi/include/c++/13.2.1/bits/stl_algobase.h **** 	__copy_m(_Tp* __first, _Tp* __last, _Up* __result)
 434:/Applications/ArmGNUToolchain/13.2.Rel1/arm-none-eabi/arm-none-eabi/include/c++/13.2.1/bits/stl_algobase.h **** 	{
 435:/Applications/ArmGNUToolchain/13.2.Rel1/arm-none-eabi/arm-none-eabi/include/c++/13.2.1/bits/stl_algobase.h **** 	  const ptrdiff_t _Num = __last - __first;
 436:/Applications/ArmGNUToolchain/13.2.Rel1/arm-none-eabi/arm-none-eabi/include/c++/13.2.1/bits/stl_algobase.h **** 	  if (__builtin_expect(_Num > 1, true))
 437:/Applications/ArmGNUToolchain/13.2.Rel1/arm-none-eabi/arm-none-eabi/include/c++/13.2.1/bits/stl_algobase.h **** 	    __builtin_memmove(__result, __first, sizeof(_Tp) * _Num);
 438:/Applications/ArmGNUToolchain/13.2.Rel1/arm-none-eabi/arm-none-eabi/include/c++/13.2.1/bits/stl_algobase.h **** 	  else if (_Num == 1)
 439:/Applications/ArmGNUToolchain/13.2.Rel1/arm-none-eabi/arm-none-eabi/include/c++/13.2.1/bits/stl_algobase.h **** 	    std::__copy_move<_IsMove, false, random_access_iterator_tag>::
ARM GAS  /var/folders/83/vwtnzcdn1v99b_lf0k0gsjzr0000gn/T//cc93oyUL.s 			page 52


 440:/Applications/ArmGNUToolchain/13.2.Rel1/arm-none-eabi/arm-none-eabi/include/c++/13.2.1/bits/stl_algobase.h **** 	      __assign_one(__result, __first);
 441:/Applications/ArmGNUToolchain/13.2.Rel1/arm-none-eabi/arm-none-eabi/include/c++/13.2.1/bits/stl_algobase.h **** 	  return __result + _Num;
 442:/Applications/ArmGNUToolchain/13.2.Rel1/arm-none-eabi/arm-none-eabi/include/c++/13.2.1/bits/stl_algobase.h **** 	}
 443:/Applications/ArmGNUToolchain/13.2.Rel1/arm-none-eabi/arm-none-eabi/include/c++/13.2.1/bits/stl_algobase.h ****     };
 444:/Applications/ArmGNUToolchain/13.2.Rel1/arm-none-eabi/arm-none-eabi/include/c++/13.2.1/bits/stl_algobase.h **** 
 445:/Applications/ArmGNUToolchain/13.2.Rel1/arm-none-eabi/arm-none-eabi/include/c++/13.2.1/bits/stl_algobase.h **** _GLIBCXX_BEGIN_NAMESPACE_CONTAINER
 446:/Applications/ArmGNUToolchain/13.2.Rel1/arm-none-eabi/arm-none-eabi/include/c++/13.2.1/bits/stl_algobase.h **** 
 447:/Applications/ArmGNUToolchain/13.2.Rel1/arm-none-eabi/arm-none-eabi/include/c++/13.2.1/bits/stl_algobase.h ****   template<typename _Tp, typename _Ref, typename _Ptr>
 448:/Applications/ArmGNUToolchain/13.2.Rel1/arm-none-eabi/arm-none-eabi/include/c++/13.2.1/bits/stl_algobase.h ****     struct _Deque_iterator;
 449:/Applications/ArmGNUToolchain/13.2.Rel1/arm-none-eabi/arm-none-eabi/include/c++/13.2.1/bits/stl_algobase.h **** 
 450:/Applications/ArmGNUToolchain/13.2.Rel1/arm-none-eabi/arm-none-eabi/include/c++/13.2.1/bits/stl_algobase.h ****   struct _Bit_iterator;
 451:/Applications/ArmGNUToolchain/13.2.Rel1/arm-none-eabi/arm-none-eabi/include/c++/13.2.1/bits/stl_algobase.h **** 
 452:/Applications/ArmGNUToolchain/13.2.Rel1/arm-none-eabi/arm-none-eabi/include/c++/13.2.1/bits/stl_algobase.h **** _GLIBCXX_END_NAMESPACE_CONTAINER
 453:/Applications/ArmGNUToolchain/13.2.Rel1/arm-none-eabi/arm-none-eabi/include/c++/13.2.1/bits/stl_algobase.h **** 
 454:/Applications/ArmGNUToolchain/13.2.Rel1/arm-none-eabi/arm-none-eabi/include/c++/13.2.1/bits/stl_algobase.h **** #if _GLIBCXX_HOSTED
 455:/Applications/ArmGNUToolchain/13.2.Rel1/arm-none-eabi/arm-none-eabi/include/c++/13.2.1/bits/stl_algobase.h ****   // Helpers for streambuf iterators (either istream or ostream).
 456:/Applications/ArmGNUToolchain/13.2.Rel1/arm-none-eabi/arm-none-eabi/include/c++/13.2.1/bits/stl_algobase.h ****   // NB: avoid including <iosfwd>, relatively large.
 457:/Applications/ArmGNUToolchain/13.2.Rel1/arm-none-eabi/arm-none-eabi/include/c++/13.2.1/bits/stl_algobase.h ****   template<typename _CharT>
 458:/Applications/ArmGNUToolchain/13.2.Rel1/arm-none-eabi/arm-none-eabi/include/c++/13.2.1/bits/stl_algobase.h ****     struct char_traits;
 459:/Applications/ArmGNUToolchain/13.2.Rel1/arm-none-eabi/arm-none-eabi/include/c++/13.2.1/bits/stl_algobase.h **** 
 460:/Applications/ArmGNUToolchain/13.2.Rel1/arm-none-eabi/arm-none-eabi/include/c++/13.2.1/bits/stl_algobase.h ****   template<typename _CharT, typename _Traits>
 461:/Applications/ArmGNUToolchain/13.2.Rel1/arm-none-eabi/arm-none-eabi/include/c++/13.2.1/bits/stl_algobase.h ****     class istreambuf_iterator;
 462:/Applications/ArmGNUToolchain/13.2.Rel1/arm-none-eabi/arm-none-eabi/include/c++/13.2.1/bits/stl_algobase.h **** 
 463:/Applications/ArmGNUToolchain/13.2.Rel1/arm-none-eabi/arm-none-eabi/include/c++/13.2.1/bits/stl_algobase.h ****   template<typename _CharT, typename _Traits>
 464:/Applications/ArmGNUToolchain/13.2.Rel1/arm-none-eabi/arm-none-eabi/include/c++/13.2.1/bits/stl_algobase.h ****     class ostreambuf_iterator;
 465:/Applications/ArmGNUToolchain/13.2.Rel1/arm-none-eabi/arm-none-eabi/include/c++/13.2.1/bits/stl_algobase.h **** 
 466:/Applications/ArmGNUToolchain/13.2.Rel1/arm-none-eabi/arm-none-eabi/include/c++/13.2.1/bits/stl_algobase.h ****   template<bool _IsMove, typename _CharT>
 467:/Applications/ArmGNUToolchain/13.2.Rel1/arm-none-eabi/arm-none-eabi/include/c++/13.2.1/bits/stl_algobase.h ****     typename __gnu_cxx::__enable_if<__is_char<_CharT>::__value,
 468:/Applications/ArmGNUToolchain/13.2.Rel1/arm-none-eabi/arm-none-eabi/include/c++/13.2.1/bits/stl_algobase.h **** 	     ostreambuf_iterator<_CharT, char_traits<_CharT> > >::__type
 469:/Applications/ArmGNUToolchain/13.2.Rel1/arm-none-eabi/arm-none-eabi/include/c++/13.2.1/bits/stl_algobase.h ****     __copy_move_a2(_CharT*, _CharT*,
 470:/Applications/ArmGNUToolchain/13.2.Rel1/arm-none-eabi/arm-none-eabi/include/c++/13.2.1/bits/stl_algobase.h **** 		   ostreambuf_iterator<_CharT, char_traits<_CharT> >);
 471:/Applications/ArmGNUToolchain/13.2.Rel1/arm-none-eabi/arm-none-eabi/include/c++/13.2.1/bits/stl_algobase.h **** 
 472:/Applications/ArmGNUToolchain/13.2.Rel1/arm-none-eabi/arm-none-eabi/include/c++/13.2.1/bits/stl_algobase.h ****   template<bool _IsMove, typename _CharT>
 473:/Applications/ArmGNUToolchain/13.2.Rel1/arm-none-eabi/arm-none-eabi/include/c++/13.2.1/bits/stl_algobase.h ****     typename __gnu_cxx::__enable_if<__is_char<_CharT>::__value,
 474:/Applications/ArmGNUToolchain/13.2.Rel1/arm-none-eabi/arm-none-eabi/include/c++/13.2.1/bits/stl_algobase.h **** 	     ostreambuf_iterator<_CharT, char_traits<_CharT> > >::__type
 475:/Applications/ArmGNUToolchain/13.2.Rel1/arm-none-eabi/arm-none-eabi/include/c++/13.2.1/bits/stl_algobase.h ****     __copy_move_a2(const _CharT*, const _CharT*,
 476:/Applications/ArmGNUToolchain/13.2.Rel1/arm-none-eabi/arm-none-eabi/include/c++/13.2.1/bits/stl_algobase.h **** 		   ostreambuf_iterator<_CharT, char_traits<_CharT> >);
 477:/Applications/ArmGNUToolchain/13.2.Rel1/arm-none-eabi/arm-none-eabi/include/c++/13.2.1/bits/stl_algobase.h **** 
 478:/Applications/ArmGNUToolchain/13.2.Rel1/arm-none-eabi/arm-none-eabi/include/c++/13.2.1/bits/stl_algobase.h ****   template<bool _IsMove, typename _CharT>
 479:/Applications/ArmGNUToolchain/13.2.Rel1/arm-none-eabi/arm-none-eabi/include/c++/13.2.1/bits/stl_algobase.h ****     typename __gnu_cxx::__enable_if<__is_char<_CharT>::__value,
 480:/Applications/ArmGNUToolchain/13.2.Rel1/arm-none-eabi/arm-none-eabi/include/c++/13.2.1/bits/stl_algobase.h **** 				    _CharT*>::__type
 481:/Applications/ArmGNUToolchain/13.2.Rel1/arm-none-eabi/arm-none-eabi/include/c++/13.2.1/bits/stl_algobase.h ****     __copy_move_a2(istreambuf_iterator<_CharT, char_traits<_CharT> >,
 482:/Applications/ArmGNUToolchain/13.2.Rel1/arm-none-eabi/arm-none-eabi/include/c++/13.2.1/bits/stl_algobase.h **** 		   istreambuf_iterator<_CharT, char_traits<_CharT> >, _CharT*);
 483:/Applications/ArmGNUToolchain/13.2.Rel1/arm-none-eabi/arm-none-eabi/include/c++/13.2.1/bits/stl_algobase.h **** 
 484:/Applications/ArmGNUToolchain/13.2.Rel1/arm-none-eabi/arm-none-eabi/include/c++/13.2.1/bits/stl_algobase.h ****   template<bool _IsMove, typename _CharT>
 485:/Applications/ArmGNUToolchain/13.2.Rel1/arm-none-eabi/arm-none-eabi/include/c++/13.2.1/bits/stl_algobase.h ****     typename __gnu_cxx::__enable_if<
 486:/Applications/ArmGNUToolchain/13.2.Rel1/arm-none-eabi/arm-none-eabi/include/c++/13.2.1/bits/stl_algobase.h ****       __is_char<_CharT>::__value,
 487:/Applications/ArmGNUToolchain/13.2.Rel1/arm-none-eabi/arm-none-eabi/include/c++/13.2.1/bits/stl_algobase.h ****       _GLIBCXX_STD_C::_Deque_iterator<_CharT, _CharT&, _CharT*> >::__type
 488:/Applications/ArmGNUToolchain/13.2.Rel1/arm-none-eabi/arm-none-eabi/include/c++/13.2.1/bits/stl_algobase.h ****     __copy_move_a2(
 489:/Applications/ArmGNUToolchain/13.2.Rel1/arm-none-eabi/arm-none-eabi/include/c++/13.2.1/bits/stl_algobase.h **** 	istreambuf_iterator<_CharT, char_traits<_CharT> >,
 490:/Applications/ArmGNUToolchain/13.2.Rel1/arm-none-eabi/arm-none-eabi/include/c++/13.2.1/bits/stl_algobase.h **** 	istreambuf_iterator<_CharT, char_traits<_CharT> >,
 491:/Applications/ArmGNUToolchain/13.2.Rel1/arm-none-eabi/arm-none-eabi/include/c++/13.2.1/bits/stl_algobase.h **** 	_GLIBCXX_STD_C::_Deque_iterator<_CharT, _CharT&, _CharT*>);
 492:/Applications/ArmGNUToolchain/13.2.Rel1/arm-none-eabi/arm-none-eabi/include/c++/13.2.1/bits/stl_algobase.h **** #endif // HOSTED
 493:/Applications/ArmGNUToolchain/13.2.Rel1/arm-none-eabi/arm-none-eabi/include/c++/13.2.1/bits/stl_algobase.h **** 
 494:/Applications/ArmGNUToolchain/13.2.Rel1/arm-none-eabi/arm-none-eabi/include/c++/13.2.1/bits/stl_algobase.h ****   template<bool _IsMove, typename _II, typename _OI>
 495:/Applications/ArmGNUToolchain/13.2.Rel1/arm-none-eabi/arm-none-eabi/include/c++/13.2.1/bits/stl_algobase.h ****     _GLIBCXX20_CONSTEXPR
 496:/Applications/ArmGNUToolchain/13.2.Rel1/arm-none-eabi/arm-none-eabi/include/c++/13.2.1/bits/stl_algobase.h ****     inline _OI
ARM GAS  /var/folders/83/vwtnzcdn1v99b_lf0k0gsjzr0000gn/T//cc93oyUL.s 			page 53


 497:/Applications/ArmGNUToolchain/13.2.Rel1/arm-none-eabi/arm-none-eabi/include/c++/13.2.1/bits/stl_algobase.h ****     __copy_move_a2(_II __first, _II __last, _OI __result)
 498:/Applications/ArmGNUToolchain/13.2.Rel1/arm-none-eabi/arm-none-eabi/include/c++/13.2.1/bits/stl_algobase.h ****     {
 499:/Applications/ArmGNUToolchain/13.2.Rel1/arm-none-eabi/arm-none-eabi/include/c++/13.2.1/bits/stl_algobase.h ****       typedef typename iterator_traits<_II>::iterator_category _Category;
 500:/Applications/ArmGNUToolchain/13.2.Rel1/arm-none-eabi/arm-none-eabi/include/c++/13.2.1/bits/stl_algobase.h **** #ifdef __cpp_lib_is_constant_evaluated
 501:/Applications/ArmGNUToolchain/13.2.Rel1/arm-none-eabi/arm-none-eabi/include/c++/13.2.1/bits/stl_algobase.h ****       if (std::is_constant_evaluated())
 502:/Applications/ArmGNUToolchain/13.2.Rel1/arm-none-eabi/arm-none-eabi/include/c++/13.2.1/bits/stl_algobase.h **** 	return std::__copy_move<_IsMove, false, _Category>::
 503:/Applications/ArmGNUToolchain/13.2.Rel1/arm-none-eabi/arm-none-eabi/include/c++/13.2.1/bits/stl_algobase.h **** 	  __copy_m(__first, __last, __result);
 504:/Applications/ArmGNUToolchain/13.2.Rel1/arm-none-eabi/arm-none-eabi/include/c++/13.2.1/bits/stl_algobase.h **** #endif
 505:/Applications/ArmGNUToolchain/13.2.Rel1/arm-none-eabi/arm-none-eabi/include/c++/13.2.1/bits/stl_algobase.h ****       return std::__copy_move<_IsMove, __memcpyable<_OI, _II>::__value,
 506:/Applications/ArmGNUToolchain/13.2.Rel1/arm-none-eabi/arm-none-eabi/include/c++/13.2.1/bits/stl_algobase.h **** 			      _Category>::__copy_m(__first, __last, __result);
 507:/Applications/ArmGNUToolchain/13.2.Rel1/arm-none-eabi/arm-none-eabi/include/c++/13.2.1/bits/stl_algobase.h ****     }
 508:/Applications/ArmGNUToolchain/13.2.Rel1/arm-none-eabi/arm-none-eabi/include/c++/13.2.1/bits/stl_algobase.h **** 
 509:/Applications/ArmGNUToolchain/13.2.Rel1/arm-none-eabi/arm-none-eabi/include/c++/13.2.1/bits/stl_algobase.h ****   template<bool _IsMove,
 510:/Applications/ArmGNUToolchain/13.2.Rel1/arm-none-eabi/arm-none-eabi/include/c++/13.2.1/bits/stl_algobase.h **** 	   typename _Tp, typename _Ref, typename _Ptr, typename _OI>
 511:/Applications/ArmGNUToolchain/13.2.Rel1/arm-none-eabi/arm-none-eabi/include/c++/13.2.1/bits/stl_algobase.h ****     _OI
 512:/Applications/ArmGNUToolchain/13.2.Rel1/arm-none-eabi/arm-none-eabi/include/c++/13.2.1/bits/stl_algobase.h ****     __copy_move_a1(_GLIBCXX_STD_C::_Deque_iterator<_Tp, _Ref, _Ptr>,
 513:/Applications/ArmGNUToolchain/13.2.Rel1/arm-none-eabi/arm-none-eabi/include/c++/13.2.1/bits/stl_algobase.h **** 		   _GLIBCXX_STD_C::_Deque_iterator<_Tp, _Ref, _Ptr>,
 514:/Applications/ArmGNUToolchain/13.2.Rel1/arm-none-eabi/arm-none-eabi/include/c++/13.2.1/bits/stl_algobase.h **** 		   _OI);
 515:/Applications/ArmGNUToolchain/13.2.Rel1/arm-none-eabi/arm-none-eabi/include/c++/13.2.1/bits/stl_algobase.h **** 
 516:/Applications/ArmGNUToolchain/13.2.Rel1/arm-none-eabi/arm-none-eabi/include/c++/13.2.1/bits/stl_algobase.h ****   template<bool _IsMove,
 517:/Applications/ArmGNUToolchain/13.2.Rel1/arm-none-eabi/arm-none-eabi/include/c++/13.2.1/bits/stl_algobase.h **** 	   typename _ITp, typename _IRef, typename _IPtr, typename _OTp>
 518:/Applications/ArmGNUToolchain/13.2.Rel1/arm-none-eabi/arm-none-eabi/include/c++/13.2.1/bits/stl_algobase.h ****     _GLIBCXX_STD_C::_Deque_iterator<_OTp, _OTp&, _OTp*>
 519:/Applications/ArmGNUToolchain/13.2.Rel1/arm-none-eabi/arm-none-eabi/include/c++/13.2.1/bits/stl_algobase.h ****     __copy_move_a1(_GLIBCXX_STD_C::_Deque_iterator<_ITp, _IRef, _IPtr>,
 520:/Applications/ArmGNUToolchain/13.2.Rel1/arm-none-eabi/arm-none-eabi/include/c++/13.2.1/bits/stl_algobase.h **** 		   _GLIBCXX_STD_C::_Deque_iterator<_ITp, _IRef, _IPtr>,
 521:/Applications/ArmGNUToolchain/13.2.Rel1/arm-none-eabi/arm-none-eabi/include/c++/13.2.1/bits/stl_algobase.h **** 		   _GLIBCXX_STD_C::_Deque_iterator<_OTp, _OTp&, _OTp*>);
 522:/Applications/ArmGNUToolchain/13.2.Rel1/arm-none-eabi/arm-none-eabi/include/c++/13.2.1/bits/stl_algobase.h **** 
 523:/Applications/ArmGNUToolchain/13.2.Rel1/arm-none-eabi/arm-none-eabi/include/c++/13.2.1/bits/stl_algobase.h ****   template<bool _IsMove, typename _II, typename _Tp>
 524:/Applications/ArmGNUToolchain/13.2.Rel1/arm-none-eabi/arm-none-eabi/include/c++/13.2.1/bits/stl_algobase.h ****     typename __gnu_cxx::__enable_if<
 525:/Applications/ArmGNUToolchain/13.2.Rel1/arm-none-eabi/arm-none-eabi/include/c++/13.2.1/bits/stl_algobase.h ****       __is_random_access_iter<_II>::__value,
 526:/Applications/ArmGNUToolchain/13.2.Rel1/arm-none-eabi/arm-none-eabi/include/c++/13.2.1/bits/stl_algobase.h ****       _GLIBCXX_STD_C::_Deque_iterator<_Tp, _Tp&, _Tp*> >::__type
 527:/Applications/ArmGNUToolchain/13.2.Rel1/arm-none-eabi/arm-none-eabi/include/c++/13.2.1/bits/stl_algobase.h ****     __copy_move_a1(_II, _II, _GLIBCXX_STD_C::_Deque_iterator<_Tp, _Tp&, _Tp*>);
 528:/Applications/ArmGNUToolchain/13.2.Rel1/arm-none-eabi/arm-none-eabi/include/c++/13.2.1/bits/stl_algobase.h **** 
 529:/Applications/ArmGNUToolchain/13.2.Rel1/arm-none-eabi/arm-none-eabi/include/c++/13.2.1/bits/stl_algobase.h ****   template<bool _IsMove, typename _II, typename _OI>
 530:/Applications/ArmGNUToolchain/13.2.Rel1/arm-none-eabi/arm-none-eabi/include/c++/13.2.1/bits/stl_algobase.h ****     _GLIBCXX20_CONSTEXPR
 531:/Applications/ArmGNUToolchain/13.2.Rel1/arm-none-eabi/arm-none-eabi/include/c++/13.2.1/bits/stl_algobase.h ****     inline _OI
 532:/Applications/ArmGNUToolchain/13.2.Rel1/arm-none-eabi/arm-none-eabi/include/c++/13.2.1/bits/stl_algobase.h ****     __copy_move_a1(_II __first, _II __last, _OI __result)
 533:/Applications/ArmGNUToolchain/13.2.Rel1/arm-none-eabi/arm-none-eabi/include/c++/13.2.1/bits/stl_algobase.h ****     { return std::__copy_move_a2<_IsMove>(__first, __last, __result); }
 534:/Applications/ArmGNUToolchain/13.2.Rel1/arm-none-eabi/arm-none-eabi/include/c++/13.2.1/bits/stl_algobase.h **** 
 535:/Applications/ArmGNUToolchain/13.2.Rel1/arm-none-eabi/arm-none-eabi/include/c++/13.2.1/bits/stl_algobase.h ****   template<bool _IsMove, typename _II, typename _OI>
 536:/Applications/ArmGNUToolchain/13.2.Rel1/arm-none-eabi/arm-none-eabi/include/c++/13.2.1/bits/stl_algobase.h ****     _GLIBCXX20_CONSTEXPR
 537:/Applications/ArmGNUToolchain/13.2.Rel1/arm-none-eabi/arm-none-eabi/include/c++/13.2.1/bits/stl_algobase.h ****     inline _OI
 538:/Applications/ArmGNUToolchain/13.2.Rel1/arm-none-eabi/arm-none-eabi/include/c++/13.2.1/bits/stl_algobase.h ****     __copy_move_a(_II __first, _II __last, _OI __result)
 539:/Applications/ArmGNUToolchain/13.2.Rel1/arm-none-eabi/arm-none-eabi/include/c++/13.2.1/bits/stl_algobase.h ****     {
 540:/Applications/ArmGNUToolchain/13.2.Rel1/arm-none-eabi/arm-none-eabi/include/c++/13.2.1/bits/stl_algobase.h ****       return std::__niter_wrap(__result,
 541:/Applications/ArmGNUToolchain/13.2.Rel1/arm-none-eabi/arm-none-eabi/include/c++/13.2.1/bits/stl_algobase.h **** 		std::__copy_move_a1<_IsMove>(std::__niter_base(__first),
 542:/Applications/ArmGNUToolchain/13.2.Rel1/arm-none-eabi/arm-none-eabi/include/c++/13.2.1/bits/stl_algobase.h **** 					     std::__niter_base(__last),
 543:/Applications/ArmGNUToolchain/13.2.Rel1/arm-none-eabi/arm-none-eabi/include/c++/13.2.1/bits/stl_algobase.h **** 					     std::__niter_base(__result)));
 544:/Applications/ArmGNUToolchain/13.2.Rel1/arm-none-eabi/arm-none-eabi/include/c++/13.2.1/bits/stl_algobase.h ****     }
 545:/Applications/ArmGNUToolchain/13.2.Rel1/arm-none-eabi/arm-none-eabi/include/c++/13.2.1/bits/stl_algobase.h **** 
 546:/Applications/ArmGNUToolchain/13.2.Rel1/arm-none-eabi/arm-none-eabi/include/c++/13.2.1/bits/stl_algobase.h ****   template<bool _IsMove,
 547:/Applications/ArmGNUToolchain/13.2.Rel1/arm-none-eabi/arm-none-eabi/include/c++/13.2.1/bits/stl_algobase.h **** 	   typename _Ite, typename _Seq, typename _Cat, typename _OI>
 548:/Applications/ArmGNUToolchain/13.2.Rel1/arm-none-eabi/arm-none-eabi/include/c++/13.2.1/bits/stl_algobase.h ****     _OI
 549:/Applications/ArmGNUToolchain/13.2.Rel1/arm-none-eabi/arm-none-eabi/include/c++/13.2.1/bits/stl_algobase.h ****     __copy_move_a(const ::__gnu_debug::_Safe_iterator<_Ite, _Seq, _Cat>&,
 550:/Applications/ArmGNUToolchain/13.2.Rel1/arm-none-eabi/arm-none-eabi/include/c++/13.2.1/bits/stl_algobase.h **** 		  const ::__gnu_debug::_Safe_iterator<_Ite, _Seq, _Cat>&,
 551:/Applications/ArmGNUToolchain/13.2.Rel1/arm-none-eabi/arm-none-eabi/include/c++/13.2.1/bits/stl_algobase.h **** 		  _OI);
 552:/Applications/ArmGNUToolchain/13.2.Rel1/arm-none-eabi/arm-none-eabi/include/c++/13.2.1/bits/stl_algobase.h **** 
 553:/Applications/ArmGNUToolchain/13.2.Rel1/arm-none-eabi/arm-none-eabi/include/c++/13.2.1/bits/stl_algobase.h ****   template<bool _IsMove,
ARM GAS  /var/folders/83/vwtnzcdn1v99b_lf0k0gsjzr0000gn/T//cc93oyUL.s 			page 54


 554:/Applications/ArmGNUToolchain/13.2.Rel1/arm-none-eabi/arm-none-eabi/include/c++/13.2.1/bits/stl_algobase.h **** 	   typename _II, typename _Ite, typename _Seq, typename _Cat>
 555:/Applications/ArmGNUToolchain/13.2.Rel1/arm-none-eabi/arm-none-eabi/include/c++/13.2.1/bits/stl_algobase.h ****     __gnu_debug::_Safe_iterator<_Ite, _Seq, _Cat>
 556:/Applications/ArmGNUToolchain/13.2.Rel1/arm-none-eabi/arm-none-eabi/include/c++/13.2.1/bits/stl_algobase.h ****     __copy_move_a(_II, _II,
 557:/Applications/ArmGNUToolchain/13.2.Rel1/arm-none-eabi/arm-none-eabi/include/c++/13.2.1/bits/stl_algobase.h **** 		  const ::__gnu_debug::_Safe_iterator<_Ite, _Seq, _Cat>&);
 558:/Applications/ArmGNUToolchain/13.2.Rel1/arm-none-eabi/arm-none-eabi/include/c++/13.2.1/bits/stl_algobase.h **** 
 559:/Applications/ArmGNUToolchain/13.2.Rel1/arm-none-eabi/arm-none-eabi/include/c++/13.2.1/bits/stl_algobase.h ****   template<bool _IsMove,
 560:/Applications/ArmGNUToolchain/13.2.Rel1/arm-none-eabi/arm-none-eabi/include/c++/13.2.1/bits/stl_algobase.h **** 	   typename _IIte, typename _ISeq, typename _ICat,
 561:/Applications/ArmGNUToolchain/13.2.Rel1/arm-none-eabi/arm-none-eabi/include/c++/13.2.1/bits/stl_algobase.h **** 	   typename _OIte, typename _OSeq, typename _OCat>
 562:/Applications/ArmGNUToolchain/13.2.Rel1/arm-none-eabi/arm-none-eabi/include/c++/13.2.1/bits/stl_algobase.h ****     ::__gnu_debug::_Safe_iterator<_OIte, _OSeq, _OCat>
 563:/Applications/ArmGNUToolchain/13.2.Rel1/arm-none-eabi/arm-none-eabi/include/c++/13.2.1/bits/stl_algobase.h ****     __copy_move_a(const ::__gnu_debug::_Safe_iterator<_IIte, _ISeq, _ICat>&,
 564:/Applications/ArmGNUToolchain/13.2.Rel1/arm-none-eabi/arm-none-eabi/include/c++/13.2.1/bits/stl_algobase.h **** 		  const ::__gnu_debug::_Safe_iterator<_IIte, _ISeq, _ICat>&,
 565:/Applications/ArmGNUToolchain/13.2.Rel1/arm-none-eabi/arm-none-eabi/include/c++/13.2.1/bits/stl_algobase.h **** 		  const ::__gnu_debug::_Safe_iterator<_OIte, _OSeq, _OCat>&);
 566:/Applications/ArmGNUToolchain/13.2.Rel1/arm-none-eabi/arm-none-eabi/include/c++/13.2.1/bits/stl_algobase.h **** 
 567:/Applications/ArmGNUToolchain/13.2.Rel1/arm-none-eabi/arm-none-eabi/include/c++/13.2.1/bits/stl_algobase.h ****   template<typename _InputIterator, typename _Size, typename _OutputIterator>
 568:/Applications/ArmGNUToolchain/13.2.Rel1/arm-none-eabi/arm-none-eabi/include/c++/13.2.1/bits/stl_algobase.h ****     _GLIBCXX20_CONSTEXPR
 569:/Applications/ArmGNUToolchain/13.2.Rel1/arm-none-eabi/arm-none-eabi/include/c++/13.2.1/bits/stl_algobase.h ****     _OutputIterator
 570:/Applications/ArmGNUToolchain/13.2.Rel1/arm-none-eabi/arm-none-eabi/include/c++/13.2.1/bits/stl_algobase.h ****     __copy_n_a(_InputIterator __first, _Size __n, _OutputIterator __result,
 571:/Applications/ArmGNUToolchain/13.2.Rel1/arm-none-eabi/arm-none-eabi/include/c++/13.2.1/bits/stl_algobase.h **** 	       bool)
 572:/Applications/ArmGNUToolchain/13.2.Rel1/arm-none-eabi/arm-none-eabi/include/c++/13.2.1/bits/stl_algobase.h ****     {
 573:/Applications/ArmGNUToolchain/13.2.Rel1/arm-none-eabi/arm-none-eabi/include/c++/13.2.1/bits/stl_algobase.h ****       if (__n > 0)
 574:/Applications/ArmGNUToolchain/13.2.Rel1/arm-none-eabi/arm-none-eabi/include/c++/13.2.1/bits/stl_algobase.h **** 	{
 575:/Applications/ArmGNUToolchain/13.2.Rel1/arm-none-eabi/arm-none-eabi/include/c++/13.2.1/bits/stl_algobase.h **** 	  while (true)
 576:/Applications/ArmGNUToolchain/13.2.Rel1/arm-none-eabi/arm-none-eabi/include/c++/13.2.1/bits/stl_algobase.h **** 	    {
 577:/Applications/ArmGNUToolchain/13.2.Rel1/arm-none-eabi/arm-none-eabi/include/c++/13.2.1/bits/stl_algobase.h **** 	      *__result = *__first;
 578:/Applications/ArmGNUToolchain/13.2.Rel1/arm-none-eabi/arm-none-eabi/include/c++/13.2.1/bits/stl_algobase.h **** 	      ++__result;
 579:/Applications/ArmGNUToolchain/13.2.Rel1/arm-none-eabi/arm-none-eabi/include/c++/13.2.1/bits/stl_algobase.h **** 	      if (--__n > 0)
 580:/Applications/ArmGNUToolchain/13.2.Rel1/arm-none-eabi/arm-none-eabi/include/c++/13.2.1/bits/stl_algobase.h **** 		++__first;
 581:/Applications/ArmGNUToolchain/13.2.Rel1/arm-none-eabi/arm-none-eabi/include/c++/13.2.1/bits/stl_algobase.h **** 	      else
 582:/Applications/ArmGNUToolchain/13.2.Rel1/arm-none-eabi/arm-none-eabi/include/c++/13.2.1/bits/stl_algobase.h **** 		break;
 583:/Applications/ArmGNUToolchain/13.2.Rel1/arm-none-eabi/arm-none-eabi/include/c++/13.2.1/bits/stl_algobase.h **** 	    }
 584:/Applications/ArmGNUToolchain/13.2.Rel1/arm-none-eabi/arm-none-eabi/include/c++/13.2.1/bits/stl_algobase.h **** 	}
 585:/Applications/ArmGNUToolchain/13.2.Rel1/arm-none-eabi/arm-none-eabi/include/c++/13.2.1/bits/stl_algobase.h ****       return __result;
 586:/Applications/ArmGNUToolchain/13.2.Rel1/arm-none-eabi/arm-none-eabi/include/c++/13.2.1/bits/stl_algobase.h ****     }
 587:/Applications/ArmGNUToolchain/13.2.Rel1/arm-none-eabi/arm-none-eabi/include/c++/13.2.1/bits/stl_algobase.h **** 
 588:/Applications/ArmGNUToolchain/13.2.Rel1/arm-none-eabi/arm-none-eabi/include/c++/13.2.1/bits/stl_algobase.h **** #if _GLIBCXX_HOSTED
 589:/Applications/ArmGNUToolchain/13.2.Rel1/arm-none-eabi/arm-none-eabi/include/c++/13.2.1/bits/stl_algobase.h ****   template<typename _CharT, typename _Size>
 590:/Applications/ArmGNUToolchain/13.2.Rel1/arm-none-eabi/arm-none-eabi/include/c++/13.2.1/bits/stl_algobase.h ****     typename __gnu_cxx::__enable_if<
 591:/Applications/ArmGNUToolchain/13.2.Rel1/arm-none-eabi/arm-none-eabi/include/c++/13.2.1/bits/stl_algobase.h ****       __is_char<_CharT>::__value, _CharT*>::__type
 592:/Applications/ArmGNUToolchain/13.2.Rel1/arm-none-eabi/arm-none-eabi/include/c++/13.2.1/bits/stl_algobase.h ****     __copy_n_a(istreambuf_iterator<_CharT, char_traits<_CharT> >,
 593:/Applications/ArmGNUToolchain/13.2.Rel1/arm-none-eabi/arm-none-eabi/include/c++/13.2.1/bits/stl_algobase.h **** 	       _Size, _CharT*, bool);
 594:/Applications/ArmGNUToolchain/13.2.Rel1/arm-none-eabi/arm-none-eabi/include/c++/13.2.1/bits/stl_algobase.h **** 
 595:/Applications/ArmGNUToolchain/13.2.Rel1/arm-none-eabi/arm-none-eabi/include/c++/13.2.1/bits/stl_algobase.h ****   template<typename _CharT, typename _Size>
 596:/Applications/ArmGNUToolchain/13.2.Rel1/arm-none-eabi/arm-none-eabi/include/c++/13.2.1/bits/stl_algobase.h ****     typename __gnu_cxx::__enable_if<
 597:/Applications/ArmGNUToolchain/13.2.Rel1/arm-none-eabi/arm-none-eabi/include/c++/13.2.1/bits/stl_algobase.h ****       __is_char<_CharT>::__value,
 598:/Applications/ArmGNUToolchain/13.2.Rel1/arm-none-eabi/arm-none-eabi/include/c++/13.2.1/bits/stl_algobase.h ****       _GLIBCXX_STD_C::_Deque_iterator<_CharT, _CharT&, _CharT*> >::__type
 599:/Applications/ArmGNUToolchain/13.2.Rel1/arm-none-eabi/arm-none-eabi/include/c++/13.2.1/bits/stl_algobase.h ****     __copy_n_a(istreambuf_iterator<_CharT, char_traits<_CharT> >, _Size,
 600:/Applications/ArmGNUToolchain/13.2.Rel1/arm-none-eabi/arm-none-eabi/include/c++/13.2.1/bits/stl_algobase.h **** 	       _GLIBCXX_STD_C::_Deque_iterator<_CharT, _CharT&, _CharT*>,
 601:/Applications/ArmGNUToolchain/13.2.Rel1/arm-none-eabi/arm-none-eabi/include/c++/13.2.1/bits/stl_algobase.h **** 	       bool);
 602:/Applications/ArmGNUToolchain/13.2.Rel1/arm-none-eabi/arm-none-eabi/include/c++/13.2.1/bits/stl_algobase.h **** #endif
 603:/Applications/ArmGNUToolchain/13.2.Rel1/arm-none-eabi/arm-none-eabi/include/c++/13.2.1/bits/stl_algobase.h **** 
 604:/Applications/ArmGNUToolchain/13.2.Rel1/arm-none-eabi/arm-none-eabi/include/c++/13.2.1/bits/stl_algobase.h ****   /**
 605:/Applications/ArmGNUToolchain/13.2.Rel1/arm-none-eabi/arm-none-eabi/include/c++/13.2.1/bits/stl_algobase.h ****    *  @brief Copies the range [first,last) into result.
 606:/Applications/ArmGNUToolchain/13.2.Rel1/arm-none-eabi/arm-none-eabi/include/c++/13.2.1/bits/stl_algobase.h ****    *  @ingroup mutating_algorithms
 607:/Applications/ArmGNUToolchain/13.2.Rel1/arm-none-eabi/arm-none-eabi/include/c++/13.2.1/bits/stl_algobase.h ****    *  @param  __first  An input iterator.
 608:/Applications/ArmGNUToolchain/13.2.Rel1/arm-none-eabi/arm-none-eabi/include/c++/13.2.1/bits/stl_algobase.h ****    *  @param  __last   An input iterator.
 609:/Applications/ArmGNUToolchain/13.2.Rel1/arm-none-eabi/arm-none-eabi/include/c++/13.2.1/bits/stl_algobase.h ****    *  @param  __result An output iterator.
 610:/Applications/ArmGNUToolchain/13.2.Rel1/arm-none-eabi/arm-none-eabi/include/c++/13.2.1/bits/stl_algobase.h ****    *  @return   result + (last - first)
ARM GAS  /var/folders/83/vwtnzcdn1v99b_lf0k0gsjzr0000gn/T//cc93oyUL.s 			page 55


 611:/Applications/ArmGNUToolchain/13.2.Rel1/arm-none-eabi/arm-none-eabi/include/c++/13.2.1/bits/stl_algobase.h ****    *
 612:/Applications/ArmGNUToolchain/13.2.Rel1/arm-none-eabi/arm-none-eabi/include/c++/13.2.1/bits/stl_algobase.h ****    *  This inline function will boil down to a call to @c memmove whenever
 613:/Applications/ArmGNUToolchain/13.2.Rel1/arm-none-eabi/arm-none-eabi/include/c++/13.2.1/bits/stl_algobase.h ****    *  possible.  Failing that, if random access iterators are passed, then the
 614:/Applications/ArmGNUToolchain/13.2.Rel1/arm-none-eabi/arm-none-eabi/include/c++/13.2.1/bits/stl_algobase.h ****    *  loop count will be known (and therefore a candidate for compiler
 615:/Applications/ArmGNUToolchain/13.2.Rel1/arm-none-eabi/arm-none-eabi/include/c++/13.2.1/bits/stl_algobase.h ****    *  optimizations such as unrolling).  Result may not be contained within
 616:/Applications/ArmGNUToolchain/13.2.Rel1/arm-none-eabi/arm-none-eabi/include/c++/13.2.1/bits/stl_algobase.h ****    *  [first,last); the copy_backward function should be used instead.
 617:/Applications/ArmGNUToolchain/13.2.Rel1/arm-none-eabi/arm-none-eabi/include/c++/13.2.1/bits/stl_algobase.h ****    *
 618:/Applications/ArmGNUToolchain/13.2.Rel1/arm-none-eabi/arm-none-eabi/include/c++/13.2.1/bits/stl_algobase.h ****    *  Note that the end of the output range is permitted to be contained
 619:/Applications/ArmGNUToolchain/13.2.Rel1/arm-none-eabi/arm-none-eabi/include/c++/13.2.1/bits/stl_algobase.h ****    *  within [first,last).
 620:/Applications/ArmGNUToolchain/13.2.Rel1/arm-none-eabi/arm-none-eabi/include/c++/13.2.1/bits/stl_algobase.h ****   */
 621:/Applications/ArmGNUToolchain/13.2.Rel1/arm-none-eabi/arm-none-eabi/include/c++/13.2.1/bits/stl_algobase.h ****   template<typename _II, typename _OI>
 622:/Applications/ArmGNUToolchain/13.2.Rel1/arm-none-eabi/arm-none-eabi/include/c++/13.2.1/bits/stl_algobase.h ****     _GLIBCXX20_CONSTEXPR
 623:/Applications/ArmGNUToolchain/13.2.Rel1/arm-none-eabi/arm-none-eabi/include/c++/13.2.1/bits/stl_algobase.h ****     inline _OI
 624:/Applications/ArmGNUToolchain/13.2.Rel1/arm-none-eabi/arm-none-eabi/include/c++/13.2.1/bits/stl_algobase.h ****     copy(_II __first, _II __last, _OI __result)
 625:/Applications/ArmGNUToolchain/13.2.Rel1/arm-none-eabi/arm-none-eabi/include/c++/13.2.1/bits/stl_algobase.h ****     {
 626:/Applications/ArmGNUToolchain/13.2.Rel1/arm-none-eabi/arm-none-eabi/include/c++/13.2.1/bits/stl_algobase.h ****       // concept requirements
 627:/Applications/ArmGNUToolchain/13.2.Rel1/arm-none-eabi/arm-none-eabi/include/c++/13.2.1/bits/stl_algobase.h ****       __glibcxx_function_requires(_InputIteratorConcept<_II>)
 628:/Applications/ArmGNUToolchain/13.2.Rel1/arm-none-eabi/arm-none-eabi/include/c++/13.2.1/bits/stl_algobase.h ****       __glibcxx_function_requires(_OutputIteratorConcept<_OI,
 629:/Applications/ArmGNUToolchain/13.2.Rel1/arm-none-eabi/arm-none-eabi/include/c++/13.2.1/bits/stl_algobase.h **** 	    typename iterator_traits<_II>::reference>)
 630:/Applications/ArmGNUToolchain/13.2.Rel1/arm-none-eabi/arm-none-eabi/include/c++/13.2.1/bits/stl_algobase.h ****       __glibcxx_requires_can_increment_range(__first, __last, __result);
 631:/Applications/ArmGNUToolchain/13.2.Rel1/arm-none-eabi/arm-none-eabi/include/c++/13.2.1/bits/stl_algobase.h **** 
 632:/Applications/ArmGNUToolchain/13.2.Rel1/arm-none-eabi/arm-none-eabi/include/c++/13.2.1/bits/stl_algobase.h ****       return std::__copy_move_a<__is_move_iterator<_II>::__value>
 633:/Applications/ArmGNUToolchain/13.2.Rel1/arm-none-eabi/arm-none-eabi/include/c++/13.2.1/bits/stl_algobase.h **** 	     (std::__miter_base(__first), std::__miter_base(__last), __result);
 634:/Applications/ArmGNUToolchain/13.2.Rel1/arm-none-eabi/arm-none-eabi/include/c++/13.2.1/bits/stl_algobase.h ****     }
 635:/Applications/ArmGNUToolchain/13.2.Rel1/arm-none-eabi/arm-none-eabi/include/c++/13.2.1/bits/stl_algobase.h **** 
 636:/Applications/ArmGNUToolchain/13.2.Rel1/arm-none-eabi/arm-none-eabi/include/c++/13.2.1/bits/stl_algobase.h **** #if __cplusplus >= 201103L
 637:/Applications/ArmGNUToolchain/13.2.Rel1/arm-none-eabi/arm-none-eabi/include/c++/13.2.1/bits/stl_algobase.h ****   /**
 638:/Applications/ArmGNUToolchain/13.2.Rel1/arm-none-eabi/arm-none-eabi/include/c++/13.2.1/bits/stl_algobase.h ****    *  @brief Moves the range [first,last) into result.
 639:/Applications/ArmGNUToolchain/13.2.Rel1/arm-none-eabi/arm-none-eabi/include/c++/13.2.1/bits/stl_algobase.h ****    *  @ingroup mutating_algorithms
 640:/Applications/ArmGNUToolchain/13.2.Rel1/arm-none-eabi/arm-none-eabi/include/c++/13.2.1/bits/stl_algobase.h ****    *  @param  __first  An input iterator.
 641:/Applications/ArmGNUToolchain/13.2.Rel1/arm-none-eabi/arm-none-eabi/include/c++/13.2.1/bits/stl_algobase.h ****    *  @param  __last   An input iterator.
 642:/Applications/ArmGNUToolchain/13.2.Rel1/arm-none-eabi/arm-none-eabi/include/c++/13.2.1/bits/stl_algobase.h ****    *  @param  __result An output iterator.
 643:/Applications/ArmGNUToolchain/13.2.Rel1/arm-none-eabi/arm-none-eabi/include/c++/13.2.1/bits/stl_algobase.h ****    *  @return   result + (last - first)
 644:/Applications/ArmGNUToolchain/13.2.Rel1/arm-none-eabi/arm-none-eabi/include/c++/13.2.1/bits/stl_algobase.h ****    *
 645:/Applications/ArmGNUToolchain/13.2.Rel1/arm-none-eabi/arm-none-eabi/include/c++/13.2.1/bits/stl_algobase.h ****    *  This inline function will boil down to a call to @c memmove whenever
 646:/Applications/ArmGNUToolchain/13.2.Rel1/arm-none-eabi/arm-none-eabi/include/c++/13.2.1/bits/stl_algobase.h ****    *  possible.  Failing that, if random access iterators are passed, then the
 647:/Applications/ArmGNUToolchain/13.2.Rel1/arm-none-eabi/arm-none-eabi/include/c++/13.2.1/bits/stl_algobase.h ****    *  loop count will be known (and therefore a candidate for compiler
 648:/Applications/ArmGNUToolchain/13.2.Rel1/arm-none-eabi/arm-none-eabi/include/c++/13.2.1/bits/stl_algobase.h ****    *  optimizations such as unrolling).  Result may not be contained within
 649:/Applications/ArmGNUToolchain/13.2.Rel1/arm-none-eabi/arm-none-eabi/include/c++/13.2.1/bits/stl_algobase.h ****    *  [first,last); the move_backward function should be used instead.
 650:/Applications/ArmGNUToolchain/13.2.Rel1/arm-none-eabi/arm-none-eabi/include/c++/13.2.1/bits/stl_algobase.h ****    *
 651:/Applications/ArmGNUToolchain/13.2.Rel1/arm-none-eabi/arm-none-eabi/include/c++/13.2.1/bits/stl_algobase.h ****    *  Note that the end of the output range is permitted to be contained
 652:/Applications/ArmGNUToolchain/13.2.Rel1/arm-none-eabi/arm-none-eabi/include/c++/13.2.1/bits/stl_algobase.h ****    *  within [first,last).
 653:/Applications/ArmGNUToolchain/13.2.Rel1/arm-none-eabi/arm-none-eabi/include/c++/13.2.1/bits/stl_algobase.h ****   */
 654:/Applications/ArmGNUToolchain/13.2.Rel1/arm-none-eabi/arm-none-eabi/include/c++/13.2.1/bits/stl_algobase.h ****   template<typename _II, typename _OI>
 655:/Applications/ArmGNUToolchain/13.2.Rel1/arm-none-eabi/arm-none-eabi/include/c++/13.2.1/bits/stl_algobase.h ****     _GLIBCXX20_CONSTEXPR
 656:/Applications/ArmGNUToolchain/13.2.Rel1/arm-none-eabi/arm-none-eabi/include/c++/13.2.1/bits/stl_algobase.h ****     inline _OI
 657:/Applications/ArmGNUToolchain/13.2.Rel1/arm-none-eabi/arm-none-eabi/include/c++/13.2.1/bits/stl_algobase.h ****     move(_II __first, _II __last, _OI __result)
 658:/Applications/ArmGNUToolchain/13.2.Rel1/arm-none-eabi/arm-none-eabi/include/c++/13.2.1/bits/stl_algobase.h ****     {
 659:/Applications/ArmGNUToolchain/13.2.Rel1/arm-none-eabi/arm-none-eabi/include/c++/13.2.1/bits/stl_algobase.h ****       // concept requirements
 660:/Applications/ArmGNUToolchain/13.2.Rel1/arm-none-eabi/arm-none-eabi/include/c++/13.2.1/bits/stl_algobase.h ****       __glibcxx_function_requires(_InputIteratorConcept<_II>)
 661:/Applications/ArmGNUToolchain/13.2.Rel1/arm-none-eabi/arm-none-eabi/include/c++/13.2.1/bits/stl_algobase.h ****       __glibcxx_function_requires(_OutputIteratorConcept<_OI,
 662:/Applications/ArmGNUToolchain/13.2.Rel1/arm-none-eabi/arm-none-eabi/include/c++/13.2.1/bits/stl_algobase.h **** 	    typename iterator_traits<_II>::value_type&&>)
 663:/Applications/ArmGNUToolchain/13.2.Rel1/arm-none-eabi/arm-none-eabi/include/c++/13.2.1/bits/stl_algobase.h ****       __glibcxx_requires_can_increment_range(__first, __last, __result);
 664:/Applications/ArmGNUToolchain/13.2.Rel1/arm-none-eabi/arm-none-eabi/include/c++/13.2.1/bits/stl_algobase.h **** 
 665:/Applications/ArmGNUToolchain/13.2.Rel1/arm-none-eabi/arm-none-eabi/include/c++/13.2.1/bits/stl_algobase.h ****       return std::__copy_move_a<true>(std::__miter_base(__first),
 666:/Applications/ArmGNUToolchain/13.2.Rel1/arm-none-eabi/arm-none-eabi/include/c++/13.2.1/bits/stl_algobase.h **** 				      std::__miter_base(__last), __result);
 667:/Applications/ArmGNUToolchain/13.2.Rel1/arm-none-eabi/arm-none-eabi/include/c++/13.2.1/bits/stl_algobase.h ****     }
ARM GAS  /var/folders/83/vwtnzcdn1v99b_lf0k0gsjzr0000gn/T//cc93oyUL.s 			page 56


 668:/Applications/ArmGNUToolchain/13.2.Rel1/arm-none-eabi/arm-none-eabi/include/c++/13.2.1/bits/stl_algobase.h **** 
 669:/Applications/ArmGNUToolchain/13.2.Rel1/arm-none-eabi/arm-none-eabi/include/c++/13.2.1/bits/stl_algobase.h **** #define _GLIBCXX_MOVE3(_Tp, _Up, _Vp) std::move(_Tp, _Up, _Vp)
 670:/Applications/ArmGNUToolchain/13.2.Rel1/arm-none-eabi/arm-none-eabi/include/c++/13.2.1/bits/stl_algobase.h **** #else
 671:/Applications/ArmGNUToolchain/13.2.Rel1/arm-none-eabi/arm-none-eabi/include/c++/13.2.1/bits/stl_algobase.h **** #define _GLIBCXX_MOVE3(_Tp, _Up, _Vp) std::copy(_Tp, _Up, _Vp)
 672:/Applications/ArmGNUToolchain/13.2.Rel1/arm-none-eabi/arm-none-eabi/include/c++/13.2.1/bits/stl_algobase.h **** #endif
 673:/Applications/ArmGNUToolchain/13.2.Rel1/arm-none-eabi/arm-none-eabi/include/c++/13.2.1/bits/stl_algobase.h **** 
 674:/Applications/ArmGNUToolchain/13.2.Rel1/arm-none-eabi/arm-none-eabi/include/c++/13.2.1/bits/stl_algobase.h ****   template<bool _IsMove, bool _IsSimple, typename _Category>
 675:/Applications/ArmGNUToolchain/13.2.Rel1/arm-none-eabi/arm-none-eabi/include/c++/13.2.1/bits/stl_algobase.h ****     struct __copy_move_backward
 676:/Applications/ArmGNUToolchain/13.2.Rel1/arm-none-eabi/arm-none-eabi/include/c++/13.2.1/bits/stl_algobase.h ****     {
 677:/Applications/ArmGNUToolchain/13.2.Rel1/arm-none-eabi/arm-none-eabi/include/c++/13.2.1/bits/stl_algobase.h ****       template<typename _BI1, typename _BI2>
 678:/Applications/ArmGNUToolchain/13.2.Rel1/arm-none-eabi/arm-none-eabi/include/c++/13.2.1/bits/stl_algobase.h **** 	_GLIBCXX20_CONSTEXPR
 679:/Applications/ArmGNUToolchain/13.2.Rel1/arm-none-eabi/arm-none-eabi/include/c++/13.2.1/bits/stl_algobase.h **** 	static _BI2
 680:/Applications/ArmGNUToolchain/13.2.Rel1/arm-none-eabi/arm-none-eabi/include/c++/13.2.1/bits/stl_algobase.h **** 	__copy_move_b(_BI1 __first, _BI1 __last, _BI2 __result)
 681:/Applications/ArmGNUToolchain/13.2.Rel1/arm-none-eabi/arm-none-eabi/include/c++/13.2.1/bits/stl_algobase.h **** 	{
 682:/Applications/ArmGNUToolchain/13.2.Rel1/arm-none-eabi/arm-none-eabi/include/c++/13.2.1/bits/stl_algobase.h **** 	  while (__first != __last)
 683:/Applications/ArmGNUToolchain/13.2.Rel1/arm-none-eabi/arm-none-eabi/include/c++/13.2.1/bits/stl_algobase.h **** 	    *--__result = *--__last;
 684:/Applications/ArmGNUToolchain/13.2.Rel1/arm-none-eabi/arm-none-eabi/include/c++/13.2.1/bits/stl_algobase.h **** 	  return __result;
 685:/Applications/ArmGNUToolchain/13.2.Rel1/arm-none-eabi/arm-none-eabi/include/c++/13.2.1/bits/stl_algobase.h **** 	}
 686:/Applications/ArmGNUToolchain/13.2.Rel1/arm-none-eabi/arm-none-eabi/include/c++/13.2.1/bits/stl_algobase.h ****     };
 687:/Applications/ArmGNUToolchain/13.2.Rel1/arm-none-eabi/arm-none-eabi/include/c++/13.2.1/bits/stl_algobase.h **** 
 688:/Applications/ArmGNUToolchain/13.2.Rel1/arm-none-eabi/arm-none-eabi/include/c++/13.2.1/bits/stl_algobase.h **** #if __cplusplus >= 201103L
 689:/Applications/ArmGNUToolchain/13.2.Rel1/arm-none-eabi/arm-none-eabi/include/c++/13.2.1/bits/stl_algobase.h ****   template<typename _Category>
 690:/Applications/ArmGNUToolchain/13.2.Rel1/arm-none-eabi/arm-none-eabi/include/c++/13.2.1/bits/stl_algobase.h ****     struct __copy_move_backward<true, false, _Category>
 691:/Applications/ArmGNUToolchain/13.2.Rel1/arm-none-eabi/arm-none-eabi/include/c++/13.2.1/bits/stl_algobase.h ****     {
 692:/Applications/ArmGNUToolchain/13.2.Rel1/arm-none-eabi/arm-none-eabi/include/c++/13.2.1/bits/stl_algobase.h ****       template<typename _BI1, typename _BI2>
 693:/Applications/ArmGNUToolchain/13.2.Rel1/arm-none-eabi/arm-none-eabi/include/c++/13.2.1/bits/stl_algobase.h **** 	_GLIBCXX20_CONSTEXPR
 694:/Applications/ArmGNUToolchain/13.2.Rel1/arm-none-eabi/arm-none-eabi/include/c++/13.2.1/bits/stl_algobase.h **** 	static _BI2
 695:/Applications/ArmGNUToolchain/13.2.Rel1/arm-none-eabi/arm-none-eabi/include/c++/13.2.1/bits/stl_algobase.h **** 	__copy_move_b(_BI1 __first, _BI1 __last, _BI2 __result)
 696:/Applications/ArmGNUToolchain/13.2.Rel1/arm-none-eabi/arm-none-eabi/include/c++/13.2.1/bits/stl_algobase.h **** 	{
 697:/Applications/ArmGNUToolchain/13.2.Rel1/arm-none-eabi/arm-none-eabi/include/c++/13.2.1/bits/stl_algobase.h **** 	  while (__first != __last)
 698:/Applications/ArmGNUToolchain/13.2.Rel1/arm-none-eabi/arm-none-eabi/include/c++/13.2.1/bits/stl_algobase.h **** 	    *--__result = std::move(*--__last);
 699:/Applications/ArmGNUToolchain/13.2.Rel1/arm-none-eabi/arm-none-eabi/include/c++/13.2.1/bits/stl_algobase.h **** 	  return __result;
 700:/Applications/ArmGNUToolchain/13.2.Rel1/arm-none-eabi/arm-none-eabi/include/c++/13.2.1/bits/stl_algobase.h **** 	}
 701:/Applications/ArmGNUToolchain/13.2.Rel1/arm-none-eabi/arm-none-eabi/include/c++/13.2.1/bits/stl_algobase.h ****     };
 702:/Applications/ArmGNUToolchain/13.2.Rel1/arm-none-eabi/arm-none-eabi/include/c++/13.2.1/bits/stl_algobase.h **** #endif
 703:/Applications/ArmGNUToolchain/13.2.Rel1/arm-none-eabi/arm-none-eabi/include/c++/13.2.1/bits/stl_algobase.h **** 
 704:/Applications/ArmGNUToolchain/13.2.Rel1/arm-none-eabi/arm-none-eabi/include/c++/13.2.1/bits/stl_algobase.h ****   template<>
 705:/Applications/ArmGNUToolchain/13.2.Rel1/arm-none-eabi/arm-none-eabi/include/c++/13.2.1/bits/stl_algobase.h ****     struct __copy_move_backward<false, false, random_access_iterator_tag>
 706:/Applications/ArmGNUToolchain/13.2.Rel1/arm-none-eabi/arm-none-eabi/include/c++/13.2.1/bits/stl_algobase.h ****     {
 707:/Applications/ArmGNUToolchain/13.2.Rel1/arm-none-eabi/arm-none-eabi/include/c++/13.2.1/bits/stl_algobase.h ****       template<typename _BI1, typename _BI2>
 708:/Applications/ArmGNUToolchain/13.2.Rel1/arm-none-eabi/arm-none-eabi/include/c++/13.2.1/bits/stl_algobase.h **** 	_GLIBCXX20_CONSTEXPR
 709:/Applications/ArmGNUToolchain/13.2.Rel1/arm-none-eabi/arm-none-eabi/include/c++/13.2.1/bits/stl_algobase.h **** 	static _BI2
 710:/Applications/ArmGNUToolchain/13.2.Rel1/arm-none-eabi/arm-none-eabi/include/c++/13.2.1/bits/stl_algobase.h **** 	__copy_move_b(_BI1 __first, _BI1 __last, _BI2 __result)
 711:/Applications/ArmGNUToolchain/13.2.Rel1/arm-none-eabi/arm-none-eabi/include/c++/13.2.1/bits/stl_algobase.h **** 	{
 712:/Applications/ArmGNUToolchain/13.2.Rel1/arm-none-eabi/arm-none-eabi/include/c++/13.2.1/bits/stl_algobase.h **** 	  typename iterator_traits<_BI1>::difference_type
 713:/Applications/ArmGNUToolchain/13.2.Rel1/arm-none-eabi/arm-none-eabi/include/c++/13.2.1/bits/stl_algobase.h **** 	    __n = __last - __first;
 714:/Applications/ArmGNUToolchain/13.2.Rel1/arm-none-eabi/arm-none-eabi/include/c++/13.2.1/bits/stl_algobase.h **** 	  for (; __n > 0; --__n)
 715:/Applications/ArmGNUToolchain/13.2.Rel1/arm-none-eabi/arm-none-eabi/include/c++/13.2.1/bits/stl_algobase.h **** 	    *--__result = *--__last;
 716:/Applications/ArmGNUToolchain/13.2.Rel1/arm-none-eabi/arm-none-eabi/include/c++/13.2.1/bits/stl_algobase.h **** 	  return __result;
 717:/Applications/ArmGNUToolchain/13.2.Rel1/arm-none-eabi/arm-none-eabi/include/c++/13.2.1/bits/stl_algobase.h **** 	}
 718:/Applications/ArmGNUToolchain/13.2.Rel1/arm-none-eabi/arm-none-eabi/include/c++/13.2.1/bits/stl_algobase.h ****     };
 719:/Applications/ArmGNUToolchain/13.2.Rel1/arm-none-eabi/arm-none-eabi/include/c++/13.2.1/bits/stl_algobase.h **** 
 720:/Applications/ArmGNUToolchain/13.2.Rel1/arm-none-eabi/arm-none-eabi/include/c++/13.2.1/bits/stl_algobase.h **** #if __cplusplus >= 201103L
 721:/Applications/ArmGNUToolchain/13.2.Rel1/arm-none-eabi/arm-none-eabi/include/c++/13.2.1/bits/stl_algobase.h ****   template<>
 722:/Applications/ArmGNUToolchain/13.2.Rel1/arm-none-eabi/arm-none-eabi/include/c++/13.2.1/bits/stl_algobase.h ****     struct __copy_move_backward<true, false, random_access_iterator_tag>
 723:/Applications/ArmGNUToolchain/13.2.Rel1/arm-none-eabi/arm-none-eabi/include/c++/13.2.1/bits/stl_algobase.h ****     {
 724:/Applications/ArmGNUToolchain/13.2.Rel1/arm-none-eabi/arm-none-eabi/include/c++/13.2.1/bits/stl_algobase.h ****       template<typename _BI1, typename _BI2>
ARM GAS  /var/folders/83/vwtnzcdn1v99b_lf0k0gsjzr0000gn/T//cc93oyUL.s 			page 57


 725:/Applications/ArmGNUToolchain/13.2.Rel1/arm-none-eabi/arm-none-eabi/include/c++/13.2.1/bits/stl_algobase.h **** 	_GLIBCXX20_CONSTEXPR
 726:/Applications/ArmGNUToolchain/13.2.Rel1/arm-none-eabi/arm-none-eabi/include/c++/13.2.1/bits/stl_algobase.h **** 	static _BI2
 727:/Applications/ArmGNUToolchain/13.2.Rel1/arm-none-eabi/arm-none-eabi/include/c++/13.2.1/bits/stl_algobase.h **** 	__copy_move_b(_BI1 __first, _BI1 __last, _BI2 __result)
 728:/Applications/ArmGNUToolchain/13.2.Rel1/arm-none-eabi/arm-none-eabi/include/c++/13.2.1/bits/stl_algobase.h **** 	{
 729:/Applications/ArmGNUToolchain/13.2.Rel1/arm-none-eabi/arm-none-eabi/include/c++/13.2.1/bits/stl_algobase.h **** 	  typename iterator_traits<_BI1>::difference_type
 730:/Applications/ArmGNUToolchain/13.2.Rel1/arm-none-eabi/arm-none-eabi/include/c++/13.2.1/bits/stl_algobase.h **** 	    __n = __last - __first;
 731:/Applications/ArmGNUToolchain/13.2.Rel1/arm-none-eabi/arm-none-eabi/include/c++/13.2.1/bits/stl_algobase.h **** 	  for (; __n > 0; --__n)
 732:/Applications/ArmGNUToolchain/13.2.Rel1/arm-none-eabi/arm-none-eabi/include/c++/13.2.1/bits/stl_algobase.h **** 	    *--__result = std::move(*--__last);
 733:/Applications/ArmGNUToolchain/13.2.Rel1/arm-none-eabi/arm-none-eabi/include/c++/13.2.1/bits/stl_algobase.h **** 	  return __result;
 734:/Applications/ArmGNUToolchain/13.2.Rel1/arm-none-eabi/arm-none-eabi/include/c++/13.2.1/bits/stl_algobase.h **** 	}
 735:/Applications/ArmGNUToolchain/13.2.Rel1/arm-none-eabi/arm-none-eabi/include/c++/13.2.1/bits/stl_algobase.h ****     };
 736:/Applications/ArmGNUToolchain/13.2.Rel1/arm-none-eabi/arm-none-eabi/include/c++/13.2.1/bits/stl_algobase.h **** #endif
 737:/Applications/ArmGNUToolchain/13.2.Rel1/arm-none-eabi/arm-none-eabi/include/c++/13.2.1/bits/stl_algobase.h **** 
 738:/Applications/ArmGNUToolchain/13.2.Rel1/arm-none-eabi/arm-none-eabi/include/c++/13.2.1/bits/stl_algobase.h ****   template<bool _IsMove>
 739:/Applications/ArmGNUToolchain/13.2.Rel1/arm-none-eabi/arm-none-eabi/include/c++/13.2.1/bits/stl_algobase.h ****     struct __copy_move_backward<_IsMove, true, random_access_iterator_tag>
 740:/Applications/ArmGNUToolchain/13.2.Rel1/arm-none-eabi/arm-none-eabi/include/c++/13.2.1/bits/stl_algobase.h ****     {
 741:/Applications/ArmGNUToolchain/13.2.Rel1/arm-none-eabi/arm-none-eabi/include/c++/13.2.1/bits/stl_algobase.h ****       template<typename _Tp, typename _Up>
 742:/Applications/ArmGNUToolchain/13.2.Rel1/arm-none-eabi/arm-none-eabi/include/c++/13.2.1/bits/stl_algobase.h **** 	_GLIBCXX20_CONSTEXPR
 743:/Applications/ArmGNUToolchain/13.2.Rel1/arm-none-eabi/arm-none-eabi/include/c++/13.2.1/bits/stl_algobase.h **** 	static _Up*
 744:/Applications/ArmGNUToolchain/13.2.Rel1/arm-none-eabi/arm-none-eabi/include/c++/13.2.1/bits/stl_algobase.h **** 	__copy_move_b(_Tp* __first, _Tp* __last, _Up* __result)
 745:/Applications/ArmGNUToolchain/13.2.Rel1/arm-none-eabi/arm-none-eabi/include/c++/13.2.1/bits/stl_algobase.h **** 	{
 746:/Applications/ArmGNUToolchain/13.2.Rel1/arm-none-eabi/arm-none-eabi/include/c++/13.2.1/bits/stl_algobase.h **** 	  const ptrdiff_t _Num = __last - __first;
 747:/Applications/ArmGNUToolchain/13.2.Rel1/arm-none-eabi/arm-none-eabi/include/c++/13.2.1/bits/stl_algobase.h **** 	  if (__builtin_expect(_Num > 1, true))
 748:/Applications/ArmGNUToolchain/13.2.Rel1/arm-none-eabi/arm-none-eabi/include/c++/13.2.1/bits/stl_algobase.h **** 	    __builtin_memmove(__result - _Num, __first, sizeof(_Tp) * _Num);
 749:/Applications/ArmGNUToolchain/13.2.Rel1/arm-none-eabi/arm-none-eabi/include/c++/13.2.1/bits/stl_algobase.h **** 	  else if (_Num == 1)
 750:/Applications/ArmGNUToolchain/13.2.Rel1/arm-none-eabi/arm-none-eabi/include/c++/13.2.1/bits/stl_algobase.h **** 	    std::__copy_move<_IsMove, false, random_access_iterator_tag>::
 751:/Applications/ArmGNUToolchain/13.2.Rel1/arm-none-eabi/arm-none-eabi/include/c++/13.2.1/bits/stl_algobase.h **** 	      __assign_one(__result - 1, __first);
 752:/Applications/ArmGNUToolchain/13.2.Rel1/arm-none-eabi/arm-none-eabi/include/c++/13.2.1/bits/stl_algobase.h **** 	  return __result - _Num;
 753:/Applications/ArmGNUToolchain/13.2.Rel1/arm-none-eabi/arm-none-eabi/include/c++/13.2.1/bits/stl_algobase.h **** 	}
 754:/Applications/ArmGNUToolchain/13.2.Rel1/arm-none-eabi/arm-none-eabi/include/c++/13.2.1/bits/stl_algobase.h ****     };
 755:/Applications/ArmGNUToolchain/13.2.Rel1/arm-none-eabi/arm-none-eabi/include/c++/13.2.1/bits/stl_algobase.h **** 
 756:/Applications/ArmGNUToolchain/13.2.Rel1/arm-none-eabi/arm-none-eabi/include/c++/13.2.1/bits/stl_algobase.h ****   template<bool _IsMove, typename _BI1, typename _BI2>
 757:/Applications/ArmGNUToolchain/13.2.Rel1/arm-none-eabi/arm-none-eabi/include/c++/13.2.1/bits/stl_algobase.h ****     _GLIBCXX20_CONSTEXPR
 758:/Applications/ArmGNUToolchain/13.2.Rel1/arm-none-eabi/arm-none-eabi/include/c++/13.2.1/bits/stl_algobase.h ****     inline _BI2
 759:/Applications/ArmGNUToolchain/13.2.Rel1/arm-none-eabi/arm-none-eabi/include/c++/13.2.1/bits/stl_algobase.h ****     __copy_move_backward_a2(_BI1 __first, _BI1 __last, _BI2 __result)
 760:/Applications/ArmGNUToolchain/13.2.Rel1/arm-none-eabi/arm-none-eabi/include/c++/13.2.1/bits/stl_algobase.h ****     {
 761:/Applications/ArmGNUToolchain/13.2.Rel1/arm-none-eabi/arm-none-eabi/include/c++/13.2.1/bits/stl_algobase.h ****       typedef typename iterator_traits<_BI1>::iterator_category _Category;
 762:/Applications/ArmGNUToolchain/13.2.Rel1/arm-none-eabi/arm-none-eabi/include/c++/13.2.1/bits/stl_algobase.h **** #ifdef __cpp_lib_is_constant_evaluated
 763:/Applications/ArmGNUToolchain/13.2.Rel1/arm-none-eabi/arm-none-eabi/include/c++/13.2.1/bits/stl_algobase.h ****       if (std::is_constant_evaluated())
 764:/Applications/ArmGNUToolchain/13.2.Rel1/arm-none-eabi/arm-none-eabi/include/c++/13.2.1/bits/stl_algobase.h **** 	return std::__copy_move_backward<_IsMove, false, _Category>::
 765:/Applications/ArmGNUToolchain/13.2.Rel1/arm-none-eabi/arm-none-eabi/include/c++/13.2.1/bits/stl_algobase.h **** 	  __copy_move_b(__first, __last, __result);
 766:/Applications/ArmGNUToolchain/13.2.Rel1/arm-none-eabi/arm-none-eabi/include/c++/13.2.1/bits/stl_algobase.h **** #endif
 767:/Applications/ArmGNUToolchain/13.2.Rel1/arm-none-eabi/arm-none-eabi/include/c++/13.2.1/bits/stl_algobase.h ****       return std::__copy_move_backward<_IsMove,
 768:/Applications/ArmGNUToolchain/13.2.Rel1/arm-none-eabi/arm-none-eabi/include/c++/13.2.1/bits/stl_algobase.h **** 				       __memcpyable<_BI2, _BI1>::__value,
 769:/Applications/ArmGNUToolchain/13.2.Rel1/arm-none-eabi/arm-none-eabi/include/c++/13.2.1/bits/stl_algobase.h **** 				       _Category>::__copy_move_b(__first,
 770:/Applications/ArmGNUToolchain/13.2.Rel1/arm-none-eabi/arm-none-eabi/include/c++/13.2.1/bits/stl_algobase.h **** 								 __last,
 771:/Applications/ArmGNUToolchain/13.2.Rel1/arm-none-eabi/arm-none-eabi/include/c++/13.2.1/bits/stl_algobase.h **** 								 __result);
 772:/Applications/ArmGNUToolchain/13.2.Rel1/arm-none-eabi/arm-none-eabi/include/c++/13.2.1/bits/stl_algobase.h ****     }
 773:/Applications/ArmGNUToolchain/13.2.Rel1/arm-none-eabi/arm-none-eabi/include/c++/13.2.1/bits/stl_algobase.h **** 
 774:/Applications/ArmGNUToolchain/13.2.Rel1/arm-none-eabi/arm-none-eabi/include/c++/13.2.1/bits/stl_algobase.h ****   template<bool _IsMove, typename _BI1, typename _BI2>
 775:/Applications/ArmGNUToolchain/13.2.Rel1/arm-none-eabi/arm-none-eabi/include/c++/13.2.1/bits/stl_algobase.h ****     _GLIBCXX20_CONSTEXPR
 776:/Applications/ArmGNUToolchain/13.2.Rel1/arm-none-eabi/arm-none-eabi/include/c++/13.2.1/bits/stl_algobase.h ****     inline _BI2
 777:/Applications/ArmGNUToolchain/13.2.Rel1/arm-none-eabi/arm-none-eabi/include/c++/13.2.1/bits/stl_algobase.h ****     __copy_move_backward_a1(_BI1 __first, _BI1 __last, _BI2 __result)
 778:/Applications/ArmGNUToolchain/13.2.Rel1/arm-none-eabi/arm-none-eabi/include/c++/13.2.1/bits/stl_algobase.h ****     { return std::__copy_move_backward_a2<_IsMove>(__first, __last, __result); }
 779:/Applications/ArmGNUToolchain/13.2.Rel1/arm-none-eabi/arm-none-eabi/include/c++/13.2.1/bits/stl_algobase.h **** 
 780:/Applications/ArmGNUToolchain/13.2.Rel1/arm-none-eabi/arm-none-eabi/include/c++/13.2.1/bits/stl_algobase.h ****   template<bool _IsMove,
 781:/Applications/ArmGNUToolchain/13.2.Rel1/arm-none-eabi/arm-none-eabi/include/c++/13.2.1/bits/stl_algobase.h **** 	   typename _Tp, typename _Ref, typename _Ptr, typename _OI>
ARM GAS  /var/folders/83/vwtnzcdn1v99b_lf0k0gsjzr0000gn/T//cc93oyUL.s 			page 58


 782:/Applications/ArmGNUToolchain/13.2.Rel1/arm-none-eabi/arm-none-eabi/include/c++/13.2.1/bits/stl_algobase.h ****     _OI
 783:/Applications/ArmGNUToolchain/13.2.Rel1/arm-none-eabi/arm-none-eabi/include/c++/13.2.1/bits/stl_algobase.h ****     __copy_move_backward_a1(_GLIBCXX_STD_C::_Deque_iterator<_Tp, _Ref, _Ptr>,
 784:/Applications/ArmGNUToolchain/13.2.Rel1/arm-none-eabi/arm-none-eabi/include/c++/13.2.1/bits/stl_algobase.h **** 			    _GLIBCXX_STD_C::_Deque_iterator<_Tp, _Ref, _Ptr>,
 785:/Applications/ArmGNUToolchain/13.2.Rel1/arm-none-eabi/arm-none-eabi/include/c++/13.2.1/bits/stl_algobase.h **** 			    _OI);
 786:/Applications/ArmGNUToolchain/13.2.Rel1/arm-none-eabi/arm-none-eabi/include/c++/13.2.1/bits/stl_algobase.h **** 
 787:/Applications/ArmGNUToolchain/13.2.Rel1/arm-none-eabi/arm-none-eabi/include/c++/13.2.1/bits/stl_algobase.h ****   template<bool _IsMove,
 788:/Applications/ArmGNUToolchain/13.2.Rel1/arm-none-eabi/arm-none-eabi/include/c++/13.2.1/bits/stl_algobase.h **** 	   typename _ITp, typename _IRef, typename _IPtr, typename _OTp>
 789:/Applications/ArmGNUToolchain/13.2.Rel1/arm-none-eabi/arm-none-eabi/include/c++/13.2.1/bits/stl_algobase.h ****     _GLIBCXX_STD_C::_Deque_iterator<_OTp, _OTp&, _OTp*>
 790:/Applications/ArmGNUToolchain/13.2.Rel1/arm-none-eabi/arm-none-eabi/include/c++/13.2.1/bits/stl_algobase.h ****     __copy_move_backward_a1(
 791:/Applications/ArmGNUToolchain/13.2.Rel1/arm-none-eabi/arm-none-eabi/include/c++/13.2.1/bits/stl_algobase.h **** 			_GLIBCXX_STD_C::_Deque_iterator<_ITp, _IRef, _IPtr>,
 792:/Applications/ArmGNUToolchain/13.2.Rel1/arm-none-eabi/arm-none-eabi/include/c++/13.2.1/bits/stl_algobase.h **** 			_GLIBCXX_STD_C::_Deque_iterator<_ITp, _IRef, _IPtr>,
 793:/Applications/ArmGNUToolchain/13.2.Rel1/arm-none-eabi/arm-none-eabi/include/c++/13.2.1/bits/stl_algobase.h **** 			_GLIBCXX_STD_C::_Deque_iterator<_OTp, _OTp&, _OTp*>);
 794:/Applications/ArmGNUToolchain/13.2.Rel1/arm-none-eabi/arm-none-eabi/include/c++/13.2.1/bits/stl_algobase.h **** 
 795:/Applications/ArmGNUToolchain/13.2.Rel1/arm-none-eabi/arm-none-eabi/include/c++/13.2.1/bits/stl_algobase.h ****   template<bool _IsMove, typename _II, typename _Tp>
 796:/Applications/ArmGNUToolchain/13.2.Rel1/arm-none-eabi/arm-none-eabi/include/c++/13.2.1/bits/stl_algobase.h ****     typename __gnu_cxx::__enable_if<
 797:/Applications/ArmGNUToolchain/13.2.Rel1/arm-none-eabi/arm-none-eabi/include/c++/13.2.1/bits/stl_algobase.h ****       __is_random_access_iter<_II>::__value,
 798:/Applications/ArmGNUToolchain/13.2.Rel1/arm-none-eabi/arm-none-eabi/include/c++/13.2.1/bits/stl_algobase.h ****       _GLIBCXX_STD_C::_Deque_iterator<_Tp, _Tp&, _Tp*> >::__type
 799:/Applications/ArmGNUToolchain/13.2.Rel1/arm-none-eabi/arm-none-eabi/include/c++/13.2.1/bits/stl_algobase.h ****     __copy_move_backward_a1(_II, _II,
 800:/Applications/ArmGNUToolchain/13.2.Rel1/arm-none-eabi/arm-none-eabi/include/c++/13.2.1/bits/stl_algobase.h **** 			    _GLIBCXX_STD_C::_Deque_iterator<_Tp, _Tp&, _Tp*>);
 801:/Applications/ArmGNUToolchain/13.2.Rel1/arm-none-eabi/arm-none-eabi/include/c++/13.2.1/bits/stl_algobase.h **** 
 802:/Applications/ArmGNUToolchain/13.2.Rel1/arm-none-eabi/arm-none-eabi/include/c++/13.2.1/bits/stl_algobase.h ****   template<bool _IsMove, typename _II, typename _OI>
 803:/Applications/ArmGNUToolchain/13.2.Rel1/arm-none-eabi/arm-none-eabi/include/c++/13.2.1/bits/stl_algobase.h ****     _GLIBCXX20_CONSTEXPR
 804:/Applications/ArmGNUToolchain/13.2.Rel1/arm-none-eabi/arm-none-eabi/include/c++/13.2.1/bits/stl_algobase.h ****     inline _OI
 805:/Applications/ArmGNUToolchain/13.2.Rel1/arm-none-eabi/arm-none-eabi/include/c++/13.2.1/bits/stl_algobase.h ****     __copy_move_backward_a(_II __first, _II __last, _OI __result)
 806:/Applications/ArmGNUToolchain/13.2.Rel1/arm-none-eabi/arm-none-eabi/include/c++/13.2.1/bits/stl_algobase.h ****     {
 807:/Applications/ArmGNUToolchain/13.2.Rel1/arm-none-eabi/arm-none-eabi/include/c++/13.2.1/bits/stl_algobase.h ****       return std::__niter_wrap(__result,
 808:/Applications/ArmGNUToolchain/13.2.Rel1/arm-none-eabi/arm-none-eabi/include/c++/13.2.1/bits/stl_algobase.h **** 		std::__copy_move_backward_a1<_IsMove>
 809:/Applications/ArmGNUToolchain/13.2.Rel1/arm-none-eabi/arm-none-eabi/include/c++/13.2.1/bits/stl_algobase.h **** 		  (std::__niter_base(__first), std::__niter_base(__last),
 810:/Applications/ArmGNUToolchain/13.2.Rel1/arm-none-eabi/arm-none-eabi/include/c++/13.2.1/bits/stl_algobase.h **** 		   std::__niter_base(__result)));
 811:/Applications/ArmGNUToolchain/13.2.Rel1/arm-none-eabi/arm-none-eabi/include/c++/13.2.1/bits/stl_algobase.h ****     }
 812:/Applications/ArmGNUToolchain/13.2.Rel1/arm-none-eabi/arm-none-eabi/include/c++/13.2.1/bits/stl_algobase.h **** 
 813:/Applications/ArmGNUToolchain/13.2.Rel1/arm-none-eabi/arm-none-eabi/include/c++/13.2.1/bits/stl_algobase.h ****   template<bool _IsMove,
 814:/Applications/ArmGNUToolchain/13.2.Rel1/arm-none-eabi/arm-none-eabi/include/c++/13.2.1/bits/stl_algobase.h **** 	   typename _Ite, typename _Seq, typename _Cat, typename _OI>
 815:/Applications/ArmGNUToolchain/13.2.Rel1/arm-none-eabi/arm-none-eabi/include/c++/13.2.1/bits/stl_algobase.h ****     _OI
 816:/Applications/ArmGNUToolchain/13.2.Rel1/arm-none-eabi/arm-none-eabi/include/c++/13.2.1/bits/stl_algobase.h ****     __copy_move_backward_a(
 817:/Applications/ArmGNUToolchain/13.2.Rel1/arm-none-eabi/arm-none-eabi/include/c++/13.2.1/bits/stl_algobase.h **** 		const ::__gnu_debug::_Safe_iterator<_Ite, _Seq, _Cat>&,
 818:/Applications/ArmGNUToolchain/13.2.Rel1/arm-none-eabi/arm-none-eabi/include/c++/13.2.1/bits/stl_algobase.h **** 		const ::__gnu_debug::_Safe_iterator<_Ite, _Seq, _Cat>&,
 819:/Applications/ArmGNUToolchain/13.2.Rel1/arm-none-eabi/arm-none-eabi/include/c++/13.2.1/bits/stl_algobase.h **** 		_OI);
 820:/Applications/ArmGNUToolchain/13.2.Rel1/arm-none-eabi/arm-none-eabi/include/c++/13.2.1/bits/stl_algobase.h **** 
 821:/Applications/ArmGNUToolchain/13.2.Rel1/arm-none-eabi/arm-none-eabi/include/c++/13.2.1/bits/stl_algobase.h ****   template<bool _IsMove,
 822:/Applications/ArmGNUToolchain/13.2.Rel1/arm-none-eabi/arm-none-eabi/include/c++/13.2.1/bits/stl_algobase.h **** 	   typename _II, typename _Ite, typename _Seq, typename _Cat>
 823:/Applications/ArmGNUToolchain/13.2.Rel1/arm-none-eabi/arm-none-eabi/include/c++/13.2.1/bits/stl_algobase.h ****     __gnu_debug::_Safe_iterator<_Ite, _Seq, _Cat>
 824:/Applications/ArmGNUToolchain/13.2.Rel1/arm-none-eabi/arm-none-eabi/include/c++/13.2.1/bits/stl_algobase.h ****     __copy_move_backward_a(_II, _II,
 825:/Applications/ArmGNUToolchain/13.2.Rel1/arm-none-eabi/arm-none-eabi/include/c++/13.2.1/bits/stl_algobase.h **** 		const ::__gnu_debug::_Safe_iterator<_Ite, _Seq, _Cat>&);
 826:/Applications/ArmGNUToolchain/13.2.Rel1/arm-none-eabi/arm-none-eabi/include/c++/13.2.1/bits/stl_algobase.h **** 
 827:/Applications/ArmGNUToolchain/13.2.Rel1/arm-none-eabi/arm-none-eabi/include/c++/13.2.1/bits/stl_algobase.h ****   template<bool _IsMove,
 828:/Applications/ArmGNUToolchain/13.2.Rel1/arm-none-eabi/arm-none-eabi/include/c++/13.2.1/bits/stl_algobase.h **** 	   typename _IIte, typename _ISeq, typename _ICat,
 829:/Applications/ArmGNUToolchain/13.2.Rel1/arm-none-eabi/arm-none-eabi/include/c++/13.2.1/bits/stl_algobase.h **** 	   typename _OIte, typename _OSeq, typename _OCat>
 830:/Applications/ArmGNUToolchain/13.2.Rel1/arm-none-eabi/arm-none-eabi/include/c++/13.2.1/bits/stl_algobase.h ****     ::__gnu_debug::_Safe_iterator<_OIte, _OSeq, _OCat>
 831:/Applications/ArmGNUToolchain/13.2.Rel1/arm-none-eabi/arm-none-eabi/include/c++/13.2.1/bits/stl_algobase.h ****     __copy_move_backward_a(
 832:/Applications/ArmGNUToolchain/13.2.Rel1/arm-none-eabi/arm-none-eabi/include/c++/13.2.1/bits/stl_algobase.h **** 		const ::__gnu_debug::_Safe_iterator<_IIte, _ISeq, _ICat>&,
 833:/Applications/ArmGNUToolchain/13.2.Rel1/arm-none-eabi/arm-none-eabi/include/c++/13.2.1/bits/stl_algobase.h **** 		const ::__gnu_debug::_Safe_iterator<_IIte, _ISeq, _ICat>&,
 834:/Applications/ArmGNUToolchain/13.2.Rel1/arm-none-eabi/arm-none-eabi/include/c++/13.2.1/bits/stl_algobase.h **** 		const ::__gnu_debug::_Safe_iterator<_OIte, _OSeq, _OCat>&);
 835:/Applications/ArmGNUToolchain/13.2.Rel1/arm-none-eabi/arm-none-eabi/include/c++/13.2.1/bits/stl_algobase.h **** 
 836:/Applications/ArmGNUToolchain/13.2.Rel1/arm-none-eabi/arm-none-eabi/include/c++/13.2.1/bits/stl_algobase.h ****   /**
 837:/Applications/ArmGNUToolchain/13.2.Rel1/arm-none-eabi/arm-none-eabi/include/c++/13.2.1/bits/stl_algobase.h ****    *  @brief Copies the range [first,last) into result.
 838:/Applications/ArmGNUToolchain/13.2.Rel1/arm-none-eabi/arm-none-eabi/include/c++/13.2.1/bits/stl_algobase.h ****    *  @ingroup mutating_algorithms
ARM GAS  /var/folders/83/vwtnzcdn1v99b_lf0k0gsjzr0000gn/T//cc93oyUL.s 			page 59


 839:/Applications/ArmGNUToolchain/13.2.Rel1/arm-none-eabi/arm-none-eabi/include/c++/13.2.1/bits/stl_algobase.h ****    *  @param  __first  A bidirectional iterator.
 840:/Applications/ArmGNUToolchain/13.2.Rel1/arm-none-eabi/arm-none-eabi/include/c++/13.2.1/bits/stl_algobase.h ****    *  @param  __last   A bidirectional iterator.
 841:/Applications/ArmGNUToolchain/13.2.Rel1/arm-none-eabi/arm-none-eabi/include/c++/13.2.1/bits/stl_algobase.h ****    *  @param  __result A bidirectional iterator.
 842:/Applications/ArmGNUToolchain/13.2.Rel1/arm-none-eabi/arm-none-eabi/include/c++/13.2.1/bits/stl_algobase.h ****    *  @return   result - (last - first)
 843:/Applications/ArmGNUToolchain/13.2.Rel1/arm-none-eabi/arm-none-eabi/include/c++/13.2.1/bits/stl_algobase.h ****    *
 844:/Applications/ArmGNUToolchain/13.2.Rel1/arm-none-eabi/arm-none-eabi/include/c++/13.2.1/bits/stl_algobase.h ****    *  The function has the same effect as copy, but starts at the end of the
 845:/Applications/ArmGNUToolchain/13.2.Rel1/arm-none-eabi/arm-none-eabi/include/c++/13.2.1/bits/stl_algobase.h ****    *  range and works its way to the start, returning the start of the result.
 846:/Applications/ArmGNUToolchain/13.2.Rel1/arm-none-eabi/arm-none-eabi/include/c++/13.2.1/bits/stl_algobase.h ****    *  This inline function will boil down to a call to @c memmove whenever
 847:/Applications/ArmGNUToolchain/13.2.Rel1/arm-none-eabi/arm-none-eabi/include/c++/13.2.1/bits/stl_algobase.h ****    *  possible.  Failing that, if random access iterators are passed, then the
 848:/Applications/ArmGNUToolchain/13.2.Rel1/arm-none-eabi/arm-none-eabi/include/c++/13.2.1/bits/stl_algobase.h ****    *  loop count will be known (and therefore a candidate for compiler
 849:/Applications/ArmGNUToolchain/13.2.Rel1/arm-none-eabi/arm-none-eabi/include/c++/13.2.1/bits/stl_algobase.h ****    *  optimizations such as unrolling).
 850:/Applications/ArmGNUToolchain/13.2.Rel1/arm-none-eabi/arm-none-eabi/include/c++/13.2.1/bits/stl_algobase.h ****    *
 851:/Applications/ArmGNUToolchain/13.2.Rel1/arm-none-eabi/arm-none-eabi/include/c++/13.2.1/bits/stl_algobase.h ****    *  Result may not be in the range (first,last].  Use copy instead.  Note
 852:/Applications/ArmGNUToolchain/13.2.Rel1/arm-none-eabi/arm-none-eabi/include/c++/13.2.1/bits/stl_algobase.h ****    *  that the start of the output range may overlap [first,last).
 853:/Applications/ArmGNUToolchain/13.2.Rel1/arm-none-eabi/arm-none-eabi/include/c++/13.2.1/bits/stl_algobase.h ****   */
 854:/Applications/ArmGNUToolchain/13.2.Rel1/arm-none-eabi/arm-none-eabi/include/c++/13.2.1/bits/stl_algobase.h ****   template<typename _BI1, typename _BI2>
 855:/Applications/ArmGNUToolchain/13.2.Rel1/arm-none-eabi/arm-none-eabi/include/c++/13.2.1/bits/stl_algobase.h ****     _GLIBCXX20_CONSTEXPR
 856:/Applications/ArmGNUToolchain/13.2.Rel1/arm-none-eabi/arm-none-eabi/include/c++/13.2.1/bits/stl_algobase.h ****     inline _BI2
 857:/Applications/ArmGNUToolchain/13.2.Rel1/arm-none-eabi/arm-none-eabi/include/c++/13.2.1/bits/stl_algobase.h ****     copy_backward(_BI1 __first, _BI1 __last, _BI2 __result)
 858:/Applications/ArmGNUToolchain/13.2.Rel1/arm-none-eabi/arm-none-eabi/include/c++/13.2.1/bits/stl_algobase.h ****     {
 859:/Applications/ArmGNUToolchain/13.2.Rel1/arm-none-eabi/arm-none-eabi/include/c++/13.2.1/bits/stl_algobase.h ****       // concept requirements
 860:/Applications/ArmGNUToolchain/13.2.Rel1/arm-none-eabi/arm-none-eabi/include/c++/13.2.1/bits/stl_algobase.h ****       __glibcxx_function_requires(_BidirectionalIteratorConcept<_BI1>)
 861:/Applications/ArmGNUToolchain/13.2.Rel1/arm-none-eabi/arm-none-eabi/include/c++/13.2.1/bits/stl_algobase.h ****       __glibcxx_function_requires(_Mutable_BidirectionalIteratorConcept<_BI2>)
 862:/Applications/ArmGNUToolchain/13.2.Rel1/arm-none-eabi/arm-none-eabi/include/c++/13.2.1/bits/stl_algobase.h ****       __glibcxx_function_requires(_OutputIteratorConcept<_BI2,
 863:/Applications/ArmGNUToolchain/13.2.Rel1/arm-none-eabi/arm-none-eabi/include/c++/13.2.1/bits/stl_algobase.h **** 	    typename iterator_traits<_BI1>::reference>)
 864:/Applications/ArmGNUToolchain/13.2.Rel1/arm-none-eabi/arm-none-eabi/include/c++/13.2.1/bits/stl_algobase.h ****       __glibcxx_requires_can_decrement_range(__first, __last, __result);
 865:/Applications/ArmGNUToolchain/13.2.Rel1/arm-none-eabi/arm-none-eabi/include/c++/13.2.1/bits/stl_algobase.h **** 
 866:/Applications/ArmGNUToolchain/13.2.Rel1/arm-none-eabi/arm-none-eabi/include/c++/13.2.1/bits/stl_algobase.h ****       return std::__copy_move_backward_a<__is_move_iterator<_BI1>::__value>
 867:/Applications/ArmGNUToolchain/13.2.Rel1/arm-none-eabi/arm-none-eabi/include/c++/13.2.1/bits/stl_algobase.h **** 	     (std::__miter_base(__first), std::__miter_base(__last), __result);
 868:/Applications/ArmGNUToolchain/13.2.Rel1/arm-none-eabi/arm-none-eabi/include/c++/13.2.1/bits/stl_algobase.h ****     }
 869:/Applications/ArmGNUToolchain/13.2.Rel1/arm-none-eabi/arm-none-eabi/include/c++/13.2.1/bits/stl_algobase.h **** 
 870:/Applications/ArmGNUToolchain/13.2.Rel1/arm-none-eabi/arm-none-eabi/include/c++/13.2.1/bits/stl_algobase.h **** #if __cplusplus >= 201103L
 871:/Applications/ArmGNUToolchain/13.2.Rel1/arm-none-eabi/arm-none-eabi/include/c++/13.2.1/bits/stl_algobase.h ****   /**
 872:/Applications/ArmGNUToolchain/13.2.Rel1/arm-none-eabi/arm-none-eabi/include/c++/13.2.1/bits/stl_algobase.h ****    *  @brief Moves the range [first,last) into result.
 873:/Applications/ArmGNUToolchain/13.2.Rel1/arm-none-eabi/arm-none-eabi/include/c++/13.2.1/bits/stl_algobase.h ****    *  @ingroup mutating_algorithms
 874:/Applications/ArmGNUToolchain/13.2.Rel1/arm-none-eabi/arm-none-eabi/include/c++/13.2.1/bits/stl_algobase.h ****    *  @param  __first  A bidirectional iterator.
 875:/Applications/ArmGNUToolchain/13.2.Rel1/arm-none-eabi/arm-none-eabi/include/c++/13.2.1/bits/stl_algobase.h ****    *  @param  __last   A bidirectional iterator.
 876:/Applications/ArmGNUToolchain/13.2.Rel1/arm-none-eabi/arm-none-eabi/include/c++/13.2.1/bits/stl_algobase.h ****    *  @param  __result A bidirectional iterator.
 877:/Applications/ArmGNUToolchain/13.2.Rel1/arm-none-eabi/arm-none-eabi/include/c++/13.2.1/bits/stl_algobase.h ****    *  @return   result - (last - first)
 878:/Applications/ArmGNUToolchain/13.2.Rel1/arm-none-eabi/arm-none-eabi/include/c++/13.2.1/bits/stl_algobase.h ****    *
 879:/Applications/ArmGNUToolchain/13.2.Rel1/arm-none-eabi/arm-none-eabi/include/c++/13.2.1/bits/stl_algobase.h ****    *  The function has the same effect as move, but starts at the end of the
 880:/Applications/ArmGNUToolchain/13.2.Rel1/arm-none-eabi/arm-none-eabi/include/c++/13.2.1/bits/stl_algobase.h ****    *  range and works its way to the start, returning the start of the result.
 881:/Applications/ArmGNUToolchain/13.2.Rel1/arm-none-eabi/arm-none-eabi/include/c++/13.2.1/bits/stl_algobase.h ****    *  This inline function will boil down to a call to @c memmove whenever
 882:/Applications/ArmGNUToolchain/13.2.Rel1/arm-none-eabi/arm-none-eabi/include/c++/13.2.1/bits/stl_algobase.h ****    *  possible.  Failing that, if random access iterators are passed, then the
 883:/Applications/ArmGNUToolchain/13.2.Rel1/arm-none-eabi/arm-none-eabi/include/c++/13.2.1/bits/stl_algobase.h ****    *  loop count will be known (and therefore a candidate for compiler
 884:/Applications/ArmGNUToolchain/13.2.Rel1/arm-none-eabi/arm-none-eabi/include/c++/13.2.1/bits/stl_algobase.h ****    *  optimizations such as unrolling).
 885:/Applications/ArmGNUToolchain/13.2.Rel1/arm-none-eabi/arm-none-eabi/include/c++/13.2.1/bits/stl_algobase.h ****    *
 886:/Applications/ArmGNUToolchain/13.2.Rel1/arm-none-eabi/arm-none-eabi/include/c++/13.2.1/bits/stl_algobase.h ****    *  Result may not be in the range (first,last].  Use move instead.  Note
 887:/Applications/ArmGNUToolchain/13.2.Rel1/arm-none-eabi/arm-none-eabi/include/c++/13.2.1/bits/stl_algobase.h ****    *  that the start of the output range may overlap [first,last).
 888:/Applications/ArmGNUToolchain/13.2.Rel1/arm-none-eabi/arm-none-eabi/include/c++/13.2.1/bits/stl_algobase.h ****   */
 889:/Applications/ArmGNUToolchain/13.2.Rel1/arm-none-eabi/arm-none-eabi/include/c++/13.2.1/bits/stl_algobase.h ****   template<typename _BI1, typename _BI2>
 890:/Applications/ArmGNUToolchain/13.2.Rel1/arm-none-eabi/arm-none-eabi/include/c++/13.2.1/bits/stl_algobase.h ****     _GLIBCXX20_CONSTEXPR
 891:/Applications/ArmGNUToolchain/13.2.Rel1/arm-none-eabi/arm-none-eabi/include/c++/13.2.1/bits/stl_algobase.h ****     inline _BI2
 892:/Applications/ArmGNUToolchain/13.2.Rel1/arm-none-eabi/arm-none-eabi/include/c++/13.2.1/bits/stl_algobase.h ****     move_backward(_BI1 __first, _BI1 __last, _BI2 __result)
 893:/Applications/ArmGNUToolchain/13.2.Rel1/arm-none-eabi/arm-none-eabi/include/c++/13.2.1/bits/stl_algobase.h ****     {
 894:/Applications/ArmGNUToolchain/13.2.Rel1/arm-none-eabi/arm-none-eabi/include/c++/13.2.1/bits/stl_algobase.h ****       // concept requirements
 895:/Applications/ArmGNUToolchain/13.2.Rel1/arm-none-eabi/arm-none-eabi/include/c++/13.2.1/bits/stl_algobase.h ****       __glibcxx_function_requires(_BidirectionalIteratorConcept<_BI1>)
ARM GAS  /var/folders/83/vwtnzcdn1v99b_lf0k0gsjzr0000gn/T//cc93oyUL.s 			page 60


 896:/Applications/ArmGNUToolchain/13.2.Rel1/arm-none-eabi/arm-none-eabi/include/c++/13.2.1/bits/stl_algobase.h ****       __glibcxx_function_requires(_Mutable_BidirectionalIteratorConcept<_BI2>)
 897:/Applications/ArmGNUToolchain/13.2.Rel1/arm-none-eabi/arm-none-eabi/include/c++/13.2.1/bits/stl_algobase.h ****       __glibcxx_function_requires(_OutputIteratorConcept<_BI2,
 898:/Applications/ArmGNUToolchain/13.2.Rel1/arm-none-eabi/arm-none-eabi/include/c++/13.2.1/bits/stl_algobase.h **** 	    typename iterator_traits<_BI1>::value_type&&>)
 899:/Applications/ArmGNUToolchain/13.2.Rel1/arm-none-eabi/arm-none-eabi/include/c++/13.2.1/bits/stl_algobase.h ****       __glibcxx_requires_can_decrement_range(__first, __last, __result);
 900:/Applications/ArmGNUToolchain/13.2.Rel1/arm-none-eabi/arm-none-eabi/include/c++/13.2.1/bits/stl_algobase.h **** 
 901:/Applications/ArmGNUToolchain/13.2.Rel1/arm-none-eabi/arm-none-eabi/include/c++/13.2.1/bits/stl_algobase.h ****       return std::__copy_move_backward_a<true>(std::__miter_base(__first),
 902:/Applications/ArmGNUToolchain/13.2.Rel1/arm-none-eabi/arm-none-eabi/include/c++/13.2.1/bits/stl_algobase.h **** 					       std::__miter_base(__last),
 903:/Applications/ArmGNUToolchain/13.2.Rel1/arm-none-eabi/arm-none-eabi/include/c++/13.2.1/bits/stl_algobase.h **** 					       __result);
 904:/Applications/ArmGNUToolchain/13.2.Rel1/arm-none-eabi/arm-none-eabi/include/c++/13.2.1/bits/stl_algobase.h ****     }
 905:/Applications/ArmGNUToolchain/13.2.Rel1/arm-none-eabi/arm-none-eabi/include/c++/13.2.1/bits/stl_algobase.h **** 
 906:/Applications/ArmGNUToolchain/13.2.Rel1/arm-none-eabi/arm-none-eabi/include/c++/13.2.1/bits/stl_algobase.h **** #define _GLIBCXX_MOVE_BACKWARD3(_Tp, _Up, _Vp) std::move_backward(_Tp, _Up, _Vp)
 907:/Applications/ArmGNUToolchain/13.2.Rel1/arm-none-eabi/arm-none-eabi/include/c++/13.2.1/bits/stl_algobase.h **** #else
 908:/Applications/ArmGNUToolchain/13.2.Rel1/arm-none-eabi/arm-none-eabi/include/c++/13.2.1/bits/stl_algobase.h **** #define _GLIBCXX_MOVE_BACKWARD3(_Tp, _Up, _Vp) std::copy_backward(_Tp, _Up, _Vp)
 909:/Applications/ArmGNUToolchain/13.2.Rel1/arm-none-eabi/arm-none-eabi/include/c++/13.2.1/bits/stl_algobase.h **** #endif
 910:/Applications/ArmGNUToolchain/13.2.Rel1/arm-none-eabi/arm-none-eabi/include/c++/13.2.1/bits/stl_algobase.h **** 
 911:/Applications/ArmGNUToolchain/13.2.Rel1/arm-none-eabi/arm-none-eabi/include/c++/13.2.1/bits/stl_algobase.h ****   template<typename _ForwardIterator, typename _Tp>
 912:/Applications/ArmGNUToolchain/13.2.Rel1/arm-none-eabi/arm-none-eabi/include/c++/13.2.1/bits/stl_algobase.h ****     _GLIBCXX20_CONSTEXPR
 913:/Applications/ArmGNUToolchain/13.2.Rel1/arm-none-eabi/arm-none-eabi/include/c++/13.2.1/bits/stl_algobase.h ****     inline typename
 914:/Applications/ArmGNUToolchain/13.2.Rel1/arm-none-eabi/arm-none-eabi/include/c++/13.2.1/bits/stl_algobase.h ****     __gnu_cxx::__enable_if<!__is_scalar<_Tp>::__value, void>::__type
 915:/Applications/ArmGNUToolchain/13.2.Rel1/arm-none-eabi/arm-none-eabi/include/c++/13.2.1/bits/stl_algobase.h ****     __fill_a1(_ForwardIterator __first, _ForwardIterator __last,
 916:/Applications/ArmGNUToolchain/13.2.Rel1/arm-none-eabi/arm-none-eabi/include/c++/13.2.1/bits/stl_algobase.h **** 	      const _Tp& __value)
 917:/Applications/ArmGNUToolchain/13.2.Rel1/arm-none-eabi/arm-none-eabi/include/c++/13.2.1/bits/stl_algobase.h ****     {
 918:/Applications/ArmGNUToolchain/13.2.Rel1/arm-none-eabi/arm-none-eabi/include/c++/13.2.1/bits/stl_algobase.h ****       for (; __first != __last; ++__first)
 919:/Applications/ArmGNUToolchain/13.2.Rel1/arm-none-eabi/arm-none-eabi/include/c++/13.2.1/bits/stl_algobase.h **** 	*__first = __value;
 920:/Applications/ArmGNUToolchain/13.2.Rel1/arm-none-eabi/arm-none-eabi/include/c++/13.2.1/bits/stl_algobase.h ****     }
 921:/Applications/ArmGNUToolchain/13.2.Rel1/arm-none-eabi/arm-none-eabi/include/c++/13.2.1/bits/stl_algobase.h **** 
 922:/Applications/ArmGNUToolchain/13.2.Rel1/arm-none-eabi/arm-none-eabi/include/c++/13.2.1/bits/stl_algobase.h ****   template<typename _ForwardIterator, typename _Tp>
 923:/Applications/ArmGNUToolchain/13.2.Rel1/arm-none-eabi/arm-none-eabi/include/c++/13.2.1/bits/stl_algobase.h ****     _GLIBCXX20_CONSTEXPR
 924:/Applications/ArmGNUToolchain/13.2.Rel1/arm-none-eabi/arm-none-eabi/include/c++/13.2.1/bits/stl_algobase.h ****     inline typename
 925:/Applications/ArmGNUToolchain/13.2.Rel1/arm-none-eabi/arm-none-eabi/include/c++/13.2.1/bits/stl_algobase.h ****     __gnu_cxx::__enable_if<__is_scalar<_Tp>::__value, void>::__type
 926:/Applications/ArmGNUToolchain/13.2.Rel1/arm-none-eabi/arm-none-eabi/include/c++/13.2.1/bits/stl_algobase.h ****     __fill_a1(_ForwardIterator __first, _ForwardIterator __last,
 927:/Applications/ArmGNUToolchain/13.2.Rel1/arm-none-eabi/arm-none-eabi/include/c++/13.2.1/bits/stl_algobase.h **** 	      const _Tp& __value)
 928:/Applications/ArmGNUToolchain/13.2.Rel1/arm-none-eabi/arm-none-eabi/include/c++/13.2.1/bits/stl_algobase.h ****     {
 929:/Applications/ArmGNUToolchain/13.2.Rel1/arm-none-eabi/arm-none-eabi/include/c++/13.2.1/bits/stl_algobase.h ****       const _Tp __tmp = __value;
 930:/Applications/ArmGNUToolchain/13.2.Rel1/arm-none-eabi/arm-none-eabi/include/c++/13.2.1/bits/stl_algobase.h ****       for (; __first != __last; ++__first)
 931:/Applications/ArmGNUToolchain/13.2.Rel1/arm-none-eabi/arm-none-eabi/include/c++/13.2.1/bits/stl_algobase.h **** 	*__first = __tmp;
 932:/Applications/ArmGNUToolchain/13.2.Rel1/arm-none-eabi/arm-none-eabi/include/c++/13.2.1/bits/stl_algobase.h ****     }
 933:/Applications/ArmGNUToolchain/13.2.Rel1/arm-none-eabi/arm-none-eabi/include/c++/13.2.1/bits/stl_algobase.h **** 
 934:/Applications/ArmGNUToolchain/13.2.Rel1/arm-none-eabi/arm-none-eabi/include/c++/13.2.1/bits/stl_algobase.h ****   // Specialization: for char types we can use memset.
 935:/Applications/ArmGNUToolchain/13.2.Rel1/arm-none-eabi/arm-none-eabi/include/c++/13.2.1/bits/stl_algobase.h ****   template<typename _Tp>
 936:/Applications/ArmGNUToolchain/13.2.Rel1/arm-none-eabi/arm-none-eabi/include/c++/13.2.1/bits/stl_algobase.h ****     _GLIBCXX20_CONSTEXPR
 937:/Applications/ArmGNUToolchain/13.2.Rel1/arm-none-eabi/arm-none-eabi/include/c++/13.2.1/bits/stl_algobase.h ****     inline typename
 938:/Applications/ArmGNUToolchain/13.2.Rel1/arm-none-eabi/arm-none-eabi/include/c++/13.2.1/bits/stl_algobase.h ****     __gnu_cxx::__enable_if<__is_byte<_Tp>::__value, void>::__type
 939:/Applications/ArmGNUToolchain/13.2.Rel1/arm-none-eabi/arm-none-eabi/include/c++/13.2.1/bits/stl_algobase.h ****     __fill_a1(_Tp* __first, _Tp* __last, const _Tp& __c)
 940:/Applications/ArmGNUToolchain/13.2.Rel1/arm-none-eabi/arm-none-eabi/include/c++/13.2.1/bits/stl_algobase.h ****     {
 941:/Applications/ArmGNUToolchain/13.2.Rel1/arm-none-eabi/arm-none-eabi/include/c++/13.2.1/bits/stl_algobase.h ****       const _Tp __tmp = __c;
 942:/Applications/ArmGNUToolchain/13.2.Rel1/arm-none-eabi/arm-none-eabi/include/c++/13.2.1/bits/stl_algobase.h **** #if __cpp_lib_is_constant_evaluated
 943:/Applications/ArmGNUToolchain/13.2.Rel1/arm-none-eabi/arm-none-eabi/include/c++/13.2.1/bits/stl_algobase.h ****       if (std::is_constant_evaluated())
 944:/Applications/ArmGNUToolchain/13.2.Rel1/arm-none-eabi/arm-none-eabi/include/c++/13.2.1/bits/stl_algobase.h **** 	{
 945:/Applications/ArmGNUToolchain/13.2.Rel1/arm-none-eabi/arm-none-eabi/include/c++/13.2.1/bits/stl_algobase.h **** 	  for (; __first != __last; ++__first)
 946:/Applications/ArmGNUToolchain/13.2.Rel1/arm-none-eabi/arm-none-eabi/include/c++/13.2.1/bits/stl_algobase.h **** 	    *__first = __tmp;
 947:/Applications/ArmGNUToolchain/13.2.Rel1/arm-none-eabi/arm-none-eabi/include/c++/13.2.1/bits/stl_algobase.h **** 	  return;
 948:/Applications/ArmGNUToolchain/13.2.Rel1/arm-none-eabi/arm-none-eabi/include/c++/13.2.1/bits/stl_algobase.h **** 	}
 949:/Applications/ArmGNUToolchain/13.2.Rel1/arm-none-eabi/arm-none-eabi/include/c++/13.2.1/bits/stl_algobase.h **** #endif
 950:/Applications/ArmGNUToolchain/13.2.Rel1/arm-none-eabi/arm-none-eabi/include/c++/13.2.1/bits/stl_algobase.h ****       if (const size_t __len = __last - __first)
 951:/Applications/ArmGNUToolchain/13.2.Rel1/arm-none-eabi/arm-none-eabi/include/c++/13.2.1/bits/stl_algobase.h **** 	__builtin_memset(__first, static_cast<unsigned char>(__tmp), __len);
 952:/Applications/ArmGNUToolchain/13.2.Rel1/arm-none-eabi/arm-none-eabi/include/c++/13.2.1/bits/stl_algobase.h ****     }
ARM GAS  /var/folders/83/vwtnzcdn1v99b_lf0k0gsjzr0000gn/T//cc93oyUL.s 			page 61


 953:/Applications/ArmGNUToolchain/13.2.Rel1/arm-none-eabi/arm-none-eabi/include/c++/13.2.1/bits/stl_algobase.h **** 
 954:/Applications/ArmGNUToolchain/13.2.Rel1/arm-none-eabi/arm-none-eabi/include/c++/13.2.1/bits/stl_algobase.h ****   template<typename _Ite, typename _Cont, typename _Tp>
 955:/Applications/ArmGNUToolchain/13.2.Rel1/arm-none-eabi/arm-none-eabi/include/c++/13.2.1/bits/stl_algobase.h ****     _GLIBCXX20_CONSTEXPR
 956:/Applications/ArmGNUToolchain/13.2.Rel1/arm-none-eabi/arm-none-eabi/include/c++/13.2.1/bits/stl_algobase.h ****     inline void
 957:/Applications/ArmGNUToolchain/13.2.Rel1/arm-none-eabi/arm-none-eabi/include/c++/13.2.1/bits/stl_algobase.h ****     __fill_a1(::__gnu_cxx::__normal_iterator<_Ite, _Cont> __first,
 958:/Applications/ArmGNUToolchain/13.2.Rel1/arm-none-eabi/arm-none-eabi/include/c++/13.2.1/bits/stl_algobase.h **** 	      ::__gnu_cxx::__normal_iterator<_Ite, _Cont> __last,
 959:/Applications/ArmGNUToolchain/13.2.Rel1/arm-none-eabi/arm-none-eabi/include/c++/13.2.1/bits/stl_algobase.h **** 	      const _Tp& __value)
 960:/Applications/ArmGNUToolchain/13.2.Rel1/arm-none-eabi/arm-none-eabi/include/c++/13.2.1/bits/stl_algobase.h ****     { std::__fill_a1(__first.base(), __last.base(), __value); }
 961:/Applications/ArmGNUToolchain/13.2.Rel1/arm-none-eabi/arm-none-eabi/include/c++/13.2.1/bits/stl_algobase.h **** 
 962:/Applications/ArmGNUToolchain/13.2.Rel1/arm-none-eabi/arm-none-eabi/include/c++/13.2.1/bits/stl_algobase.h ****   template<typename _Tp, typename _VTp>
 963:/Applications/ArmGNUToolchain/13.2.Rel1/arm-none-eabi/arm-none-eabi/include/c++/13.2.1/bits/stl_algobase.h ****     void
 964:/Applications/ArmGNUToolchain/13.2.Rel1/arm-none-eabi/arm-none-eabi/include/c++/13.2.1/bits/stl_algobase.h ****     __fill_a1(const _GLIBCXX_STD_C::_Deque_iterator<_Tp, _Tp&, _Tp*>&,
 965:/Applications/ArmGNUToolchain/13.2.Rel1/arm-none-eabi/arm-none-eabi/include/c++/13.2.1/bits/stl_algobase.h **** 	      const _GLIBCXX_STD_C::_Deque_iterator<_Tp, _Tp&, _Tp*>&,
 966:/Applications/ArmGNUToolchain/13.2.Rel1/arm-none-eabi/arm-none-eabi/include/c++/13.2.1/bits/stl_algobase.h **** 	      const _VTp&);
 967:/Applications/ArmGNUToolchain/13.2.Rel1/arm-none-eabi/arm-none-eabi/include/c++/13.2.1/bits/stl_algobase.h **** 
 968:/Applications/ArmGNUToolchain/13.2.Rel1/arm-none-eabi/arm-none-eabi/include/c++/13.2.1/bits/stl_algobase.h ****   _GLIBCXX20_CONSTEXPR
 969:/Applications/ArmGNUToolchain/13.2.Rel1/arm-none-eabi/arm-none-eabi/include/c++/13.2.1/bits/stl_algobase.h ****   void
 970:/Applications/ArmGNUToolchain/13.2.Rel1/arm-none-eabi/arm-none-eabi/include/c++/13.2.1/bits/stl_algobase.h ****   __fill_a1(_GLIBCXX_STD_C::_Bit_iterator, _GLIBCXX_STD_C::_Bit_iterator,
 971:/Applications/ArmGNUToolchain/13.2.Rel1/arm-none-eabi/arm-none-eabi/include/c++/13.2.1/bits/stl_algobase.h **** 	    const bool&);
 972:/Applications/ArmGNUToolchain/13.2.Rel1/arm-none-eabi/arm-none-eabi/include/c++/13.2.1/bits/stl_algobase.h **** 
 973:/Applications/ArmGNUToolchain/13.2.Rel1/arm-none-eabi/arm-none-eabi/include/c++/13.2.1/bits/stl_algobase.h ****   template<typename _FIte, typename _Tp>
 974:/Applications/ArmGNUToolchain/13.2.Rel1/arm-none-eabi/arm-none-eabi/include/c++/13.2.1/bits/stl_algobase.h ****     _GLIBCXX20_CONSTEXPR
 975:/Applications/ArmGNUToolchain/13.2.Rel1/arm-none-eabi/arm-none-eabi/include/c++/13.2.1/bits/stl_algobase.h ****     inline void
 976:/Applications/ArmGNUToolchain/13.2.Rel1/arm-none-eabi/arm-none-eabi/include/c++/13.2.1/bits/stl_algobase.h ****     __fill_a(_FIte __first, _FIte __last, const _Tp& __value)
 977:/Applications/ArmGNUToolchain/13.2.Rel1/arm-none-eabi/arm-none-eabi/include/c++/13.2.1/bits/stl_algobase.h ****     { std::__fill_a1(__first, __last, __value); }
 978:/Applications/ArmGNUToolchain/13.2.Rel1/arm-none-eabi/arm-none-eabi/include/c++/13.2.1/bits/stl_algobase.h **** 
 979:/Applications/ArmGNUToolchain/13.2.Rel1/arm-none-eabi/arm-none-eabi/include/c++/13.2.1/bits/stl_algobase.h ****   template<typename _Ite, typename _Seq, typename _Cat, typename _Tp>
 980:/Applications/ArmGNUToolchain/13.2.Rel1/arm-none-eabi/arm-none-eabi/include/c++/13.2.1/bits/stl_algobase.h ****     void
 981:/Applications/ArmGNUToolchain/13.2.Rel1/arm-none-eabi/arm-none-eabi/include/c++/13.2.1/bits/stl_algobase.h ****     __fill_a(const ::__gnu_debug::_Safe_iterator<_Ite, _Seq, _Cat>&,
 982:/Applications/ArmGNUToolchain/13.2.Rel1/arm-none-eabi/arm-none-eabi/include/c++/13.2.1/bits/stl_algobase.h **** 	     const ::__gnu_debug::_Safe_iterator<_Ite, _Seq, _Cat>&,
 983:/Applications/ArmGNUToolchain/13.2.Rel1/arm-none-eabi/arm-none-eabi/include/c++/13.2.1/bits/stl_algobase.h **** 	     const _Tp&);
 984:/Applications/ArmGNUToolchain/13.2.Rel1/arm-none-eabi/arm-none-eabi/include/c++/13.2.1/bits/stl_algobase.h **** 
 985:/Applications/ArmGNUToolchain/13.2.Rel1/arm-none-eabi/arm-none-eabi/include/c++/13.2.1/bits/stl_algobase.h ****   /**
 986:/Applications/ArmGNUToolchain/13.2.Rel1/arm-none-eabi/arm-none-eabi/include/c++/13.2.1/bits/stl_algobase.h ****    *  @brief Fills the range [first,last) with copies of value.
 987:/Applications/ArmGNUToolchain/13.2.Rel1/arm-none-eabi/arm-none-eabi/include/c++/13.2.1/bits/stl_algobase.h ****    *  @ingroup mutating_algorithms
 988:/Applications/ArmGNUToolchain/13.2.Rel1/arm-none-eabi/arm-none-eabi/include/c++/13.2.1/bits/stl_algobase.h ****    *  @param  __first  A forward iterator.
 989:/Applications/ArmGNUToolchain/13.2.Rel1/arm-none-eabi/arm-none-eabi/include/c++/13.2.1/bits/stl_algobase.h ****    *  @param  __last   A forward iterator.
 990:/Applications/ArmGNUToolchain/13.2.Rel1/arm-none-eabi/arm-none-eabi/include/c++/13.2.1/bits/stl_algobase.h ****    *  @param  __value  A reference-to-const of arbitrary type.
 991:/Applications/ArmGNUToolchain/13.2.Rel1/arm-none-eabi/arm-none-eabi/include/c++/13.2.1/bits/stl_algobase.h ****    *  @return   Nothing.
 992:/Applications/ArmGNUToolchain/13.2.Rel1/arm-none-eabi/arm-none-eabi/include/c++/13.2.1/bits/stl_algobase.h ****    *
 993:/Applications/ArmGNUToolchain/13.2.Rel1/arm-none-eabi/arm-none-eabi/include/c++/13.2.1/bits/stl_algobase.h ****    *  This function fills a range with copies of the same value.  For char
 994:/Applications/ArmGNUToolchain/13.2.Rel1/arm-none-eabi/arm-none-eabi/include/c++/13.2.1/bits/stl_algobase.h ****    *  types filling contiguous areas of memory, this becomes an inline call
 995:/Applications/ArmGNUToolchain/13.2.Rel1/arm-none-eabi/arm-none-eabi/include/c++/13.2.1/bits/stl_algobase.h ****    *  to @c memset or @c wmemset.
 996:/Applications/ArmGNUToolchain/13.2.Rel1/arm-none-eabi/arm-none-eabi/include/c++/13.2.1/bits/stl_algobase.h ****   */
 997:/Applications/ArmGNUToolchain/13.2.Rel1/arm-none-eabi/arm-none-eabi/include/c++/13.2.1/bits/stl_algobase.h ****   template<typename _ForwardIterator, typename _Tp>
 998:/Applications/ArmGNUToolchain/13.2.Rel1/arm-none-eabi/arm-none-eabi/include/c++/13.2.1/bits/stl_algobase.h ****     _GLIBCXX20_CONSTEXPR
 999:/Applications/ArmGNUToolchain/13.2.Rel1/arm-none-eabi/arm-none-eabi/include/c++/13.2.1/bits/stl_algobase.h ****     inline void
1000:/Applications/ArmGNUToolchain/13.2.Rel1/arm-none-eabi/arm-none-eabi/include/c++/13.2.1/bits/stl_algobase.h ****     fill(_ForwardIterator __first, _ForwardIterator __last, const _Tp& __value)
 1619              		.loc 6 1000 5 view .LVU408
 1620              	.LBB199:
 1621              	.LBI199:
 976:/Applications/ArmGNUToolchain/13.2.Rel1/arm-none-eabi/arm-none-eabi/include/c++/13.2.1/bits/stl_algobase.h ****     { std::__fill_a1(__first, __last, __value); }
 1622              		.loc 6 976 5 view .LVU409
 1623              	.LBB200:
 1624              	.LBI200:
 926:/Applications/ArmGNUToolchain/13.2.Rel1/arm-none-eabi/arm-none-eabi/include/c++/13.2.1/bits/stl_algobase.h **** 	      const _Tp& __value)
 1625              		.loc 6 926 5 view .LVU410
ARM GAS  /var/folders/83/vwtnzcdn1v99b_lf0k0gsjzr0000gn/T//cc93oyUL.s 			page 62


 1626              	.LBB201:
 930:/Applications/ArmGNUToolchain/13.2.Rel1/arm-none-eabi/arm-none-eabi/include/c++/13.2.1/bits/stl_algobase.h **** 	*__first = __tmp;
 1627              		.loc 6 930 22 discriminator 1 view .LVU411
 1628 0076 0AB1     		cbz	r2, .L60
 931:/Applications/ArmGNUToolchain/13.2.Rel1/arm-none-eabi/arm-none-eabi/include/c++/13.2.1/bits/stl_algobase.h ****     }
 1629              		.loc 6 931 11 is_stmt 0 view .LVU412
 1630 0078 FFF7FEFF 		bl	memset
 1631              	.LVL138:
 1632              	.L60:
 931:/Applications/ArmGNUToolchain/13.2.Rel1/arm-none-eabi/arm-none-eabi/include/c++/13.2.1/bits/stl_algobase.h ****     }
 1633              		.loc 6 931 11 view .LVU413
 1634              	.LBE201:
 1635              	.LBE200:
 1636              	.LBE199:
 1637              	.LBE198:
  84:/Users/amc/git/libDaisy/src/hid/midi.h ****     }
 1638              		.loc 4 84 9 is_stmt 1 view .LVU414
  84:/Users/amc/git/libDaisy/src/hid/midi.h ****     }
 1639              		.loc 4 84 19 is_stmt 0 view .LVU415
 1640 007c 0DA9     		add	r1, sp, #52
 1641 007e 04F2A450 		addw	r0, r4, #1444
 1642 0082 FFF7FEFF 		bl	_ZN5daisy11UartHandler4InitERKNS0_6ConfigE
 1643              	.LVL139:
  84:/Users/amc/git/libDaisy/src/hid/midi.h ****     }
 1644              		.loc 4 84 19 view .LVU416
 1645              	.LBE204:
 1646              	.LBE206:
 1647              	.LBB207:
 1648              	.LBI207:
 1649              		.file 7 "/Users/amc/git/libDaisy/src/hid/midi_parser.h"
   1:/Users/amc/git/libDaisy/src/hid/midi_parser.h **** #pragma once
   2:/Users/amc/git/libDaisy/src/hid/midi_parser.h **** #ifndef DSY_MIDI_PARSER_H
   3:/Users/amc/git/libDaisy/src/hid/midi_parser.h **** #define DSY_MIDI_PARSER_H
   4:/Users/amc/git/libDaisy/src/hid/midi_parser.h **** 
   5:/Users/amc/git/libDaisy/src/hid/midi_parser.h **** #include <stdint.h>
   6:/Users/amc/git/libDaisy/src/hid/midi_parser.h **** #include <stdlib.h>
   7:/Users/amc/git/libDaisy/src/hid/midi_parser.h **** #include "hid/MidiEvent.h"
   8:/Users/amc/git/libDaisy/src/hid/midi_parser.h **** 
   9:/Users/amc/git/libDaisy/src/hid/midi_parser.h **** namespace daisy
  10:/Users/amc/git/libDaisy/src/hid/midi_parser.h **** {
  11:/Users/amc/git/libDaisy/src/hid/midi_parser.h **** /** @brief   Utility class for parsing raw byte streams into MIDI messages
  12:/Users/amc/git/libDaisy/src/hid/midi_parser.h ****  *  @details Implemented as a state machine designed to parse one byte at a time
  13:/Users/amc/git/libDaisy/src/hid/midi_parser.h ****  *  @ingroup midi
  14:/Users/amc/git/libDaisy/src/hid/midi_parser.h ****  */
  15:/Users/amc/git/libDaisy/src/hid/midi_parser.h **** class MidiParser
  16:/Users/amc/git/libDaisy/src/hid/midi_parser.h **** {
  17:/Users/amc/git/libDaisy/src/hid/midi_parser.h ****   public:
  18:/Users/amc/git/libDaisy/src/hid/midi_parser.h ****     MidiParser(){};
  19:/Users/amc/git/libDaisy/src/hid/midi_parser.h ****     ~MidiParser() {}
  20:/Users/amc/git/libDaisy/src/hid/midi_parser.h **** 
  21:/Users/amc/git/libDaisy/src/hid/midi_parser.h ****     inline void Init() { Reset(); }
 1650              		.loc 7 21 17 is_stmt 1 view .LVU417
 1651              	.LBB208:
 1652              		.loc 7 21 26 view .LVU418
 1653              		.loc 7 21 31 is_stmt 0 view .LVU419
 1654 0086 04F5B760 		add	r0, r4, #1464
 1655              	.LVL140:
ARM GAS  /var/folders/83/vwtnzcdn1v99b_lf0k0gsjzr0000gn/T//cc93oyUL.s 			page 63


 1656              		.loc 7 21 31 view .LVU420
 1657 008a FFF7FEFF 		bl	_ZN5daisy10MidiParser5ResetEv
 1658              	.LVL141:
 1659              		.loc 7 21 31 view .LVU421
 1660              	.LBE208:
 1661              	.LBE207:
 1662              	.LBE211:
 1663              	.LBE214:
 203:../src/Pedal.cpp **** 
 1664              		.loc 1 203 1 view .LVU422
 1665 008e 14B0     		add	sp, sp, #80
 1666              		.cfi_def_cfa_offset 16
 1667              		@ sp needed
 1668 0090 70BD     		pop	{r4, r5, r6, pc}
 203:../src/Pedal.cpp **** 
 1669              		.loc 1 203 1 view .LVU423
 1670              		.cfi_endproc
 1671              	.LFE4688:
 1673 0092 00BF     		.section	.text._ZN3amc5Pedal4InitEb,"ax",%progbits
 1674              		.align	1
 1675              		.p2align 2,,3
 1676              		.global	_ZN3amc5Pedal4InitEb
 1677              		.syntax unified
 1678              		.thumb
 1679              		.thumb_func
 1681              	_ZN3amc5Pedal4InitEb:
 1682              	.LVL142:
 1683              	.LFB4656:
   7:../src/Pedal.cpp **** 	seed.Init(boost);
 1684              		.loc 1 7 1 is_stmt 1 view -0
 1685              		.cfi_startproc
 1686              		@ args = 0, pretend = 0, frame = 168
 1687              		@ frame_needed = 0, uses_anonymous_args = 0
   8:../src/Pedal.cpp **** 
 1688              		.loc 1 8 2 view .LVU425
   7:../src/Pedal.cpp **** 	seed.Init(boost);
 1689              		.loc 1 7 1 is_stmt 0 view .LVU426
 1690 0000 2DE9F04F 		push	{r4, r5, r6, r7, r8, r9, r10, fp, lr}
 1691              		.cfi_def_cfa_offset 36
 1692              		.cfi_offset 4, -36
 1693              		.cfi_offset 5, -32
 1694              		.cfi_offset 6, -28
 1695              		.cfi_offset 7, -24
 1696              		.cfi_offset 8, -20
 1697              		.cfi_offset 9, -16
 1698              		.cfi_offset 10, -12
 1699              		.cfi_offset 11, -8
 1700              		.cfi_offset 14, -4
 1701 0004 0446     		mov	r4, r0
 1702 0006 ADB0     		sub	sp, sp, #180
 1703              		.cfi_def_cfa_offset 216
   8:../src/Pedal.cpp **** 
 1704              		.loc 1 8 11 view .LVU427
 1705 0008 FFF7FEFF 		bl	_ZN5daisy9DaisySeed4InitEb
 1706              	.LVL143:
  10:../src/Pedal.cpp **** 	InitEncoders();
 1707              		.loc 1 10 2 is_stmt 1 view .LVU428
ARM GAS  /var/folders/83/vwtnzcdn1v99b_lf0k0gsjzr0000gn/T//cc93oyUL.s 			page 64


  10:../src/Pedal.cpp **** 	InitEncoders();
 1708              		.loc 1 10 20 is_stmt 0 view .LVU429
 1709 000c 2046     		mov	r0, r4
 1710              	.LBB309:
 1711              	.LBB310:
 180:../src/Pedal.cpp **** 		seed.GetPin(ENCODER_1_B_PIN),
 1712              		.loc 1 180 29 view .LVU430
 1713 000e 04F21457 		addw	r7, r4, #1300
 1714              	.LBE310:
 1715              	.LBE309:
  10:../src/Pedal.cpp **** 	InitEncoders();
 1716              		.loc 1 10 20 view .LVU431
 1717 0012 FFF7FEFF 		bl	_ZN3amc5Pedal18InitAnalogControlsEv
 1718              	.LVL144:
  11:../src/Pedal.cpp **** 	InitSwitches();
 1719              		.loc 1 11 2 is_stmt 1 view .LVU432
 1720              	.LBB313:
 1721              	.LBI309:
 178:../src/Pedal.cpp **** {
 1722              		.loc 1 178 6 view .LVU433
 1723              	.LBB311:
 180:../src/Pedal.cpp **** 		seed.GetPin(ENCODER_1_B_PIN),
 1724              		.loc 1 180 2 view .LVU434
 180:../src/Pedal.cpp **** 		seed.GetPin(ENCODER_1_B_PIN),
 1725              		.loc 1 180 29 is_stmt 0 view .LVU435
 1726 0016 0320     		movs	r0, #3
 1727 0018 FFF7FEFF 		bl	_ZN5daisy9DaisySeed6GetPinEh
 1728              	.LVL145:
 1729 001c 0346     		mov	r3, r0	@ movhi
 180:../src/Pedal.cpp **** 		seed.GetPin(ENCODER_1_B_PIN),
 1730              		.loc 1 180 29 discriminator 1 view .LVU436
 1731 001e 0220     		movs	r0, #2
 1732 0020 04F25445 		addw	r5, r4, #1108
 180:../src/Pedal.cpp **** 		seed.GetPin(ENCODER_1_B_PIN),
 1733              		.loc 1 180 29 view .LVU437
 1734 0024 ADF82030 		strh	r3, [sp, #32]	@ movhi
 180:../src/Pedal.cpp **** 		seed.GetPin(ENCODER_1_B_PIN),
 1735              		.loc 1 180 29 discriminator 1 view .LVU438
 1736 0028 FFF7FEFF 		bl	_ZN5daisy9DaisySeed6GetPinEh
 1737              	.LVL146:
 1738 002c 0346     		mov	r3, r0	@ movhi
 180:../src/Pedal.cpp **** 		seed.GetPin(ENCODER_1_B_PIN),
 1739              		.loc 1 180 29 discriminator 2 view .LVU439
 1740 002e 0420     		movs	r0, #4
 1741              	.LBE311:
 1742              	.LBE313:
 1743              	.LBB314:
 1744              	.LBB315:
  82:../src/Pedal.cpp **** 	SetHidUpdateRates();
 1745              		.loc 1 82 25 view .LVU440
 1746 0030 2E46     		mov	r6, r5
 1747              	.LBE315:
 1748              	.LBE314:
 1749              	.LBB347:
 1750              	.LBB312:
 180:../src/Pedal.cpp **** 		seed.GetPin(ENCODER_1_B_PIN),
 1751              		.loc 1 180 29 discriminator 1 view .LVU441
ARM GAS  /var/folders/83/vwtnzcdn1v99b_lf0k0gsjzr0000gn/T//cc93oyUL.s 			page 65


 1752 0032 ADF82430 		strh	r3, [sp, #36]	@ movhi
 180:../src/Pedal.cpp **** 		seed.GetPin(ENCODER_1_B_PIN),
 1753              		.loc 1 180 29 discriminator 2 view .LVU442
 1754 0036 FFF7FEFF 		bl	_ZN5daisy9DaisySeed6GetPinEh
 1755              	.LVL147:
 1756 003a ADF82800 		strh	r0, [sp, #40]	@ movhi
 180:../src/Pedal.cpp **** 		seed.GetPin(ENCODER_1_B_PIN),
 1757              		.loc 1 180 29 discriminator 3 view .LVU443
 1758 003e 3846     		mov	r0, r7
 1759 0040 099A     		ldr	r2, [sp, #36]
 1760 0042 9FEDF60A 		vldr.32	s0, .L71
 1761 0046 0899     		ldr	r1, [sp, #32]
 1762 0048 0A9B     		ldr	r3, [sp, #40]
 1763 004a FFF7FEFF 		bl	_ZN5daisy7Encoder4InitE12dsy_gpio_pinS1_S1_f
 1764              	.LVL148:
 180:../src/Pedal.cpp **** 		seed.GetPin(ENCODER_1_B_PIN),
 1765              		.loc 1 180 29 discriminator 3 view .LVU444
 1766              	.LBE312:
 1767              	.LBE347:
  12:../src/Pedal.cpp **** 	InitLeds();
 1768              		.loc 1 12 2 is_stmt 1 view .LVU445
 1769              	.LBB348:
 1770              	.LBI348:
 185:../src/Pedal.cpp **** {
 1771              		.loc 1 185 6 view .LVU446
 1772              	.LBB349:
 187:../src/Pedal.cpp **** 	switches[SwitchI::S2].Init(seed.GetPin(SWITCH_2_PIN));
 1773              		.loc 1 187 2 view .LVU447
 187:../src/Pedal.cpp **** 	switches[SwitchI::S2].Init(seed.GetPin(SWITCH_2_PIN));
 1774              		.loc 1 187 28 is_stmt 0 view .LVU448
 1775 004e 0620     		movs	r0, #6
 1776 0050 FFF7FEFF 		bl	_ZN5daisy9DaisySeed6GetPinEh
 1777              	.LVL149:
 1778 0054 0346     		mov	r3, r0	@ movhi
 187:../src/Pedal.cpp **** 	switches[SwitchI::S2].Init(seed.GetPin(SWITCH_2_PIN));
 1779              		.loc 1 187 28 discriminator 1 view .LVU449
 1780 0056 9FEDF10A 		vldr.32	s0, .L71
 1781 005a 04F23C50 		addw	r0, r4, #1340
 187:../src/Pedal.cpp **** 	switches[SwitchI::S2].Init(seed.GetPin(SWITCH_2_PIN));
 1782              		.loc 1 187 28 view .LVU450
 1783 005e ADF81830 		strh	r3, [sp, #24]	@ movhi
 187:../src/Pedal.cpp **** 	switches[SwitchI::S2].Init(seed.GetPin(SWITCH_2_PIN));
 1784              		.loc 1 187 28 discriminator 1 view .LVU451
 1785 0062 0699     		ldr	r1, [sp, #24]
 1786 0064 FFF7FEFF 		bl	_ZN5daisy6Switch4InitE12dsy_gpio_pinf
 1787              	.LVL150:
 188:../src/Pedal.cpp **** }
 1788              		.loc 1 188 2 is_stmt 1 view .LVU452
 188:../src/Pedal.cpp **** }
 1789              		.loc 1 188 28 is_stmt 0 view .LVU453
 1790 0068 0520     		movs	r0, #5
 1791 006a FFF7FEFF 		bl	_ZN5daisy9DaisySeed6GetPinEh
 1792              	.LVL151:
 1793 006e 0346     		mov	r3, r0	@ movhi
 188:../src/Pedal.cpp **** }
 1794              		.loc 1 188 28 discriminator 1 view .LVU454
 1795 0070 9FEDEA0A 		vldr.32	s0, .L71
ARM GAS  /var/folders/83/vwtnzcdn1v99b_lf0k0gsjzr0000gn/T//cc93oyUL.s 			page 66


 1796 0074 04F24C50 		addw	r0, r4, #1356
 188:../src/Pedal.cpp **** }
 1797              		.loc 1 188 28 view .LVU455
 1798 0078 ADF81C30 		strh	r3, [sp, #28]	@ movhi
 188:../src/Pedal.cpp **** }
 1799              		.loc 1 188 28 discriminator 1 view .LVU456
 1800 007c 0799     		ldr	r1, [sp, #28]
 1801 007e FFF7FEFF 		bl	_ZN5daisy6Switch4InitE12dsy_gpio_pinf
 1802              	.LVL152:
 188:../src/Pedal.cpp **** }
 1803              		.loc 1 188 28 discriminator 1 view .LVU457
 1804              	.LBE349:
 1805              	.LBE348:
  13:../src/Pedal.cpp **** 	InitMidi();
 1806              		.loc 1 13 2 is_stmt 1 view .LVU458
 1807              	.LBB350:
 1808              	.LBI350:
 191:../src/Pedal.cpp **** {
 1809              		.loc 1 191 6 view .LVU459
 1810              	.LBB351:
 193:../src/Pedal.cpp **** 	leds[LedI::L2].Init(seed.GetPin(LED_2_PIN), false);
 1811              		.loc 1 193 2 view .LVU460
 193:../src/Pedal.cpp **** 	leds[LedI::L2].Init(seed.GetPin(LED_2_PIN), false);
 1812              		.loc 1 193 21 is_stmt 0 view .LVU461
 1813 0082 1620     		movs	r0, #22
 1814 0084 FFF7FEFF 		bl	_ZN5daisy9DaisySeed6GetPinEh
 1815              	.LVL153:
 1816 0088 ADF81000 		strh	r0, [sp, #16]	@ movhi
 193:../src/Pedal.cpp **** 	leds[LedI::L2].Init(seed.GetPin(LED_2_PIN), false);
 1817              		.loc 1 193 21 discriminator 1 view .LVU462
 1818 008c 9FEDE40A 		vldr.32	s0, .L71+4
 1819 0090 0022     		movs	r2, #0
 1820 0092 0499     		ldr	r1, [sp, #16]
 1821 0094 04F25C50 		addw	r0, r4, #1372
 1822 0098 FFF7FEFF 		bl	_ZN5daisy3Led4InitE12dsy_gpio_pinbf
 1823              	.LVL154:
 194:../src/Pedal.cpp **** }
 1824              		.loc 1 194 2 is_stmt 1 view .LVU463
 194:../src/Pedal.cpp **** }
 1825              		.loc 1 194 21 is_stmt 0 view .LVU464
 1826 009c 1720     		movs	r0, #23
 1827 009e FFF7FEFF 		bl	_ZN5daisy9DaisySeed6GetPinEh
 1828              	.LVL155:
 1829 00a2 ADF81400 		strh	r0, [sp, #20]	@ movhi
 194:../src/Pedal.cpp **** }
 1830              		.loc 1 194 21 discriminator 1 view .LVU465
 1831 00a6 9FEDDE0A 		vldr.32	s0, .L71+4
 1832 00aa 0022     		movs	r2, #0
 1833 00ac 0599     		ldr	r1, [sp, #20]
 1834 00ae 04F5AF60 		add	r0, r4, #1400
 1835 00b2 FFF7FEFF 		bl	_ZN5daisy3Led4InitE12dsy_gpio_pinbf
 1836              	.LVL156:
 194:../src/Pedal.cpp **** }
 1837              		.loc 1 194 21 discriminator 1 view .LVU466
 1838              	.LBE351:
 1839              	.LBE350:
  14:../src/Pedal.cpp **** 
ARM GAS  /var/folders/83/vwtnzcdn1v99b_lf0k0gsjzr0000gn/T//cc93oyUL.s 			page 67


 1840              		.loc 1 14 2 is_stmt 1 view .LVU467
  14:../src/Pedal.cpp **** 
 1841              		.loc 1 14 10 is_stmt 0 view .LVU468
 1842 00b6 2046     		mov	r0, r4
 1843 00b8 FFF7FEFF 		bl	_ZN3amc5Pedal8InitMidiEv
 1844              	.LVL157:
  16:../src/Pedal.cpp **** 	{
 1845              		.loc 1 16 2 is_stmt 1 view .LVU469
  30:../src/Pedal.cpp **** 		SetAudioRate(daisy::SaiHandle::Config::SampleRate::SAI_48KHZ);
 1846              		.loc 1 30 2 view .LVU470
  31:../src/Pedal.cpp **** 		break;
 1847              		.loc 1 31 3 view .LVU471
 1848              	.LBB352:
 1849              	.LBI314:
  80:../src/Pedal.cpp **** {
 1850              		.loc 1 80 6 view .LVU472
 1851              	.LBB345:
  82:../src/Pedal.cpp **** 	SetHidUpdateRates();
 1852              		.loc 1 82 2 view .LVU473
  82:../src/Pedal.cpp **** 	SetHidUpdateRates();
 1853              		.loc 1 82 25 is_stmt 0 view .LVU474
 1854 00bc 0321     		movs	r1, #3
 1855 00be 2046     		mov	r0, r4
 1856 00c0 FFF7FEFF 		bl	_ZN5daisy9DaisySeed18SetAudioSampleRateENS_9SaiHandle6Config10SampleRateE
 1857              	.LVL158:
  83:../src/Pedal.cpp **** }
 1858              		.loc 1 83 2 is_stmt 1 view .LVU475
 1859              	.LBB316:
 1860              	.LBI316:
 205:../src/Pedal.cpp **** {
 1861              		.loc 1 205 6 view .LVU476
 207:../src/Pedal.cpp **** 		knobs[i].SetSampleRate(CallbackRate());
 1862              		.loc 1 207 2 view .LVU477
 1863              	.LBB317:
 207:../src/Pedal.cpp **** 		knobs[i].SetSampleRate(CallbackRate());
 1864              		.loc 1 207 23 discriminator 1 view .LVU478
 1865              	.L66:
 208:../src/Pedal.cpp **** 
 1866              		.loc 1 208 3 view .LVU479
 1867              	.LBB318:
 1868              	.LBI318:
 102:../src/Pedal.cpp **** {
 1869              		.loc 1 102 7 view .LVU480
 1870              	.LBB319:
 104:../src/Pedal.cpp **** }
 1871              		.loc 1 104 2 view .LVU481
 104:../src/Pedal.cpp **** }
 1872              		.loc 1 104 31 is_stmt 0 view .LVU482
 1873 00c4 2046     		mov	r0, r4
 1874 00c6 FFF7FEFF 		bl	_ZNK5daisy9DaisySeed17AudioCallbackRateEv
 1875              	.LVL159:
 104:../src/Pedal.cpp **** }
 1876              		.loc 1 104 31 view .LVU483
 1877              	.LBE319:
 1878              	.LBE318:
 208:../src/Pedal.cpp **** 
 1879              		.loc 1 208 25 discriminator 1 view .LVU484
ARM GAS  /var/folders/83/vwtnzcdn1v99b_lf0k0gsjzr0000gn/T//cc93oyUL.s 			page 68


 1880 00ca 3046     		mov	r0, r6
 207:../src/Pedal.cpp **** 		knobs[i].SetSampleRate(CallbackRate());
 1881              		.loc 1 207 23 discriminator 1 view .LVU485
 1882 00cc 2036     		adds	r6, r6, #32
 208:../src/Pedal.cpp **** 
 1883              		.loc 1 208 25 discriminator 1 view .LVU486
 1884 00ce FFF7FEFF 		bl	_ZN5daisy13AnalogControl13SetSampleRateEf
 1885              	.LVL160:
 207:../src/Pedal.cpp **** 		knobs[i].SetSampleRate(CallbackRate());
 1886              		.loc 1 207 2 is_stmt 1 discriminator 3 view .LVU487
 207:../src/Pedal.cpp **** 		knobs[i].SetSampleRate(CallbackRate());
 1887              		.loc 1 207 23 discriminator 1 view .LVU488
 1888 00d2 B742     		cmp	r7, r6
 1889 00d4 F6D1     		bne	.L66
 1890              	.LVL161:
 207:../src/Pedal.cpp **** 		knobs[i].SetSampleRate(CallbackRate());
 1891              		.loc 1 207 23 is_stmt 0 discriminator 1 view .LVU489
 1892              	.LBE317:
 1893              	.LBB320:
 210:../src/Pedal.cpp **** 		leds[i].SetSampleRate(CallbackRate());
 1894              		.loc 1 210 23 is_stmt 1 discriminator 1 view .LVU490
 1895              		.loc 1 211 3 view .LVU491
 1896              	.LBB321:
 1897              	.LBI321:
 102:../src/Pedal.cpp **** {
 1898              		.loc 1 102 7 view .LVU492
 1899              	.LBB322:
 104:../src/Pedal.cpp **** }
 1900              		.loc 1 104 2 view .LVU493
 1901              	.LBE322:
 1902              	.LBE321:
 1903              	.LBB327:
 1904              	.LBB328:
 1905              		.loc 2 51 64 is_stmt 0 view .LVU494
 1906 00d6 04F26C58 		addw	r8, r4, #1388
 1907              	.LBE328:
 1908              	.LBE327:
 1909              	.LBB334:
 1910              	.LBB323:
 104:../src/Pedal.cpp **** }
 1911              		.loc 1 104 31 view .LVU495
 1912 00da 2046     		mov	r0, r4
 1913              	.LBE323:
 1914              	.LBE334:
 1915              	.LBB335:
 1916              	.LBB329:
 1917              		.loc 2 51 64 view .LVU496
 1918 00dc 04F5B166 		add	r6, r4, #1416
 1919              	.LBE329:
 1920              	.LBE335:
 1921              	.LBB336:
 1922              	.LBB324:
 104:../src/Pedal.cpp **** }
 1923              		.loc 1 104 31 view .LVU497
 1924 00e0 FFF7FEFF 		bl	_ZNK5daisy9DaisySeed17AudioCallbackRateEv
 1925              	.LVL162:
 104:../src/Pedal.cpp **** }
ARM GAS  /var/folders/83/vwtnzcdn1v99b_lf0k0gsjzr0000gn/T//cc93oyUL.s 			page 69


 1926              		.loc 1 104 31 view .LVU498
 1927              	.LBE324:
 1928              	.LBE336:
 1929              	.LBB337:
 1930              	.LBI327:
 1931              		.loc 2 51 17 is_stmt 1 view .LVU499
 1932              	.LBB330:
 1933              		.loc 2 51 52 view .LVU500
 1934              	.LBE330:
 1935              	.LBE337:
 1936              	.LBB338:
 1937              	.LBB325:
 104:../src/Pedal.cpp **** }
 1938              		.loc 1 104 31 is_stmt 0 view .LVU501
 1939 00e4 2046     		mov	r0, r4
 1940              	.LBE325:
 1941              	.LBE338:
 1942              	.LBB339:
 1943              	.LBB331:
 1944              		.loc 2 51 64 view .LVU502
 1945 00e6 88ED000A 		vstr.32	s0, [r8]
 1946              	.LVL163:
 1947              		.loc 2 51 64 view .LVU503
 1948              	.LBE331:
 1949              	.LBE339:
 210:../src/Pedal.cpp **** 		leds[i].SetSampleRate(CallbackRate());
 1950              		.loc 1 210 2 is_stmt 1 discriminator 3 view .LVU504
 210:../src/Pedal.cpp **** 		leds[i].SetSampleRate(CallbackRate());
 1951              		.loc 1 210 23 discriminator 1 view .LVU505
 1952              		.loc 1 211 3 view .LVU506
 1953              	.LBB340:
 102:../src/Pedal.cpp **** {
 1954              		.loc 1 102 7 view .LVU507
 1955              	.LBB326:
 104:../src/Pedal.cpp **** }
 1956              		.loc 1 104 2 view .LVU508
 104:../src/Pedal.cpp **** }
 1957              		.loc 1 104 31 is_stmt 0 view .LVU509
 1958 00ea FFF7FEFF 		bl	_ZNK5daisy9DaisySeed17AudioCallbackRateEv
 1959              	.LVL164:
 104:../src/Pedal.cpp **** }
 1960              		.loc 1 104 31 view .LVU510
 1961              	.LBE326:
 1962              	.LBE340:
 1963              	.LBB341:
 1964              		.loc 2 51 17 is_stmt 1 view .LVU511
 1965              	.LBB332:
 1966              		.loc 2 51 52 view .LVU512
 1967              	.LBE332:
 1968              	.LBE341:
 1969              	.LBE320:
 1970              	.LBE316:
 1971              	.LBE345:
 1972              	.LBE352:
 1973              	.LBB353:
 1974              	.LBB354:
  93:../src/Pedal.cpp **** 	SetHidUpdateRates();
ARM GAS  /var/folders/83/vwtnzcdn1v99b_lf0k0gsjzr0000gn/T//cc93oyUL.s 			page 70


 1975              		.loc 1 93 24 is_stmt 0 view .LVU513
 1976 00ee 1021     		movs	r1, #16
 1977 00f0 2046     		mov	r0, r4
 1978              	.LBE354:
 1979              	.LBE353:
 1980              	.LBB384:
 1981              	.LBB346:
 1982              	.LBB344:
 1983              	.LBB343:
 1984              	.LBB342:
 1985              	.LBB333:
 1986              		.loc 2 51 64 view .LVU514
 1987 00f2 86ED000A 		vstr.32	s0, [r6]
 1988              	.LVL165:
 1989              		.loc 2 51 64 view .LVU515
 1990              	.LBE333:
 1991              	.LBE342:
 210:../src/Pedal.cpp **** 		leds[i].SetSampleRate(CallbackRate());
 1992              		.loc 1 210 2 is_stmt 1 discriminator 3 view .LVU516
 210:../src/Pedal.cpp **** 		leds[i].SetSampleRate(CallbackRate());
 1993              		.loc 1 210 23 discriminator 1 view .LVU517
 210:../src/Pedal.cpp **** 		leds[i].SetSampleRate(CallbackRate());
 1994              		.loc 1 210 23 is_stmt 0 discriminator 1 view .LVU518
 1995              	.LBE343:
 1996              	.LBE344:
 1997              	.LBE346:
 1998              	.LBE384:
  32:../src/Pedal.cpp **** 	}
 1999              		.loc 1 32 3 is_stmt 1 view .LVU519
  35:../src/Pedal.cpp **** 
 2000              		.loc 1 35 2 view .LVU520
 2001              	.LBB385:
 2002              	.LBI353:
  91:../src/Pedal.cpp **** {
 2003              		.loc 1 91 6 view .LVU521
 2004              	.LBB380:
  93:../src/Pedal.cpp **** 	SetHidUpdateRates();
 2005              		.loc 1 93 2 view .LVU522
  93:../src/Pedal.cpp **** 	SetHidUpdateRates();
 2006              		.loc 1 93 24 is_stmt 0 view .LVU523
 2007 00f6 FFF7FEFF 		bl	_ZN5daisy9DaisySeed17SetAudioBlockSizeEj
 2008              	.LVL166:
  94:../src/Pedal.cpp **** }
 2009              		.loc 1 94 2 is_stmt 1 view .LVU524
 2010              	.LBB355:
 2011              	.LBI355:
 205:../src/Pedal.cpp **** {
 2012              		.loc 1 205 6 view .LVU525
 207:../src/Pedal.cpp **** 		knobs[i].SetSampleRate(CallbackRate());
 2013              		.loc 1 207 2 view .LVU526
 2014              	.LBB356:
 207:../src/Pedal.cpp **** 		knobs[i].SetSampleRate(CallbackRate());
 2015              		.loc 1 207 23 discriminator 1 view .LVU527
 2016              	.L67:
 208:../src/Pedal.cpp **** 
 2017              		.loc 1 208 3 view .LVU528
 2018              	.LBB357:
ARM GAS  /var/folders/83/vwtnzcdn1v99b_lf0k0gsjzr0000gn/T//cc93oyUL.s 			page 71


 2019              	.LBI357:
 102:../src/Pedal.cpp **** {
 2020              		.loc 1 102 7 view .LVU529
 2021              	.LBB358:
 104:../src/Pedal.cpp **** }
 2022              		.loc 1 104 2 view .LVU530
 104:../src/Pedal.cpp **** }
 2023              		.loc 1 104 31 is_stmt 0 view .LVU531
 2024 00fa 2046     		mov	r0, r4
 2025 00fc FFF7FEFF 		bl	_ZNK5daisy9DaisySeed17AudioCallbackRateEv
 2026              	.LVL167:
 104:../src/Pedal.cpp **** }
 2027              		.loc 1 104 31 view .LVU532
 2028              	.LBE358:
 2029              	.LBE357:
 208:../src/Pedal.cpp **** 
 2030              		.loc 1 208 25 discriminator 1 view .LVU533
 2031 0100 2846     		mov	r0, r5
 207:../src/Pedal.cpp **** 		knobs[i].SetSampleRate(CallbackRate());
 2032              		.loc 1 207 23 discriminator 1 view .LVU534
 2033 0102 2035     		adds	r5, r5, #32
 208:../src/Pedal.cpp **** 
 2034              		.loc 1 208 25 discriminator 1 view .LVU535
 2035 0104 FFF7FEFF 		bl	_ZN5daisy13AnalogControl13SetSampleRateEf
 2036              	.LVL168:
 207:../src/Pedal.cpp **** 		knobs[i].SetSampleRate(CallbackRate());
 2037              		.loc 1 207 2 is_stmt 1 discriminator 3 view .LVU536
 207:../src/Pedal.cpp **** 		knobs[i].SetSampleRate(CallbackRate());
 2038              		.loc 1 207 23 discriminator 1 view .LVU537
 2039 0108 AF42     		cmp	r7, r5
 2040 010a F6D1     		bne	.L67
 2041              	.LVL169:
 207:../src/Pedal.cpp **** 		knobs[i].SetSampleRate(CallbackRate());
 2042              		.loc 1 207 23 is_stmt 0 discriminator 1 view .LVU538
 2043              	.LBE356:
 2044              	.LBB359:
 210:../src/Pedal.cpp **** 		leds[i].SetSampleRate(CallbackRate());
 2045              		.loc 1 210 23 is_stmt 1 discriminator 1 view .LVU539
 2046              		.loc 1 211 3 view .LVU540
 2047              	.LBB360:
 2048              	.LBI360:
 102:../src/Pedal.cpp **** {
 2049              		.loc 1 102 7 view .LVU541
 2050              	.LBB361:
 104:../src/Pedal.cpp **** }
 2051              		.loc 1 104 2 view .LVU542
 104:../src/Pedal.cpp **** }
 2052              		.loc 1 104 31 is_stmt 0 view .LVU543
 2053 010c 2046     		mov	r0, r4
 2054              	.LBE361:
 2055              	.LBE360:
 2056              	.LBE359:
 2057              	.LBE355:
 2058              	.LBE380:
 2059              	.LBE385:
  38:../src/Pedal.cpp **** 	audioMuteTrigger.Init(daisy::seed::D12, GPIO::Mode::OUTPUT);
 2060              		.loc 1 38 25 view .LVU544
ARM GAS  /var/folders/83/vwtnzcdn1v99b_lf0k0gsjzr0000gn/T//cc93oyUL.s 			page 72


 2061 010e 4FF00209 		mov	r9, #2
 2062              	.LBB386:
 2063              	.LBB381:
 2064              	.LBB377:
 2065              	.LBB374:
 2066              	.LBB365:
 2067              	.LBB362:
 104:../src/Pedal.cpp **** }
 2068              		.loc 1 104 31 view .LVU545
 2069 0112 FFF7FEFF 		bl	_ZNK5daisy9DaisySeed17AudioCallbackRateEv
 2070              	.LVL170:
 104:../src/Pedal.cpp **** }
 2071              		.loc 1 104 31 view .LVU546
 2072              	.LBE362:
 2073              	.LBE365:
 2074              	.LBB366:
 2075              	.LBI366:
 2076              		.loc 2 51 17 is_stmt 1 view .LVU547
 2077              	.LBB367:
 2078              		.loc 2 51 52 view .LVU548
 2079              		.loc 2 51 64 is_stmt 0 view .LVU549
 2080 0116 88ED000A 		vstr.32	s0, [r8]
 2081              	.LVL171:
 2082              		.loc 2 51 64 view .LVU550
 2083              	.LBE367:
 2084              	.LBE366:
 210:../src/Pedal.cpp **** 		leds[i].SetSampleRate(CallbackRate());
 2085              		.loc 1 210 2 is_stmt 1 discriminator 3 view .LVU551
 210:../src/Pedal.cpp **** 		leds[i].SetSampleRate(CallbackRate());
 2086              		.loc 1 210 23 discriminator 1 view .LVU552
 2087              		.loc 1 211 3 view .LVU553
 2088              	.LBB370:
 102:../src/Pedal.cpp **** {
 2089              		.loc 1 102 7 view .LVU554
 2090              	.LBB363:
 104:../src/Pedal.cpp **** }
 2091              		.loc 1 104 2 view .LVU555
 2092              	.LBE363:
 2093              	.LBE370:
 2094              	.LBE374:
 2095              	.LBE377:
 2096              	.LBE381:
 2097              	.LBE386:
  38:../src/Pedal.cpp **** 	audioMuteTrigger.Init(daisy::seed::D12, GPIO::Mode::OUTPUT);
 2098              		.loc 1 38 25 is_stmt 0 view .LVU556
 2099 011a 49F2F468 		movw	r8, #38644
 2100              	.LBB387:
 2101              	.LBB382:
 2102              	.LBB378:
 2103              	.LBB375:
 2104              	.LBB371:
 2105              	.LBB364:
 104:../src/Pedal.cpp **** }
 2106              		.loc 1 104 31 view .LVU557
 2107 011e 2046     		mov	r0, r4
 2108 0120 FFF7FEFF 		bl	_ZNK5daisy9DaisySeed17AudioCallbackRateEv
 2109              	.LVL172:
ARM GAS  /var/folders/83/vwtnzcdn1v99b_lf0k0gsjzr0000gn/T//cc93oyUL.s 			page 73


 104:../src/Pedal.cpp **** }
 2110              		.loc 1 104 31 view .LVU558
 2111              	.LBE364:
 2112              	.LBE371:
 2113              	.LBB372:
 2114              		.loc 2 51 17 is_stmt 1 view .LVU559
 2115              	.LBB368:
 2116              		.loc 2 51 52 view .LVU560
 2117              	.LBE368:
 2118              	.LBE372:
 2119              	.LBE375:
 2120              	.LBE378:
 2121              	.LBE382:
 2122              	.LBE387:
  38:../src/Pedal.cpp **** 	audioMuteTrigger.Init(daisy::seed::D12, GPIO::Mode::OUTPUT);
 2123              		.loc 1 38 25 is_stmt 0 view .LVU561
 2124 0124 0025     		movs	r5, #0
 2125 0126 A044     		add	r8, r8, r4
 2126 0128 4FF00B0A 		mov	r10, #11
 2127 012c 69F30701 		bfi	r1, r9, #0, #8
 2128              	.LBB388:
 2129              	.LBB383:
 2130              	.LBB379:
 2131              	.LBB376:
 2132              	.LBB373:
 2133              	.LBB369:
 2134              		.loc 2 51 64 view .LVU562
 2135 0130 86ED000A 		vstr.32	s0, [r6]
 2136              	.LVL173:
 2137              		.loc 2 51 64 view .LVU563
 2138              	.LBE369:
 2139              	.LBE373:
 210:../src/Pedal.cpp **** 		leds[i].SetSampleRate(CallbackRate());
 2140              		.loc 1 210 2 is_stmt 1 discriminator 3 view .LVU564
 210:../src/Pedal.cpp **** 		leds[i].SetSampleRate(CallbackRate());
 2141              		.loc 1 210 23 discriminator 1 view .LVU565
 210:../src/Pedal.cpp **** 		leds[i].SetSampleRate(CallbackRate());
 2142              		.loc 1 210 23 is_stmt 0 discriminator 1 view .LVU566
 2143              	.LBE376:
 2144              	.LBE379:
 2145              	.LBE383:
 2146              	.LBE388:
  38:../src/Pedal.cpp **** 	audioMuteTrigger.Init(daisy::seed::D12, GPIO::Mode::OUTPUT);
 2147              		.loc 1 38 2 is_stmt 1 view .LVU567
  38:../src/Pedal.cpp **** 	audioMuteTrigger.Init(daisy::seed::D12, GPIO::Mode::OUTPUT);
 2148              		.loc 1 38 25 is_stmt 0 view .LVU568
 2149 0134 2B46     		mov	r3, r5
 2150 0136 4046     		mov	r0, r8
 2151 0138 6AF30F21 		bfi	r1, r10, #8, #8
 2152 013c 0122     		movs	r2, #1
 2153 013e 0095     		str	r5, [sp]
  39:../src/Pedal.cpp **** 	SetBypass(true);
 2154              		.loc 1 39 23 view .LVU569
 2155 0140 4FF0090B 		mov	fp, #9
  38:../src/Pedal.cpp **** 	audioMuteTrigger.Init(daisy::seed::D12, GPIO::Mode::OUTPUT);
 2156              		.loc 1 38 25 view .LVU570
 2157 0144 FFF7FEFF 		bl	_ZN5daisy4GPIO4InitENS_3PinENS0_4ModeENS0_4PullENS0_5SpeedE
ARM GAS  /var/folders/83/vwtnzcdn1v99b_lf0k0gsjzr0000gn/T//cc93oyUL.s 			page 74


 2158              	.LVL174:
  39:../src/Pedal.cpp **** 	SetBypass(true);
 2159              		.loc 1 39 2 is_stmt 1 view .LVU571
  39:../src/Pedal.cpp **** 	SetBypass(true);
 2160              		.loc 1 39 23 is_stmt 0 view .LVU572
 2161 0148 0122     		movs	r2, #1
 2162 014a 49F20C77 		movw	r7, #38668
 2163 014e 2B46     		mov	r3, r5
 2164 0150 62F30701 		bfi	r1, r2, #0, #8
 2165 0154 0095     		str	r5, [sp]
 2166 0156 3819     		adds	r0, r7, r4
 2167 0158 1646     		mov	r6, r2
 2168 015a 6BF30F21 		bfi	r1, fp, #8, #8
 2169 015e FFF7FEFF 		bl	_ZN5daisy4GPIO4InitENS_3PinENS0_4ModeENS0_4PullENS0_5SpeedE
 2170              	.LVL175:
  40:../src/Pedal.cpp **** 	SetMute(false);
 2171              		.loc 1 40 2 is_stmt 1 view .LVU573
 2172              	.LBB389:
 2173              	.LBI389:
 131:../src/Pedal.cpp **** {
 2174              		.loc 1 131 6 view .LVU574
 2175              	.LBB390:
 133:../src/Pedal.cpp **** 	audioBypassTrigger.Write(!audioBypass);
 2176              		.loc 1 133 2 view .LVU575
 134:../src/Pedal.cpp **** }
 2177              		.loc 1 134 26 is_stmt 0 view .LVU576
 2178 0162 4046     		mov	r0, r8
 133:../src/Pedal.cpp **** 	audioBypassTrigger.Write(!audioBypass);
 2179              		.loc 1 133 14 view .LVU577
 2180 0164 04F51048 		add	r8, r4, #36864
 134:../src/Pedal.cpp **** }
 2181              		.loc 1 134 26 view .LVU578
 2182 0168 2946     		mov	r1, r5
 133:../src/Pedal.cpp **** 	audioBypassTrigger.Write(!audioBypass);
 2183              		.loc 1 133 14 view .LVU579
 2184 016a 88F80867 		strb	r6, [r8, #1800]
 134:../src/Pedal.cpp **** }
 2185              		.loc 1 134 2 is_stmt 1 view .LVU580
 134:../src/Pedal.cpp **** }
 2186              		.loc 1 134 26 is_stmt 0 view .LVU581
 2187 016e FFF7FEFF 		bl	_ZN5daisy4GPIO5WriteEb
 2188              	.LVL176:
 134:../src/Pedal.cpp **** }
 2189              		.loc 1 134 26 view .LVU582
 2190              	.LBE390:
 2191              	.LBE389:
  41:../src/Pedal.cpp **** 
 2192              		.loc 1 41 2 is_stmt 1 view .LVU583
 2193              	.LBB391:
 2194              	.LBI391:
 137:../src/Pedal.cpp **** {
 2195              		.loc 1 137 6 view .LVU584
 2196              	.LBB392:
 139:../src/Pedal.cpp **** 	audioMuteTrigger.Write(audioMute);
 2197              		.loc 1 139 2 view .LVU585
 140:../src/Pedal.cpp **** }
 2198              		.loc 1 140 24 is_stmt 0 view .LVU586
ARM GAS  /var/folders/83/vwtnzcdn1v99b_lf0k0gsjzr0000gn/T//cc93oyUL.s 			page 75


 2199 0172 3819     		adds	r0, r7, r4
 2200 0174 2946     		mov	r1, r5
 139:../src/Pedal.cpp **** 	audioMuteTrigger.Write(audioMute);
 2201              		.loc 1 139 12 view .LVU587
 2202 0176 88F82057 		strb	r5, [r8, #1824]
 140:../src/Pedal.cpp **** }
 2203              		.loc 1 140 2 is_stmt 1 view .LVU588
 140:../src/Pedal.cpp **** }
 2204              		.loc 1 140 24 is_stmt 0 view .LVU589
 2205 017a FFF7FEFF 		bl	_ZN5daisy4GPIO5WriteEb
 2206              	.LVL177:
 140:../src/Pedal.cpp **** }
 2207              		.loc 1 140 24 view .LVU590
 2208              	.LBE392:
 2209              	.LBE391:
  44:../src/Pedal.cpp **** 	config.driver_config.transport_config.pin_config.dc = seed.GetPin(DISPLAY_DC_PIN);
 2210              		.loc 1 44 2 is_stmt 1 view .LVU591
 2211              	.LBB393:
 2212              	.LBI393:
 2213              		.file 8 "/Users/amc/git/libDaisy/src/hid/disp/oled_display.h"
   1:/Users/amc/git/libDaisy/src/hid/disp/oled_display.h **** #pragma once
   2:/Users/amc/git/libDaisy/src/hid/disp/oled_display.h **** #ifndef DSY_OLED_DISPLAY_H
   3:/Users/amc/git/libDaisy/src/hid/disp/oled_display.h **** #define DSY_OLED_DISPLAY_H /**< Macro */
   4:/Users/amc/git/libDaisy/src/hid/disp/oled_display.h **** 
   5:/Users/amc/git/libDaisy/src/hid/disp/oled_display.h **** #include "display.h"
   6:/Users/amc/git/libDaisy/src/hid/disp/oled_display.h **** 
   7:/Users/amc/git/libDaisy/src/hid/disp/oled_display.h **** namespace daisy
   8:/Users/amc/git/libDaisy/src/hid/disp/oled_display.h **** {
   9:/Users/amc/git/libDaisy/src/hid/disp/oled_display.h **** /** 
  10:/Users/amc/git/libDaisy/src/hid/disp/oled_display.h ****  * This class is for drawing to a monochrome OLED display. 
  11:/Users/amc/git/libDaisy/src/hid/disp/oled_display.h ****  * @ingroup device
  12:/Users/amc/git/libDaisy/src/hid/disp/oled_display.h **** */
  13:/Users/amc/git/libDaisy/src/hid/disp/oled_display.h **** template <typename DisplayDriver>
  14:/Users/amc/git/libDaisy/src/hid/disp/oled_display.h **** class OledDisplay : public OneBitGraphicsDisplayImpl<OledDisplay<DisplayDriver>>
  15:/Users/amc/git/libDaisy/src/hid/disp/oled_display.h **** {
  16:/Users/amc/git/libDaisy/src/hid/disp/oled_display.h ****   public:
  17:/Users/amc/git/libDaisy/src/hid/disp/oled_display.h ****     OledDisplay() {}
  18:/Users/amc/git/libDaisy/src/hid/disp/oled_display.h ****     virtual ~OledDisplay() {}
  19:/Users/amc/git/libDaisy/src/hid/disp/oled_display.h **** 
  20:/Users/amc/git/libDaisy/src/hid/disp/oled_display.h ****     struct Config
 2214              		.loc 8 20 12 view .LVU592
 2215              	.LBB394:
 2216              	.LBI394:
 2217              		.file 9 "/Users/amc/git/libDaisy/src/dev/oled_ssd130x.h"
   1:/Users/amc/git/libDaisy/src/dev/oled_ssd130x.h **** #pragma once
   2:/Users/amc/git/libDaisy/src/dev/oled_ssd130x.h **** #ifndef SA_OLED_SSD130X_H
   3:/Users/amc/git/libDaisy/src/dev/oled_ssd130x.h **** #define SA_OLED_SSD130X_H /**< & */
   4:/Users/amc/git/libDaisy/src/dev/oled_ssd130x.h **** 
   5:/Users/amc/git/libDaisy/src/dev/oled_ssd130x.h **** #include "per/i2c.h"
   6:/Users/amc/git/libDaisy/src/dev/oled_ssd130x.h **** #include "per/spi.h"
   7:/Users/amc/git/libDaisy/src/dev/oled_ssd130x.h **** #include "per/gpio.h"
   8:/Users/amc/git/libDaisy/src/dev/oled_ssd130x.h **** #include "sys/system.h"
   9:/Users/amc/git/libDaisy/src/dev/oled_ssd130x.h **** 
  10:/Users/amc/git/libDaisy/src/dev/oled_ssd130x.h **** namespace daisy
  11:/Users/amc/git/libDaisy/src/dev/oled_ssd130x.h **** {
  12:/Users/amc/git/libDaisy/src/dev/oled_ssd130x.h **** /**
  13:/Users/amc/git/libDaisy/src/dev/oled_ssd130x.h ****  * I2C Transport for SSD1306 / SSD1309 OLED display devices
ARM GAS  /var/folders/83/vwtnzcdn1v99b_lf0k0gsjzr0000gn/T//cc93oyUL.s 			page 76


  14:/Users/amc/git/libDaisy/src/dev/oled_ssd130x.h ****  */
  15:/Users/amc/git/libDaisy/src/dev/oled_ssd130x.h **** class SSD130xI2CTransport
  16:/Users/amc/git/libDaisy/src/dev/oled_ssd130x.h **** {
  17:/Users/amc/git/libDaisy/src/dev/oled_ssd130x.h ****   public:
  18:/Users/amc/git/libDaisy/src/dev/oled_ssd130x.h ****     struct Config
  19:/Users/amc/git/libDaisy/src/dev/oled_ssd130x.h ****     {
  20:/Users/amc/git/libDaisy/src/dev/oled_ssd130x.h ****         Config()
  21:/Users/amc/git/libDaisy/src/dev/oled_ssd130x.h ****         {
  22:/Users/amc/git/libDaisy/src/dev/oled_ssd130x.h ****             // Intialize using defaults
  23:/Users/amc/git/libDaisy/src/dev/oled_ssd130x.h ****             Defaults();
  24:/Users/amc/git/libDaisy/src/dev/oled_ssd130x.h ****         }
  25:/Users/amc/git/libDaisy/src/dev/oled_ssd130x.h ****         I2CHandle::Config i2c_config;
  26:/Users/amc/git/libDaisy/src/dev/oled_ssd130x.h ****         uint8_t           i2c_address;
  27:/Users/amc/git/libDaisy/src/dev/oled_ssd130x.h ****         void              Defaults()
  28:/Users/amc/git/libDaisy/src/dev/oled_ssd130x.h ****         {
  29:/Users/amc/git/libDaisy/src/dev/oled_ssd130x.h ****             i2c_config.periph         = I2CHandle::Config::Peripheral::I2C_1;
  30:/Users/amc/git/libDaisy/src/dev/oled_ssd130x.h ****             i2c_config.speed          = I2CHandle::Config::Speed::I2C_1MHZ;
  31:/Users/amc/git/libDaisy/src/dev/oled_ssd130x.h ****             i2c_config.mode           = I2CHandle::Config::Mode::I2C_MASTER;
  32:/Users/amc/git/libDaisy/src/dev/oled_ssd130x.h ****             i2c_config.pin_config.scl = {DSY_GPIOB, 8};
  33:/Users/amc/git/libDaisy/src/dev/oled_ssd130x.h ****             i2c_config.pin_config.sda = {DSY_GPIOB, 9};
  34:/Users/amc/git/libDaisy/src/dev/oled_ssd130x.h ****             i2c_address               = 0x3C;
  35:/Users/amc/git/libDaisy/src/dev/oled_ssd130x.h ****         }
  36:/Users/amc/git/libDaisy/src/dev/oled_ssd130x.h ****     };
  37:/Users/amc/git/libDaisy/src/dev/oled_ssd130x.h ****     void Init(const Config& config)
  38:/Users/amc/git/libDaisy/src/dev/oled_ssd130x.h ****     {
  39:/Users/amc/git/libDaisy/src/dev/oled_ssd130x.h ****         i2c_address_ = config.i2c_address;
  40:/Users/amc/git/libDaisy/src/dev/oled_ssd130x.h ****         i2c_.Init(config.i2c_config);
  41:/Users/amc/git/libDaisy/src/dev/oled_ssd130x.h ****     };
  42:/Users/amc/git/libDaisy/src/dev/oled_ssd130x.h ****     void SendCommand(uint8_t cmd)
  43:/Users/amc/git/libDaisy/src/dev/oled_ssd130x.h ****     {
  44:/Users/amc/git/libDaisy/src/dev/oled_ssd130x.h ****         uint8_t buf[2] = {0X00, cmd};
  45:/Users/amc/git/libDaisy/src/dev/oled_ssd130x.h ****         i2c_.TransmitBlocking(i2c_address_, buf, 2, 1000);
  46:/Users/amc/git/libDaisy/src/dev/oled_ssd130x.h ****     };
  47:/Users/amc/git/libDaisy/src/dev/oled_ssd130x.h **** 
  48:/Users/amc/git/libDaisy/src/dev/oled_ssd130x.h ****     void SendData(uint8_t* buff, size_t size)
  49:/Users/amc/git/libDaisy/src/dev/oled_ssd130x.h ****     {
  50:/Users/amc/git/libDaisy/src/dev/oled_ssd130x.h ****         for(size_t i = 0; i < size; i++)
  51:/Users/amc/git/libDaisy/src/dev/oled_ssd130x.h ****         {
  52:/Users/amc/git/libDaisy/src/dev/oled_ssd130x.h ****             uint8_t buf[2] = {0X40, buff[i]};
  53:/Users/amc/git/libDaisy/src/dev/oled_ssd130x.h ****             i2c_.TransmitBlocking(i2c_address_, buf, 2, 1000);
  54:/Users/amc/git/libDaisy/src/dev/oled_ssd130x.h ****         }
  55:/Users/amc/git/libDaisy/src/dev/oled_ssd130x.h ****     };
  56:/Users/amc/git/libDaisy/src/dev/oled_ssd130x.h **** 
  57:/Users/amc/git/libDaisy/src/dev/oled_ssd130x.h ****   private:
  58:/Users/amc/git/libDaisy/src/dev/oled_ssd130x.h ****     daisy::I2CHandle i2c_;
  59:/Users/amc/git/libDaisy/src/dev/oled_ssd130x.h ****     uint8_t          i2c_address_;
  60:/Users/amc/git/libDaisy/src/dev/oled_ssd130x.h **** };
  61:/Users/amc/git/libDaisy/src/dev/oled_ssd130x.h **** 
  62:/Users/amc/git/libDaisy/src/dev/oled_ssd130x.h **** /**
  63:/Users/amc/git/libDaisy/src/dev/oled_ssd130x.h ****  * 4 Wire SPI Transport for SSD1306 / SSD1309 OLED display devices
  64:/Users/amc/git/libDaisy/src/dev/oled_ssd130x.h ****  */
  65:/Users/amc/git/libDaisy/src/dev/oled_ssd130x.h **** class SSD130x4WireSpiTransport
  66:/Users/amc/git/libDaisy/src/dev/oled_ssd130x.h **** {
  67:/Users/amc/git/libDaisy/src/dev/oled_ssd130x.h ****   public:
  68:/Users/amc/git/libDaisy/src/dev/oled_ssd130x.h ****     struct Config
  69:/Users/amc/git/libDaisy/src/dev/oled_ssd130x.h ****     {
  70:/Users/amc/git/libDaisy/src/dev/oled_ssd130x.h ****         Config()
ARM GAS  /var/folders/83/vwtnzcdn1v99b_lf0k0gsjzr0000gn/T//cc93oyUL.s 			page 77


  71:/Users/amc/git/libDaisy/src/dev/oled_ssd130x.h ****         {
  72:/Users/amc/git/libDaisy/src/dev/oled_ssd130x.h ****             // Initialize using defaults
  73:/Users/amc/git/libDaisy/src/dev/oled_ssd130x.h ****             Defaults();
  74:/Users/amc/git/libDaisy/src/dev/oled_ssd130x.h ****         }
  75:/Users/amc/git/libDaisy/src/dev/oled_ssd130x.h ****         SpiHandle::Config spi_config;
  76:/Users/amc/git/libDaisy/src/dev/oled_ssd130x.h ****         struct
  77:/Users/amc/git/libDaisy/src/dev/oled_ssd130x.h ****         {
  78:/Users/amc/git/libDaisy/src/dev/oled_ssd130x.h ****             dsy_gpio_pin dc;    /**< & */
  79:/Users/amc/git/libDaisy/src/dev/oled_ssd130x.h ****             dsy_gpio_pin reset; /**< & */
  80:/Users/amc/git/libDaisy/src/dev/oled_ssd130x.h ****         } pin_config;
  81:/Users/amc/git/libDaisy/src/dev/oled_ssd130x.h ****         void Defaults()
  82:/Users/amc/git/libDaisy/src/dev/oled_ssd130x.h ****         {
  83:/Users/amc/git/libDaisy/src/dev/oled_ssd130x.h ****             // SPI peripheral config
  84:/Users/amc/git/libDaisy/src/dev/oled_ssd130x.h ****             spi_config.periph = SpiHandle::Config::Peripheral::SPI_1;
  85:/Users/amc/git/libDaisy/src/dev/oled_ssd130x.h ****             spi_config.mode   = SpiHandle::Config::Mode::MASTER;
  86:/Users/amc/git/libDaisy/src/dev/oled_ssd130x.h ****             spi_config.direction
  87:/Users/amc/git/libDaisy/src/dev/oled_ssd130x.h ****                 = SpiHandle::Config::Direction::TWO_LINES_TX_ONLY;
  88:/Users/amc/git/libDaisy/src/dev/oled_ssd130x.h ****             spi_config.datasize       = 8;
  89:/Users/amc/git/libDaisy/src/dev/oled_ssd130x.h ****             spi_config.clock_polarity = SpiHandle::Config::ClockPolarity::LOW;
  90:/Users/amc/git/libDaisy/src/dev/oled_ssd130x.h ****             spi_config.clock_phase    = SpiHandle::Config::ClockPhase::ONE_EDGE;
  91:/Users/amc/git/libDaisy/src/dev/oled_ssd130x.h ****             spi_config.nss            = SpiHandle::Config::NSS::HARD_OUTPUT;
  92:/Users/amc/git/libDaisy/src/dev/oled_ssd130x.h ****             spi_config.baud_prescaler = SpiHandle::Config::BaudPrescaler::PS_8;
  93:/Users/amc/git/libDaisy/src/dev/oled_ssd130x.h ****             // SPI pin config
  94:/Users/amc/git/libDaisy/src/dev/oled_ssd130x.h ****             spi_config.pin_config.sclk = {DSY_GPIOG, 11};
  95:/Users/amc/git/libDaisy/src/dev/oled_ssd130x.h ****             spi_config.pin_config.miso = {DSY_GPIOX, 0};
  96:/Users/amc/git/libDaisy/src/dev/oled_ssd130x.h ****             spi_config.pin_config.mosi = {DSY_GPIOB, 5};
  97:/Users/amc/git/libDaisy/src/dev/oled_ssd130x.h ****             spi_config.pin_config.nss  = {DSY_GPIOG, 10};
  98:/Users/amc/git/libDaisy/src/dev/oled_ssd130x.h ****             // SSD130x control pin config
  99:/Users/amc/git/libDaisy/src/dev/oled_ssd130x.h ****             pin_config.dc    = {DSY_GPIOB, 4};
 100:/Users/amc/git/libDaisy/src/dev/oled_ssd130x.h ****             pin_config.reset = {DSY_GPIOB, 15};
 101:/Users/amc/git/libDaisy/src/dev/oled_ssd130x.h ****         }
 102:/Users/amc/git/libDaisy/src/dev/oled_ssd130x.h ****     };
 103:/Users/amc/git/libDaisy/src/dev/oled_ssd130x.h ****     void Init(const Config& config)
 104:/Users/amc/git/libDaisy/src/dev/oled_ssd130x.h ****     {
 105:/Users/amc/git/libDaisy/src/dev/oled_ssd130x.h ****         // Initialize both GPIO
 106:/Users/amc/git/libDaisy/src/dev/oled_ssd130x.h ****         pin_dc_.mode = DSY_GPIO_MODE_OUTPUT_PP;
 107:/Users/amc/git/libDaisy/src/dev/oled_ssd130x.h ****         pin_dc_.pin  = config.pin_config.dc;
 108:/Users/amc/git/libDaisy/src/dev/oled_ssd130x.h ****         dsy_gpio_init(&pin_dc_);
 109:/Users/amc/git/libDaisy/src/dev/oled_ssd130x.h ****         pin_reset_.mode = DSY_GPIO_MODE_OUTPUT_PP;
 110:/Users/amc/git/libDaisy/src/dev/oled_ssd130x.h ****         pin_reset_.pin  = config.pin_config.reset;
 111:/Users/amc/git/libDaisy/src/dev/oled_ssd130x.h ****         dsy_gpio_init(&pin_reset_);
 112:/Users/amc/git/libDaisy/src/dev/oled_ssd130x.h **** 
 113:/Users/amc/git/libDaisy/src/dev/oled_ssd130x.h ****         // Initialize SPI
 114:/Users/amc/git/libDaisy/src/dev/oled_ssd130x.h ****         spi_.Init(config.spi_config);
 115:/Users/amc/git/libDaisy/src/dev/oled_ssd130x.h **** 
 116:/Users/amc/git/libDaisy/src/dev/oled_ssd130x.h ****         // Reset and Configure OLED.
 117:/Users/amc/git/libDaisy/src/dev/oled_ssd130x.h ****         dsy_gpio_write(&pin_reset_, 0);
 118:/Users/amc/git/libDaisy/src/dev/oled_ssd130x.h ****         System::Delay(10);
 119:/Users/amc/git/libDaisy/src/dev/oled_ssd130x.h ****         dsy_gpio_write(&pin_reset_, 1);
 120:/Users/amc/git/libDaisy/src/dev/oled_ssd130x.h ****         System::Delay(10);
 121:/Users/amc/git/libDaisy/src/dev/oled_ssd130x.h ****     };
 122:/Users/amc/git/libDaisy/src/dev/oled_ssd130x.h ****     void SendCommand(uint8_t cmd)
 123:/Users/amc/git/libDaisy/src/dev/oled_ssd130x.h ****     {
 124:/Users/amc/git/libDaisy/src/dev/oled_ssd130x.h ****         dsy_gpio_write(&pin_dc_, 0);
 125:/Users/amc/git/libDaisy/src/dev/oled_ssd130x.h ****         spi_.BlockingTransmit(&cmd, 1);
 126:/Users/amc/git/libDaisy/src/dev/oled_ssd130x.h ****     };
 127:/Users/amc/git/libDaisy/src/dev/oled_ssd130x.h **** 
ARM GAS  /var/folders/83/vwtnzcdn1v99b_lf0k0gsjzr0000gn/T//cc93oyUL.s 			page 78


 128:/Users/amc/git/libDaisy/src/dev/oled_ssd130x.h ****     void SendData(uint8_t* buff, size_t size)
 129:/Users/amc/git/libDaisy/src/dev/oled_ssd130x.h ****     {
 130:/Users/amc/git/libDaisy/src/dev/oled_ssd130x.h ****         dsy_gpio_write(&pin_dc_, 1);
 131:/Users/amc/git/libDaisy/src/dev/oled_ssd130x.h ****         spi_.BlockingTransmit(buff, size);
 132:/Users/amc/git/libDaisy/src/dev/oled_ssd130x.h ****     };
 133:/Users/amc/git/libDaisy/src/dev/oled_ssd130x.h **** 
 134:/Users/amc/git/libDaisy/src/dev/oled_ssd130x.h ****   private:
 135:/Users/amc/git/libDaisy/src/dev/oled_ssd130x.h ****     SpiHandle spi_;
 136:/Users/amc/git/libDaisy/src/dev/oled_ssd130x.h ****     dsy_gpio  pin_reset_;
 137:/Users/amc/git/libDaisy/src/dev/oled_ssd130x.h ****     dsy_gpio  pin_dc_;
 138:/Users/amc/git/libDaisy/src/dev/oled_ssd130x.h **** };
 139:/Users/amc/git/libDaisy/src/dev/oled_ssd130x.h **** 
 140:/Users/amc/git/libDaisy/src/dev/oled_ssd130x.h **** /**
 141:/Users/amc/git/libDaisy/src/dev/oled_ssd130x.h ****  * Soft SPI Transport for SSD1306 / SSD1309 OLED display devices
 142:/Users/amc/git/libDaisy/src/dev/oled_ssd130x.h ****  */
 143:/Users/amc/git/libDaisy/src/dev/oled_ssd130x.h **** class SSD130x4WireSoftSpiTransport
 144:/Users/amc/git/libDaisy/src/dev/oled_ssd130x.h **** {
 145:/Users/amc/git/libDaisy/src/dev/oled_ssd130x.h ****   public:
 146:/Users/amc/git/libDaisy/src/dev/oled_ssd130x.h ****     struct Config
 147:/Users/amc/git/libDaisy/src/dev/oled_ssd130x.h ****     {
 148:/Users/amc/git/libDaisy/src/dev/oled_ssd130x.h ****         Config()
 149:/Users/amc/git/libDaisy/src/dev/oled_ssd130x.h ****         {
 150:/Users/amc/git/libDaisy/src/dev/oled_ssd130x.h ****             // Initialize using defaults
 151:/Users/amc/git/libDaisy/src/dev/oled_ssd130x.h ****             Defaults();
 152:/Users/amc/git/libDaisy/src/dev/oled_ssd130x.h ****         }
 153:/Users/amc/git/libDaisy/src/dev/oled_ssd130x.h ****         struct
 154:/Users/amc/git/libDaisy/src/dev/oled_ssd130x.h ****         {
 155:/Users/amc/git/libDaisy/src/dev/oled_ssd130x.h ****             uint32_t     sclk_delay;
 156:/Users/amc/git/libDaisy/src/dev/oled_ssd130x.h ****             dsy_gpio_pin sclk;
 157:/Users/amc/git/libDaisy/src/dev/oled_ssd130x.h ****             dsy_gpio_pin mosi;
 158:/Users/amc/git/libDaisy/src/dev/oled_ssd130x.h ****             dsy_gpio_pin dc;
 159:/Users/amc/git/libDaisy/src/dev/oled_ssd130x.h ****             dsy_gpio_pin reset;
 160:/Users/amc/git/libDaisy/src/dev/oled_ssd130x.h ****         } pin_config;
 161:/Users/amc/git/libDaisy/src/dev/oled_ssd130x.h ****         void Defaults()
 162:/Users/amc/git/libDaisy/src/dev/oled_ssd130x.h ****         {
 163:/Users/amc/git/libDaisy/src/dev/oled_ssd130x.h ****             pin_config.sclk_delay = 0; // fast as possible?!
 164:/Users/amc/git/libDaisy/src/dev/oled_ssd130x.h ****             // SPI peripheral config
 165:/Users/amc/git/libDaisy/src/dev/oled_ssd130x.h ****             pin_config.sclk = {DSY_GPIOD, 3}; /**< D10 - SPI2 SCK  */
 166:/Users/amc/git/libDaisy/src/dev/oled_ssd130x.h ****             pin_config.mosi = {DSY_GPIOC, 3}; /**< D9  - SPI2 MOSI */
 167:/Users/amc/git/libDaisy/src/dev/oled_ssd130x.h ****             // SSD130x control pin config
 168:/Users/amc/git/libDaisy/src/dev/oled_ssd130x.h ****             pin_config.dc    = {DSY_GPIOC, 11}; //D2
 169:/Users/amc/git/libDaisy/src/dev/oled_ssd130x.h ****             pin_config.reset = {DSY_GPIOC, 10}; //D3
 170:/Users/amc/git/libDaisy/src/dev/oled_ssd130x.h ****         }
 171:/Users/amc/git/libDaisy/src/dev/oled_ssd130x.h ****     };
 172:/Users/amc/git/libDaisy/src/dev/oled_ssd130x.h ****     void Init(const Config& config)
 173:/Users/amc/git/libDaisy/src/dev/oled_ssd130x.h ****     {
 174:/Users/amc/git/libDaisy/src/dev/oled_ssd130x.h ****         // Initialize both GPIO
 175:/Users/amc/git/libDaisy/src/dev/oled_ssd130x.h ****         pin_sclk_.mode = DSY_GPIO_MODE_OUTPUT_PP;
 176:/Users/amc/git/libDaisy/src/dev/oled_ssd130x.h ****         pin_sclk_.pin  = config.pin_config.sclk;
 177:/Users/amc/git/libDaisy/src/dev/oled_ssd130x.h ****         dsy_gpio_init(&pin_sclk_);
 178:/Users/amc/git/libDaisy/src/dev/oled_ssd130x.h ****         dsy_gpio_write(&pin_sclk_, 1); //ClockPolarity::LOW
 179:/Users/amc/git/libDaisy/src/dev/oled_ssd130x.h ****         clk_delay      = config.pin_config.sclk_delay;
 180:/Users/amc/git/libDaisy/src/dev/oled_ssd130x.h ****         pin_mosi_.mode = DSY_GPIO_MODE_OUTPUT_PP;
 181:/Users/amc/git/libDaisy/src/dev/oled_ssd130x.h ****         pin_mosi_.pin  = config.pin_config.mosi;
 182:/Users/amc/git/libDaisy/src/dev/oled_ssd130x.h ****         dsy_gpio_init(&pin_mosi_);
 183:/Users/amc/git/libDaisy/src/dev/oled_ssd130x.h ****         dsy_gpio_write(&pin_mosi_, 0);
 184:/Users/amc/git/libDaisy/src/dev/oled_ssd130x.h **** 
ARM GAS  /var/folders/83/vwtnzcdn1v99b_lf0k0gsjzr0000gn/T//cc93oyUL.s 			page 79


 185:/Users/amc/git/libDaisy/src/dev/oled_ssd130x.h ****         pin_dc_.mode = DSY_GPIO_MODE_OUTPUT_PP;
 186:/Users/amc/git/libDaisy/src/dev/oled_ssd130x.h ****         pin_dc_.pin  = config.pin_config.dc;
 187:/Users/amc/git/libDaisy/src/dev/oled_ssd130x.h ****         dsy_gpio_init(&pin_dc_);
 188:/Users/amc/git/libDaisy/src/dev/oled_ssd130x.h ****         pin_reset_.mode = DSY_GPIO_MODE_OUTPUT_PP;
 189:/Users/amc/git/libDaisy/src/dev/oled_ssd130x.h ****         pin_reset_.pin  = config.pin_config.reset;
 190:/Users/amc/git/libDaisy/src/dev/oled_ssd130x.h ****         dsy_gpio_init(&pin_reset_);
 191:/Users/amc/git/libDaisy/src/dev/oled_ssd130x.h **** 
 192:/Users/amc/git/libDaisy/src/dev/oled_ssd130x.h ****         // Reset and Configure OLED.
 193:/Users/amc/git/libDaisy/src/dev/oled_ssd130x.h ****         dsy_gpio_write(&pin_reset_, 0);
 194:/Users/amc/git/libDaisy/src/dev/oled_ssd130x.h ****         System::Delay(10);
 195:/Users/amc/git/libDaisy/src/dev/oled_ssd130x.h ****         dsy_gpio_write(&pin_reset_, 1);
 196:/Users/amc/git/libDaisy/src/dev/oled_ssd130x.h ****         System::Delay(10);
 197:/Users/amc/git/libDaisy/src/dev/oled_ssd130x.h ****     };
 198:/Users/amc/git/libDaisy/src/dev/oled_ssd130x.h ****     void SendCommand(uint8_t cmd)
 199:/Users/amc/git/libDaisy/src/dev/oled_ssd130x.h ****     {
 200:/Users/amc/git/libDaisy/src/dev/oled_ssd130x.h ****         dsy_gpio_write(&pin_dc_, 0);
 201:/Users/amc/git/libDaisy/src/dev/oled_ssd130x.h ****         SoftSpiTransmit(cmd);
 202:/Users/amc/git/libDaisy/src/dev/oled_ssd130x.h ****     };
 203:/Users/amc/git/libDaisy/src/dev/oled_ssd130x.h **** 
 204:/Users/amc/git/libDaisy/src/dev/oled_ssd130x.h ****     void SendData(uint8_t* buff, size_t size)
 205:/Users/amc/git/libDaisy/src/dev/oled_ssd130x.h ****     {
 206:/Users/amc/git/libDaisy/src/dev/oled_ssd130x.h ****         dsy_gpio_write(&pin_dc_, 1);
 207:/Users/amc/git/libDaisy/src/dev/oled_ssd130x.h ****         for(size_t i = 0; i < size; i++)
 208:/Users/amc/git/libDaisy/src/dev/oled_ssd130x.h ****             SoftSpiTransmit(buff[i]);
 209:/Users/amc/git/libDaisy/src/dev/oled_ssd130x.h ****     };
 210:/Users/amc/git/libDaisy/src/dev/oled_ssd130x.h **** 
 211:/Users/amc/git/libDaisy/src/dev/oled_ssd130x.h ****   private:
 212:/Users/amc/git/libDaisy/src/dev/oled_ssd130x.h ****     void SoftSpiTransmit(uint8_t val)
 213:/Users/amc/git/libDaisy/src/dev/oled_ssd130x.h ****     {
 214:/Users/amc/git/libDaisy/src/dev/oled_ssd130x.h ****         // bit flip
 215:/Users/amc/git/libDaisy/src/dev/oled_ssd130x.h ****         val = ((val & 0x01) << 7) | ((val & 0x02) << 5) | ((val & 0x04) << 3)
 216:/Users/amc/git/libDaisy/src/dev/oled_ssd130x.h ****               | ((val & 0x08) << 1) | ((val & 0x10) >> 1) | ((val & 0x20) >> 3)
 217:/Users/amc/git/libDaisy/src/dev/oled_ssd130x.h ****               | ((val & 0x40) >> 5) | ((val & 0x80) >> 7);
 218:/Users/amc/git/libDaisy/src/dev/oled_ssd130x.h **** 
 219:/Users/amc/git/libDaisy/src/dev/oled_ssd130x.h ****         for(uint8_t bit = 0u; bit < 8u; bit++)
 220:/Users/amc/git/libDaisy/src/dev/oled_ssd130x.h ****         {
 221:/Users/amc/git/libDaisy/src/dev/oled_ssd130x.h ****             dsy_gpio_write(&pin_mosi_, ((val & (1 << bit)) ? 1 : 0));
 222:/Users/amc/git/libDaisy/src/dev/oled_ssd130x.h **** 
 223:/Users/amc/git/libDaisy/src/dev/oled_ssd130x.h ****             System::DelayTicks(clk_delay);
 224:/Users/amc/git/libDaisy/src/dev/oled_ssd130x.h **** 
 225:/Users/amc/git/libDaisy/src/dev/oled_ssd130x.h ****             dsy_gpio_toggle(&pin_sclk_);
 226:/Users/amc/git/libDaisy/src/dev/oled_ssd130x.h **** 
 227:/Users/amc/git/libDaisy/src/dev/oled_ssd130x.h ****             System::DelayTicks(clk_delay);
 228:/Users/amc/git/libDaisy/src/dev/oled_ssd130x.h **** 
 229:/Users/amc/git/libDaisy/src/dev/oled_ssd130x.h ****             dsy_gpio_toggle(&pin_sclk_);
 230:/Users/amc/git/libDaisy/src/dev/oled_ssd130x.h ****         }
 231:/Users/amc/git/libDaisy/src/dev/oled_ssd130x.h ****     }
 232:/Users/amc/git/libDaisy/src/dev/oled_ssd130x.h **** 
 233:/Users/amc/git/libDaisy/src/dev/oled_ssd130x.h ****     uint32_t clk_delay;
 234:/Users/amc/git/libDaisy/src/dev/oled_ssd130x.h ****     dsy_gpio pin_sclk_;
 235:/Users/amc/git/libDaisy/src/dev/oled_ssd130x.h ****     dsy_gpio pin_mosi_;
 236:/Users/amc/git/libDaisy/src/dev/oled_ssd130x.h ****     dsy_gpio pin_reset_;
 237:/Users/amc/git/libDaisy/src/dev/oled_ssd130x.h ****     dsy_gpio pin_dc_;
 238:/Users/amc/git/libDaisy/src/dev/oled_ssd130x.h **** };
 239:/Users/amc/git/libDaisy/src/dev/oled_ssd130x.h **** 
 240:/Users/amc/git/libDaisy/src/dev/oled_ssd130x.h **** 
 241:/Users/amc/git/libDaisy/src/dev/oled_ssd130x.h **** /**
ARM GAS  /var/folders/83/vwtnzcdn1v99b_lf0k0gsjzr0000gn/T//cc93oyUL.s 			page 80


 242:/Users/amc/git/libDaisy/src/dev/oled_ssd130x.h ****  * A driver implementation for the SSD1306/SSD1309
 243:/Users/amc/git/libDaisy/src/dev/oled_ssd130x.h ****  */
 244:/Users/amc/git/libDaisy/src/dev/oled_ssd130x.h **** template <size_t width, size_t height, typename Transport>
 245:/Users/amc/git/libDaisy/src/dev/oled_ssd130x.h **** class SSD130xDriver
 246:/Users/amc/git/libDaisy/src/dev/oled_ssd130x.h **** {
 247:/Users/amc/git/libDaisy/src/dev/oled_ssd130x.h ****   public:
 248:/Users/amc/git/libDaisy/src/dev/oled_ssd130x.h ****     struct Config
 2218              		.loc 9 248 12 view .LVU593
 2219              	.LBB395:
 2220              	.LBI395:
  70:/Users/amc/git/libDaisy/src/dev/oled_ssd130x.h ****         {
 2221              		.loc 9 70 9 view .LVU594
 2222              	.LBB396:
 2223              	.LBB397:
 2224              	.LBI397:
 2225              		.file 10 "/Users/amc/git/libDaisy/src/per/spi.h"
   1:/Users/amc/git/libDaisy/src/per/spi.h **** #pragma once
   2:/Users/amc/git/libDaisy/src/per/spi.h **** #ifndef DSY_SPI_H
   3:/Users/amc/git/libDaisy/src/per/spi.h **** #define DSY_SPI_H
   4:/Users/amc/git/libDaisy/src/per/spi.h **** 
   5:/Users/amc/git/libDaisy/src/per/spi.h **** #include "daisy_core.h"
   6:/Users/amc/git/libDaisy/src/per/spi.h **** 
   7:/Users/amc/git/libDaisy/src/per/spi.h **** /* TODO:
   8:/Users/amc/git/libDaisy/src/per/spi.h **** - Add documentation
   9:/Users/amc/git/libDaisy/src/per/spi.h **** - Add IT
  10:/Users/amc/git/libDaisy/src/per/spi.h **** */
  11:/Users/amc/git/libDaisy/src/per/spi.h **** 
  12:/Users/amc/git/libDaisy/src/per/spi.h **** namespace daisy
  13:/Users/amc/git/libDaisy/src/per/spi.h **** {
  14:/Users/amc/git/libDaisy/src/per/spi.h **** /** @addtogroup serial
  15:/Users/amc/git/libDaisy/src/per/spi.h **** @{
  16:/Users/amc/git/libDaisy/src/per/spi.h **** */
  17:/Users/amc/git/libDaisy/src/per/spi.h **** 
  18:/Users/amc/git/libDaisy/src/per/spi.h **** /**  Handler for serial peripheral interface */
  19:/Users/amc/git/libDaisy/src/per/spi.h **** class SpiHandle
  20:/Users/amc/git/libDaisy/src/per/spi.h **** {
  21:/Users/amc/git/libDaisy/src/per/spi.h ****   public:
  22:/Users/amc/git/libDaisy/src/per/spi.h ****     struct Config
  23:/Users/amc/git/libDaisy/src/per/spi.h ****     {
  24:/Users/amc/git/libDaisy/src/per/spi.h ****         enum class Peripheral
  25:/Users/amc/git/libDaisy/src/per/spi.h ****         {
  26:/Users/amc/git/libDaisy/src/per/spi.h ****             SPI_1,
  27:/Users/amc/git/libDaisy/src/per/spi.h ****             SPI_2,
  28:/Users/amc/git/libDaisy/src/per/spi.h ****             SPI_3,
  29:/Users/amc/git/libDaisy/src/per/spi.h ****             SPI_4,
  30:/Users/amc/git/libDaisy/src/per/spi.h ****             SPI_5,
  31:/Users/amc/git/libDaisy/src/per/spi.h ****             SPI_6,
  32:/Users/amc/git/libDaisy/src/per/spi.h ****         };
  33:/Users/amc/git/libDaisy/src/per/spi.h **** 
  34:/Users/amc/git/libDaisy/src/per/spi.h ****         enum class Mode
  35:/Users/amc/git/libDaisy/src/per/spi.h ****         {
  36:/Users/amc/git/libDaisy/src/per/spi.h ****             MASTER,
  37:/Users/amc/git/libDaisy/src/per/spi.h ****             SLAVE,
  38:/Users/amc/git/libDaisy/src/per/spi.h ****         };
  39:/Users/amc/git/libDaisy/src/per/spi.h **** 
  40:/Users/amc/git/libDaisy/src/per/spi.h ****         enum class Direction
  41:/Users/amc/git/libDaisy/src/per/spi.h ****         {
ARM GAS  /var/folders/83/vwtnzcdn1v99b_lf0k0gsjzr0000gn/T//cc93oyUL.s 			page 81


  42:/Users/amc/git/libDaisy/src/per/spi.h ****             TWO_LINES,
  43:/Users/amc/git/libDaisy/src/per/spi.h ****             TWO_LINES_TX_ONLY,
  44:/Users/amc/git/libDaisy/src/per/spi.h ****             TWO_LINES_RX_ONLY,
  45:/Users/amc/git/libDaisy/src/per/spi.h ****             ONE_LINE,
  46:/Users/amc/git/libDaisy/src/per/spi.h ****         };
  47:/Users/amc/git/libDaisy/src/per/spi.h **** 
  48:/Users/amc/git/libDaisy/src/per/spi.h ****         enum class ClockPolarity
  49:/Users/amc/git/libDaisy/src/per/spi.h ****         {
  50:/Users/amc/git/libDaisy/src/per/spi.h ****             LOW,
  51:/Users/amc/git/libDaisy/src/per/spi.h ****             HIGH,
  52:/Users/amc/git/libDaisy/src/per/spi.h ****         };
  53:/Users/amc/git/libDaisy/src/per/spi.h **** 
  54:/Users/amc/git/libDaisy/src/per/spi.h ****         enum class ClockPhase
  55:/Users/amc/git/libDaisy/src/per/spi.h ****         {
  56:/Users/amc/git/libDaisy/src/per/spi.h ****             ONE_EDGE,
  57:/Users/amc/git/libDaisy/src/per/spi.h ****             TWO_EDGE,
  58:/Users/amc/git/libDaisy/src/per/spi.h ****         };
  59:/Users/amc/git/libDaisy/src/per/spi.h **** 
  60:/Users/amc/git/libDaisy/src/per/spi.h ****         enum class NSS
  61:/Users/amc/git/libDaisy/src/per/spi.h ****         {
  62:/Users/amc/git/libDaisy/src/per/spi.h ****             SOFT,
  63:/Users/amc/git/libDaisy/src/per/spi.h ****             HARD_INPUT,
  64:/Users/amc/git/libDaisy/src/per/spi.h ****             HARD_OUTPUT,
  65:/Users/amc/git/libDaisy/src/per/spi.h ****         };
  66:/Users/amc/git/libDaisy/src/per/spi.h **** 
  67:/Users/amc/git/libDaisy/src/per/spi.h ****         enum class BaudPrescaler
  68:/Users/amc/git/libDaisy/src/per/spi.h ****         {
  69:/Users/amc/git/libDaisy/src/per/spi.h ****             PS_2,
  70:/Users/amc/git/libDaisy/src/per/spi.h ****             PS_4,
  71:/Users/amc/git/libDaisy/src/per/spi.h ****             PS_8,
  72:/Users/amc/git/libDaisy/src/per/spi.h ****             PS_16,
  73:/Users/amc/git/libDaisy/src/per/spi.h ****             PS_32,
  74:/Users/amc/git/libDaisy/src/per/spi.h ****             PS_64,
  75:/Users/amc/git/libDaisy/src/per/spi.h ****             PS_128,
  76:/Users/amc/git/libDaisy/src/per/spi.h ****             PS_256,
  77:/Users/amc/git/libDaisy/src/per/spi.h ****         };
  78:/Users/amc/git/libDaisy/src/per/spi.h **** 
  79:/Users/amc/git/libDaisy/src/per/spi.h ****         struct
  80:/Users/amc/git/libDaisy/src/per/spi.h ****         {
  81:/Users/amc/git/libDaisy/src/per/spi.h ****             dsy_gpio_pin sclk; /**< & */
  82:/Users/amc/git/libDaisy/src/per/spi.h ****             dsy_gpio_pin miso; /**< & */
  83:/Users/amc/git/libDaisy/src/per/spi.h ****             dsy_gpio_pin mosi; /**< & */
  84:/Users/amc/git/libDaisy/src/per/spi.h ****             dsy_gpio_pin nss;  /**< & */
  85:/Users/amc/git/libDaisy/src/per/spi.h ****         } pin_config;
  86:/Users/amc/git/libDaisy/src/per/spi.h **** 
  87:/Users/amc/git/libDaisy/src/per/spi.h ****         Config()
 2226              		.loc 10 87 9 view .LVU595
  88:/Users/amc/git/libDaisy/src/per/spi.h ****         {
  89:/Users/amc/git/libDaisy/src/per/spi.h ****             // user must specify periph, mode, direction, nss, and pin_config
  90:/Users/amc/git/libDaisy/src/per/spi.h ****             datasize       = 8;
 2227              		.loc 10 90 13 view .LVU596
  91:/Users/amc/git/libDaisy/src/per/spi.h ****             clock_polarity = ClockPolarity::LOW;
 2228              		.loc 10 91 13 view .LVU597
  92:/Users/amc/git/libDaisy/src/per/spi.h ****             clock_phase    = ClockPhase::ONE_EDGE;
 2229              		.loc 10 92 13 view .LVU598
  93:/Users/amc/git/libDaisy/src/per/spi.h ****             baud_prescaler = BaudPrescaler::PS_8;
 2230              		.loc 10 93 13 view .LVU599
ARM GAS  /var/folders/83/vwtnzcdn1v99b_lf0k0gsjzr0000gn/T//cc93oyUL.s 			page 82


 2231              		.loc 10 93 13 is_stmt 0 view .LVU600
 2232              	.LBE397:
 2233              	.LBB398:
 2234              	.LBI398:
  81:/Users/amc/git/libDaisy/src/dev/oled_ssd130x.h ****         {
 2235              		.loc 9 81 14 is_stmt 1 view .LVU601
  84:/Users/amc/git/libDaisy/src/dev/oled_ssd130x.h ****             spi_config.mode   = SpiHandle::Config::Mode::MASTER;
 2236              		.loc 9 84 13 view .LVU602
  85:/Users/amc/git/libDaisy/src/dev/oled_ssd130x.h ****             spi_config.direction
 2237              		.loc 9 85 13 view .LVU603
  86:/Users/amc/git/libDaisy/src/dev/oled_ssd130x.h ****                 = SpiHandle::Config::Direction::TWO_LINES_TX_ONLY;
 2238              		.loc 9 86 13 view .LVU604
  88:/Users/amc/git/libDaisy/src/dev/oled_ssd130x.h ****             spi_config.clock_polarity = SpiHandle::Config::ClockPolarity::LOW;
 2239              		.loc 9 88 13 view .LVU605
  89:/Users/amc/git/libDaisy/src/dev/oled_ssd130x.h ****             spi_config.clock_phase    = SpiHandle::Config::ClockPhase::ONE_EDGE;
 2240              		.loc 9 89 13 view .LVU606
  90:/Users/amc/git/libDaisy/src/dev/oled_ssd130x.h ****             spi_config.nss            = SpiHandle::Config::NSS::HARD_OUTPUT;
 2241              		.loc 9 90 13 view .LVU607
  91:/Users/amc/git/libDaisy/src/dev/oled_ssd130x.h ****             spi_config.baud_prescaler = SpiHandle::Config::BaudPrescaler::PS_8;
 2242              		.loc 9 91 13 view .LVU608
  92:/Users/amc/git/libDaisy/src/dev/oled_ssd130x.h ****             // SPI pin config
 2243              		.loc 9 92 13 view .LVU609
  94:/Users/amc/git/libDaisy/src/dev/oled_ssd130x.h ****             spi_config.pin_config.miso = {DSY_GPIOX, 0};
 2244              		.loc 9 94 13 view .LVU610
  95:/Users/amc/git/libDaisy/src/dev/oled_ssd130x.h ****             spi_config.pin_config.mosi = {DSY_GPIOB, 5};
 2245              		.loc 9 95 13 view .LVU611
  96:/Users/amc/git/libDaisy/src/dev/oled_ssd130x.h ****             spi_config.pin_config.nss  = {DSY_GPIOG, 10};
 2246              		.loc 9 96 13 view .LVU612
  97:/Users/amc/git/libDaisy/src/dev/oled_ssd130x.h ****             // SSD130x control pin config
 2247              		.loc 9 97 13 view .LVU613
  99:/Users/amc/git/libDaisy/src/dev/oled_ssd130x.h ****             pin_config.reset = {DSY_GPIOB, 15};
 2248              		.loc 9 99 13 view .LVU614
 100:/Users/amc/git/libDaisy/src/dev/oled_ssd130x.h ****         }
 2249              		.loc 9 100 13 view .LVU615
 100:/Users/amc/git/libDaisy/src/dev/oled_ssd130x.h ****         }
 2250              		.loc 9 100 13 is_stmt 0 view .LVU616
 2251              	.LBE398:
 2252              	.LBE396:
 2253              	.LBE395:
 2254              	.LBE394:
 2255              	.LBE393:
  45:../src/Pedal.cpp **** 	config.driver_config.transport_config.pin_config.reset = seed.GetPin(DISPLAY_RESET_PIN);
 2256              		.loc 1 45 2 is_stmt 1 view .LVU617
  45:../src/Pedal.cpp **** 	config.driver_config.transport_config.pin_config.reset = seed.GetPin(DISPLAY_RESET_PIN);
 2257              		.loc 1 45 67 is_stmt 0 view .LVU618
 2258 017e 5846     		mov	r0, fp
 2259 0180 FFF7FEFF 		bl	_ZN5daisy9DaisySeed6GetPinEh
 2260              	.LVL178:
 2261 0184 ADF85400 		strh	r0, [sp, #84]	@ movhi
  46:../src/Pedal.cpp **** 	display.Init(config);
 2262              		.loc 1 46 2 is_stmt 1 view .LVU619
  46:../src/Pedal.cpp **** 	display.Init(config);
 2263              		.loc 1 46 70 is_stmt 0 view .LVU620
 2264 0188 5046     		mov	r0, r10
 2265              	.LBB399:
 2266              	.LBB400:
 2267              	.LBB401:
ARM GAS  /var/folders/83/vwtnzcdn1v99b_lf0k0gsjzr0000gn/T//cc93oyUL.s 			page 83


 2268              	.LBB402:
 2269              	.LBB403:
 2270              	.LBB404:
 108:/Users/amc/git/libDaisy/src/dev/oled_ssd130x.h ****         pin_reset_.mode = DSY_GPIO_MODE_OUTPUT_PP;
 2271              		.loc 9 108 23 view .LVU621
 2272 018a 04F15008 		add	r8, r4, #80
 2273              	.LBE404:
 2274              	.LBE403:
 2275              	.LBE402:
 2276              	.LBE401:
 2277              	.LBE400:
 2278              	.LBE399:
  46:../src/Pedal.cpp **** 	display.Init(config);
 2279              		.loc 1 46 70 view .LVU622
 2280 018e FFF7FEFF 		bl	_ZN5daisy9DaisySeed6GetPinEh
 2281              	.LVL179:
 2282 0192 A44A     		ldr	r2, .L71+8
 2283 0194 A44B     		ldr	r3, .L71+12
 2284 0196 0DF1580C 		add	ip, sp, #88
 2285 019a 0F96     		str	r6, [sp, #60]
 2286 019c 0DF1840E 		add	lr, sp, #132
 2287 01a0 ADF85600 		strh	r0, [sp, #86]	@ movhi
  47:../src/Pedal.cpp **** }
 2288              		.loc 1 47 2 is_stmt 1 view .LVU623
 2289              	.LVL180:
  47:../src/Pedal.cpp **** }
 2290              		.loc 1 47 2 is_stmt 0 view .LVU624
 2291 01a4 E246     		mov	r10, ip
 2292              	.LBB484:
 2293              	.LBB482:
 2294              	.LBB480:
 2295              	.LBB478:
 2296              	.LBB407:
 2297              	.LBB405:
 108:/Users/amc/git/libDaisy/src/dev/oled_ssd130x.h ****         pin_reset_.mode = DSY_GPIO_MODE_OUTPUT_PP;
 2298              		.loc 9 108 23 view .LVU625
 2299 01a6 04F14807 		add	r7, r4, #72
 2300 01aa CDE91399 		strd	r9, r9, [sp, #76]
 2301 01ae CDE90B23 		strd	r2, r3, [sp, #44]
 2302 01b2 0DF12C09 		add	r9, sp, #44
 2303 01b6 0823     		movs	r3, #8
 2304 01b8 CDE91155 		strd	r5, r5, [sp, #68]
 2305 01bc 1093     		str	r3, [sp, #64]
 2306 01be CDE90D55 		strd	r5, r5, [sp, #52]
 2307 01c2 B9E80F00 		ldmia	r9!, {r0, r1, r2, r3}
 2308 01c6 ACE80F00 		stmia	ip!, {r0, r1, r2, r3}
 2309 01ca B9E80F00 		ldmia	r9!, {r0, r1, r2, r3}
 2310 01ce ACE80F00 		stmia	ip!, {r0, r1, r2, r3}
 2311 01d2 99E80700 		ldm	r9, {r0, r1, r2}
 2312 01d6 8CE80700 		stm	ip, {r0, r1, r2}
 2313              	.LVL181:
 108:/Users/amc/git/libDaisy/src/dev/oled_ssd130x.h ****         pin_reset_.mode = DSY_GPIO_MODE_OUTPUT_PP;
 2314              		.loc 9 108 23 view .LVU626
 2315              	.LBE405:
 2316              	.LBE407:
 2317              	.LBE478:
 2318              	.LBE480:
ARM GAS  /var/folders/83/vwtnzcdn1v99b_lf0k0gsjzr0000gn/T//cc93oyUL.s 			page 84


 2319              	.LBE482:
 2320              	.LBI399:
  21:/Users/amc/git/libDaisy/src/hid/disp/oled_display.h ****     {
  22:/Users/amc/git/libDaisy/src/hid/disp/oled_display.h ****         typename DisplayDriver::Config driver_config;
  23:/Users/amc/git/libDaisy/src/hid/disp/oled_display.h ****     };
  24:/Users/amc/git/libDaisy/src/hid/disp/oled_display.h **** 
  25:/Users/amc/git/libDaisy/src/hid/disp/oled_display.h ****     void Init(Config config) { driver_.Init(config.driver_config); }
 2321              		.loc 8 25 10 is_stmt 1 view .LVU627
 2322              		.loc 8 25 10 is_stmt 0 view .LVU628
 2323 01da BAE80F00 		ldmia	r10!, {r0, r1, r2, r3}
 2324 01de AEE80F00 		stmia	lr!, {r0, r1, r2, r3}
 2325 01e2 BAE80F00 		ldmia	r10!, {r0, r1, r2, r3}
 2326 01e6 AEE80F00 		stmia	lr!, {r0, r1, r2, r3}
 2327 01ea 9CE80700 		ldm	ip, {r0, r1, r2}
 2328 01ee 8EE80700 		stm	lr, {r0, r1, r2}
 2329              	.LBB483:
 2330              	.LBB481:
 2331              	.LBI401:
 249:/Users/amc/git/libDaisy/src/dev/oled_ssd130x.h ****     {
 250:/Users/amc/git/libDaisy/src/dev/oled_ssd130x.h ****         typename Transport::Config transport_config;
 251:/Users/amc/git/libDaisy/src/dev/oled_ssd130x.h ****     };
 252:/Users/amc/git/libDaisy/src/dev/oled_ssd130x.h **** 
 253:/Users/amc/git/libDaisy/src/dev/oled_ssd130x.h ****     void Init(Config config)
 2332              		.loc 9 253 10 is_stmt 1 view .LVU629
 2333              	.LVL182:
 2334              	.LBB479:
 2335              	.LBB408:
 2336              	.LBI403:
 103:/Users/amc/git/libDaisy/src/dev/oled_ssd130x.h ****     {
 2337              		.loc 9 103 10 view .LVU630
 2338              	.LBB406:
 106:/Users/amc/git/libDaisy/src/dev/oled_ssd130x.h ****         pin_dc_.pin  = config.pin_config.dc;
 2339              		.loc 9 106 9 view .LVU631
 107:/Users/amc/git/libDaisy/src/dev/oled_ssd130x.h ****         dsy_gpio_init(&pin_dc_);
 2340              		.loc 9 107 9 view .LVU632
 107:/Users/amc/git/libDaisy/src/dev/oled_ssd130x.h ****         dsy_gpio_init(&pin_dc_);
 2341              		.loc 9 107 22 is_stmt 0 view .LVU633
 2342 01f2 BDF8AC30 		ldrh	r3, [sp, #172]
 108:/Users/amc/git/libDaisy/src/dev/oled_ssd130x.h ****         pin_reset_.mode = DSY_GPIO_MODE_OUTPUT_PP;
 2343              		.loc 9 108 22 view .LVU634
 2344 01f6 4046     		mov	r0, r8
 106:/Users/amc/git/libDaisy/src/dev/oled_ssd130x.h ****         pin_dc_.pin  = config.pin_config.dc;
 2345              		.loc 9 106 22 view .LVU635
 2346 01f8 84F85260 		strb	r6, [r4, #82]
 107:/Users/amc/git/libDaisy/src/dev/oled_ssd130x.h ****         dsy_gpio_init(&pin_dc_);
 2347              		.loc 9 107 22 view .LVU636
 2348 01fc A4F85030 		strh	r3, [r4, #80]	@ movhi
 108:/Users/amc/git/libDaisy/src/dev/oled_ssd130x.h ****         pin_reset_.mode = DSY_GPIO_MODE_OUTPUT_PP;
 2349              		.loc 9 108 9 is_stmt 1 view .LVU637
 108:/Users/amc/git/libDaisy/src/dev/oled_ssd130x.h ****         pin_reset_.mode = DSY_GPIO_MODE_OUTPUT_PP;
 2350              		.loc 9 108 22 is_stmt 0 view .LVU638
 2351 0200 FFF7FEFF 		bl	dsy_gpio_init
 2352              	.LVL183:
 109:/Users/amc/git/libDaisy/src/dev/oled_ssd130x.h ****         pin_reset_.pin  = config.pin_config.reset;
 2353              		.loc 9 109 9 is_stmt 1 view .LVU639
 110:/Users/amc/git/libDaisy/src/dev/oled_ssd130x.h ****         dsy_gpio_init(&pin_reset_);
 2354              		.loc 9 110 25 is_stmt 0 view .LVU640
ARM GAS  /var/folders/83/vwtnzcdn1v99b_lf0k0gsjzr0000gn/T//cc93oyUL.s 			page 85


 2355 0204 BDF8AE30 		ldrh	r3, [sp, #174]
 109:/Users/amc/git/libDaisy/src/dev/oled_ssd130x.h ****         pin_reset_.pin  = config.pin_config.reset;
 2356              		.loc 9 109 25 view .LVU641
 2357 0208 84F84E60 		strb	r6, [r4, #78]
 110:/Users/amc/git/libDaisy/src/dev/oled_ssd130x.h ****         dsy_gpio_init(&pin_reset_);
 2358              		.loc 9 110 9 is_stmt 1 view .LVU642
 110:/Users/amc/git/libDaisy/src/dev/oled_ssd130x.h ****         dsy_gpio_init(&pin_reset_);
 2359              		.loc 9 110 25 is_stmt 0 view .LVU643
 2360 020c 24F84C3F 		strh	r3, [r4, #76]!	@ movhi
 2361              	.LVL184:
 111:/Users/amc/git/libDaisy/src/dev/oled_ssd130x.h **** 
 2362              		.loc 9 111 9 is_stmt 1 view .LVU644
 111:/Users/amc/git/libDaisy/src/dev/oled_ssd130x.h **** 
 2363              		.loc 9 111 22 is_stmt 0 view .LVU645
 2364 0210 2046     		mov	r0, r4
 2365 0212 FFF7FEFF 		bl	dsy_gpio_init
 2366              	.LVL185:
 114:/Users/amc/git/libDaisy/src/dev/oled_ssd130x.h **** 
 2367              		.loc 9 114 9 is_stmt 1 view .LVU646
 114:/Users/amc/git/libDaisy/src/dev/oled_ssd130x.h **** 
 2368              		.loc 9 114 18 is_stmt 0 view .LVU647
 2369 0216 21A9     		add	r1, sp, #132
 2370              	.LVL186:
 114:/Users/amc/git/libDaisy/src/dev/oled_ssd130x.h **** 
 2371              		.loc 9 114 18 view .LVU648
 2372 0218 3846     		mov	r0, r7
 2373 021a FFF7FEFF 		bl	_ZN5daisy9SpiHandle4InitERKNS0_6ConfigE
 2374              	.LVL187:
 117:/Users/amc/git/libDaisy/src/dev/oled_ssd130x.h ****         System::Delay(10);
 2375              		.loc 9 117 9 is_stmt 1 view .LVU649
 117:/Users/amc/git/libDaisy/src/dev/oled_ssd130x.h ****         System::Delay(10);
 2376              		.loc 9 117 23 is_stmt 0 view .LVU650
 2377 021e 2946     		mov	r1, r5
 2378 0220 2046     		mov	r0, r4
 2379 0222 FFF7FEFF 		bl	dsy_gpio_write
 2380              	.LVL188:
 118:/Users/amc/git/libDaisy/src/dev/oled_ssd130x.h ****         dsy_gpio_write(&pin_reset_, 1);
 2381              		.loc 9 118 9 is_stmt 1 view .LVU651
 118:/Users/amc/git/libDaisy/src/dev/oled_ssd130x.h ****         dsy_gpio_write(&pin_reset_, 1);
 2382              		.loc 9 118 22 is_stmt 0 view .LVU652
 2383 0226 0A20     		movs	r0, #10
 2384 0228 FFF7FEFF 		bl	_ZN5daisy6System5DelayEm
 2385              	.LVL189:
 119:/Users/amc/git/libDaisy/src/dev/oled_ssd130x.h ****         System::Delay(10);
 2386              		.loc 9 119 9 is_stmt 1 view .LVU653
 119:/Users/amc/git/libDaisy/src/dev/oled_ssd130x.h ****         System::Delay(10);
 2387              		.loc 9 119 23 is_stmt 0 view .LVU654
 2388 022c 3146     		mov	r1, r6
 2389 022e 2046     		mov	r0, r4
 2390 0230 FFF7FEFF 		bl	dsy_gpio_write
 2391              	.LVL190:
 120:/Users/amc/git/libDaisy/src/dev/oled_ssd130x.h ****     };
 2392              		.loc 9 120 9 is_stmt 1 view .LVU655
 120:/Users/amc/git/libDaisy/src/dev/oled_ssd130x.h ****     };
 2393              		.loc 9 120 22 is_stmt 0 view .LVU656
 2394 0234 0A20     		movs	r0, #10
 2395 0236 FFF7FEFF 		bl	_ZN5daisy6System5DelayEm
ARM GAS  /var/folders/83/vwtnzcdn1v99b_lf0k0gsjzr0000gn/T//cc93oyUL.s 			page 86


 2396              	.LVL191:
 120:/Users/amc/git/libDaisy/src/dev/oled_ssd130x.h ****     };
 2397              		.loc 9 120 22 view .LVU657
 2398 023a AE23     		movs	r3, #174
 2399              	.LBE406:
 2400              	.LBE408:
 2401              	.LBB409:
 2402              	.LBB410:
 124:/Users/amc/git/libDaisy/src/dev/oled_ssd130x.h ****         spi_.BlockingTransmit(&cmd, 1);
 2403              		.loc 9 124 23 view .LVU658
 2404 023c 2946     		mov	r1, r5
 2405 023e 4046     		mov	r0, r8
 2406 0240 8DF80F30 		strb	r3, [sp, #15]
 2407              	.LVL192:
 124:/Users/amc/git/libDaisy/src/dev/oled_ssd130x.h ****         spi_.BlockingTransmit(&cmd, 1);
 2408              		.loc 9 124 23 view .LVU659
 2409              	.LBE410:
 2410              	.LBI409:
 122:/Users/amc/git/libDaisy/src/dev/oled_ssd130x.h ****     {
 2411              		.loc 9 122 10 is_stmt 1 view .LVU660
 2412              	.LBB411:
 124:/Users/amc/git/libDaisy/src/dev/oled_ssd130x.h ****         spi_.BlockingTransmit(&cmd, 1);
 2413              		.loc 9 124 9 view .LVU661
 124:/Users/amc/git/libDaisy/src/dev/oled_ssd130x.h ****         spi_.BlockingTransmit(&cmd, 1);
 2414              		.loc 9 124 23 is_stmt 0 view .LVU662
 2415 0244 FFF7FEFF 		bl	dsy_gpio_write
 2416              	.LVL193:
 125:/Users/amc/git/libDaisy/src/dev/oled_ssd130x.h ****     };
 2417              		.loc 9 125 9 is_stmt 1 view .LVU663
 125:/Users/amc/git/libDaisy/src/dev/oled_ssd130x.h ****     };
 2418              		.loc 9 125 30 is_stmt 0 view .LVU664
 2419 0248 3246     		mov	r2, r6
 2420 024a 0DF10F01 		add	r1, sp, #15
 2421 024e 6423     		movs	r3, #100
 2422 0250 3846     		mov	r0, r7
 2423 0252 FFF7FEFF 		bl	_ZN5daisy9SpiHandle16BlockingTransmitEPhjm
 2424              	.LVL194:
 125:/Users/amc/git/libDaisy/src/dev/oled_ssd130x.h ****     };
 2425              		.loc 9 125 30 view .LVU665
 2426 0256 D523     		movs	r3, #213
 2427              	.LBE411:
 2428              	.LBE409:
 2429              	.LBB412:
 2430              	.LBB413:
 124:/Users/amc/git/libDaisy/src/dev/oled_ssd130x.h ****         spi_.BlockingTransmit(&cmd, 1);
 2431              		.loc 9 124 23 view .LVU666
 2432 0258 2946     		mov	r1, r5
 2433 025a 4046     		mov	r0, r8
 2434 025c 8DF80F30 		strb	r3, [sp, #15]
 2435              	.LVL195:
 124:/Users/amc/git/libDaisy/src/dev/oled_ssd130x.h ****         spi_.BlockingTransmit(&cmd, 1);
 2436              		.loc 9 124 23 view .LVU667
 2437              	.LBE413:
 2438              	.LBI412:
 122:/Users/amc/git/libDaisy/src/dev/oled_ssd130x.h ****     {
 2439              		.loc 9 122 10 is_stmt 1 view .LVU668
 2440              	.LBB414:
ARM GAS  /var/folders/83/vwtnzcdn1v99b_lf0k0gsjzr0000gn/T//cc93oyUL.s 			page 87


 124:/Users/amc/git/libDaisy/src/dev/oled_ssd130x.h ****         spi_.BlockingTransmit(&cmd, 1);
 2441              		.loc 9 124 9 view .LVU669
 124:/Users/amc/git/libDaisy/src/dev/oled_ssd130x.h ****         spi_.BlockingTransmit(&cmd, 1);
 2442              		.loc 9 124 23 is_stmt 0 view .LVU670
 2443 0260 FFF7FEFF 		bl	dsy_gpio_write
 2444              	.LVL196:
 125:/Users/amc/git/libDaisy/src/dev/oled_ssd130x.h ****     };
 2445              		.loc 9 125 9 is_stmt 1 view .LVU671
 125:/Users/amc/git/libDaisy/src/dev/oled_ssd130x.h ****     };
 2446              		.loc 9 125 30 is_stmt 0 view .LVU672
 2447 0264 3246     		mov	r2, r6
 2448 0266 0DF10F01 		add	r1, sp, #15
 2449 026a 6423     		movs	r3, #100
 2450 026c 3846     		mov	r0, r7
 2451 026e FFF7FEFF 		bl	_ZN5daisy9SpiHandle16BlockingTransmitEPhjm
 2452              	.LVL197:
 125:/Users/amc/git/libDaisy/src/dev/oled_ssd130x.h ****     };
 2453              		.loc 9 125 30 view .LVU673
 2454 0272 8023     		movs	r3, #128
 2455              	.LBE414:
 2456              	.LBE412:
 2457              	.LBB415:
 2458              	.LBB416:
 124:/Users/amc/git/libDaisy/src/dev/oled_ssd130x.h ****         spi_.BlockingTransmit(&cmd, 1);
 2459              		.loc 9 124 23 view .LVU674
 2460 0274 2946     		mov	r1, r5
 2461 0276 4046     		mov	r0, r8
 2462 0278 8DF80F30 		strb	r3, [sp, #15]
 2463              	.LVL198:
 124:/Users/amc/git/libDaisy/src/dev/oled_ssd130x.h ****         spi_.BlockingTransmit(&cmd, 1);
 2464              		.loc 9 124 23 view .LVU675
 2465              	.LBE416:
 2466              	.LBI415:
 122:/Users/amc/git/libDaisy/src/dev/oled_ssd130x.h ****     {
 2467              		.loc 9 122 10 is_stmt 1 view .LVU676
 2468              	.LBB417:
 124:/Users/amc/git/libDaisy/src/dev/oled_ssd130x.h ****         spi_.BlockingTransmit(&cmd, 1);
 2469              		.loc 9 124 9 view .LVU677
 124:/Users/amc/git/libDaisy/src/dev/oled_ssd130x.h ****         spi_.BlockingTransmit(&cmd, 1);
 2470              		.loc 9 124 23 is_stmt 0 view .LVU678
 2471 027c FFF7FEFF 		bl	dsy_gpio_write
 2472              	.LVL199:
 125:/Users/amc/git/libDaisy/src/dev/oled_ssd130x.h ****     };
 2473              		.loc 9 125 9 is_stmt 1 view .LVU679
 125:/Users/amc/git/libDaisy/src/dev/oled_ssd130x.h ****     };
 2474              		.loc 9 125 30 is_stmt 0 view .LVU680
 2475 0280 3246     		mov	r2, r6
 2476 0282 0DF10F01 		add	r1, sp, #15
 2477 0286 6423     		movs	r3, #100
 2478 0288 3846     		mov	r0, r7
 2479 028a FFF7FEFF 		bl	_ZN5daisy9SpiHandle16BlockingTransmitEPhjm
 2480              	.LVL200:
 125:/Users/amc/git/libDaisy/src/dev/oled_ssd130x.h ****     };
 2481              		.loc 9 125 30 view .LVU681
 2482 028e A823     		movs	r3, #168
 2483              	.LBE417:
 2484              	.LBE415:
ARM GAS  /var/folders/83/vwtnzcdn1v99b_lf0k0gsjzr0000gn/T//cc93oyUL.s 			page 88


 2485              	.LBB418:
 2486              	.LBB419:
 124:/Users/amc/git/libDaisy/src/dev/oled_ssd130x.h ****         spi_.BlockingTransmit(&cmd, 1);
 2487              		.loc 9 124 23 view .LVU682
 2488 0290 2946     		mov	r1, r5
 2489 0292 4046     		mov	r0, r8
 2490 0294 8DF80F30 		strb	r3, [sp, #15]
 2491              	.LVL201:
 124:/Users/amc/git/libDaisy/src/dev/oled_ssd130x.h ****         spi_.BlockingTransmit(&cmd, 1);
 2492              		.loc 9 124 23 view .LVU683
 2493              	.LBE419:
 2494              	.LBI418:
 122:/Users/amc/git/libDaisy/src/dev/oled_ssd130x.h ****     {
 2495              		.loc 9 122 10 is_stmt 1 view .LVU684
 2496              	.LBB420:
 124:/Users/amc/git/libDaisy/src/dev/oled_ssd130x.h ****         spi_.BlockingTransmit(&cmd, 1);
 2497              		.loc 9 124 9 view .LVU685
 124:/Users/amc/git/libDaisy/src/dev/oled_ssd130x.h ****         spi_.BlockingTransmit(&cmd, 1);
 2498              		.loc 9 124 23 is_stmt 0 view .LVU686
 2499 0298 FFF7FEFF 		bl	dsy_gpio_write
 2500              	.LVL202:
 125:/Users/amc/git/libDaisy/src/dev/oled_ssd130x.h ****     };
 2501              		.loc 9 125 9 is_stmt 1 view .LVU687
 125:/Users/amc/git/libDaisy/src/dev/oled_ssd130x.h ****     };
 2502              		.loc 9 125 30 is_stmt 0 view .LVU688
 2503 029c 3246     		mov	r2, r6
 2504 029e 0DF10F01 		add	r1, sp, #15
 2505 02a2 6423     		movs	r3, #100
 2506 02a4 3846     		mov	r0, r7
 2507 02a6 FFF7FEFF 		bl	_ZN5daisy9SpiHandle16BlockingTransmitEPhjm
 2508              	.LVL203:
 125:/Users/amc/git/libDaisy/src/dev/oled_ssd130x.h ****     };
 2509              		.loc 9 125 30 view .LVU689
 2510 02aa 3F23     		movs	r3, #63
 2511              	.LBE420:
 2512              	.LBE418:
 2513              	.LBB421:
 2514              	.LBB422:
 124:/Users/amc/git/libDaisy/src/dev/oled_ssd130x.h ****         spi_.BlockingTransmit(&cmd, 1);
 2515              		.loc 9 124 23 view .LVU690
 2516 02ac 2946     		mov	r1, r5
 2517 02ae 4046     		mov	r0, r8
 2518 02b0 8DF80F30 		strb	r3, [sp, #15]
 2519              	.LVL204:
 124:/Users/amc/git/libDaisy/src/dev/oled_ssd130x.h ****         spi_.BlockingTransmit(&cmd, 1);
 2520              		.loc 9 124 23 view .LVU691
 2521              	.LBE422:
 2522              	.LBI421:
 122:/Users/amc/git/libDaisy/src/dev/oled_ssd130x.h ****     {
 2523              		.loc 9 122 10 is_stmt 1 view .LVU692
 2524              	.LBB423:
 124:/Users/amc/git/libDaisy/src/dev/oled_ssd130x.h ****         spi_.BlockingTransmit(&cmd, 1);
 2525              		.loc 9 124 9 view .LVU693
 124:/Users/amc/git/libDaisy/src/dev/oled_ssd130x.h ****         spi_.BlockingTransmit(&cmd, 1);
 2526              		.loc 9 124 23 is_stmt 0 view .LVU694
 2527 02b4 FFF7FEFF 		bl	dsy_gpio_write
 2528              	.LVL205:
ARM GAS  /var/folders/83/vwtnzcdn1v99b_lf0k0gsjzr0000gn/T//cc93oyUL.s 			page 89


 125:/Users/amc/git/libDaisy/src/dev/oled_ssd130x.h ****     };
 2529              		.loc 9 125 9 is_stmt 1 view .LVU695
 125:/Users/amc/git/libDaisy/src/dev/oled_ssd130x.h ****     };
 2530              		.loc 9 125 30 is_stmt 0 view .LVU696
 2531 02b8 3246     		mov	r2, r6
 2532 02ba 0DF10F01 		add	r1, sp, #15
 2533 02be 6423     		movs	r3, #100
 2534 02c0 3846     		mov	r0, r7
 2535 02c2 FFF7FEFF 		bl	_ZN5daisy9SpiHandle16BlockingTransmitEPhjm
 2536              	.LVL206:
 125:/Users/amc/git/libDaisy/src/dev/oled_ssd130x.h ****     };
 2537              		.loc 9 125 30 view .LVU697
 2538 02c6 DA23     		movs	r3, #218
 2539              	.LBE423:
 2540              	.LBE421:
 2541              	.LBB424:
 2542              	.LBB425:
 124:/Users/amc/git/libDaisy/src/dev/oled_ssd130x.h ****         spi_.BlockingTransmit(&cmd, 1);
 2543              		.loc 9 124 23 view .LVU698
 2544 02c8 2946     		mov	r1, r5
 2545 02ca 4046     		mov	r0, r8
 2546 02cc 8DF80F30 		strb	r3, [sp, #15]
 2547              	.LVL207:
 124:/Users/amc/git/libDaisy/src/dev/oled_ssd130x.h ****         spi_.BlockingTransmit(&cmd, 1);
 2548              		.loc 9 124 23 view .LVU699
 2549              	.LBE425:
 2550              	.LBI424:
 122:/Users/amc/git/libDaisy/src/dev/oled_ssd130x.h ****     {
 2551              		.loc 9 122 10 is_stmt 1 view .LVU700
 2552              	.LBB426:
 124:/Users/amc/git/libDaisy/src/dev/oled_ssd130x.h ****         spi_.BlockingTransmit(&cmd, 1);
 2553              		.loc 9 124 9 view .LVU701
 124:/Users/amc/git/libDaisy/src/dev/oled_ssd130x.h ****         spi_.BlockingTransmit(&cmd, 1);
 2554              		.loc 9 124 23 is_stmt 0 view .LVU702
 2555 02d0 FFF7FEFF 		bl	dsy_gpio_write
 2556              	.LVL208:
 125:/Users/amc/git/libDaisy/src/dev/oled_ssd130x.h ****     };
 2557              		.loc 9 125 9 is_stmt 1 view .LVU703
 125:/Users/amc/git/libDaisy/src/dev/oled_ssd130x.h ****     };
 2558              		.loc 9 125 30 is_stmt 0 view .LVU704
 2559 02d4 3246     		mov	r2, r6
 2560 02d6 0DF10F01 		add	r1, sp, #15
 2561 02da 6423     		movs	r3, #100
 2562 02dc 3846     		mov	r0, r7
 2563 02de FFF7FEFF 		bl	_ZN5daisy9SpiHandle16BlockingTransmitEPhjm
 2564              	.LVL209:
 125:/Users/amc/git/libDaisy/src/dev/oled_ssd130x.h ****     };
 2565              		.loc 9 125 30 view .LVU705
 2566 02e2 1223     		movs	r3, #18
 2567              	.LBE426:
 2568              	.LBE424:
 2569              	.LBB427:
 2570              	.LBB428:
 124:/Users/amc/git/libDaisy/src/dev/oled_ssd130x.h ****         spi_.BlockingTransmit(&cmd, 1);
 2571              		.loc 9 124 23 view .LVU706
 2572 02e4 2946     		mov	r1, r5
 2573 02e6 4046     		mov	r0, r8
ARM GAS  /var/folders/83/vwtnzcdn1v99b_lf0k0gsjzr0000gn/T//cc93oyUL.s 			page 90


 2574 02e8 8DF80F30 		strb	r3, [sp, #15]
 2575              	.LVL210:
 124:/Users/amc/git/libDaisy/src/dev/oled_ssd130x.h ****         spi_.BlockingTransmit(&cmd, 1);
 2576              		.loc 9 124 23 view .LVU707
 2577              	.LBE428:
 2578              	.LBI427:
 122:/Users/amc/git/libDaisy/src/dev/oled_ssd130x.h ****     {
 2579              		.loc 9 122 10 is_stmt 1 view .LVU708
 2580              	.LBB429:
 124:/Users/amc/git/libDaisy/src/dev/oled_ssd130x.h ****         spi_.BlockingTransmit(&cmd, 1);
 2581              		.loc 9 124 9 view .LVU709
 124:/Users/amc/git/libDaisy/src/dev/oled_ssd130x.h ****         spi_.BlockingTransmit(&cmd, 1);
 2582              		.loc 9 124 23 is_stmt 0 view .LVU710
 2583 02ec FFF7FEFF 		bl	dsy_gpio_write
 2584              	.LVL211:
 125:/Users/amc/git/libDaisy/src/dev/oled_ssd130x.h ****     };
 2585              		.loc 9 125 9 is_stmt 1 view .LVU711
 125:/Users/amc/git/libDaisy/src/dev/oled_ssd130x.h ****     };
 2586              		.loc 9 125 30 is_stmt 0 view .LVU712
 2587 02f0 3246     		mov	r2, r6
 2588 02f2 0DF10F01 		add	r1, sp, #15
 2589 02f6 6423     		movs	r3, #100
 2590 02f8 3846     		mov	r0, r7
 2591 02fa FFF7FEFF 		bl	_ZN5daisy9SpiHandle16BlockingTransmitEPhjm
 2592              	.LVL212:
 125:/Users/amc/git/libDaisy/src/dev/oled_ssd130x.h ****     };
 2593              		.loc 9 125 30 view .LVU713
 2594 02fe D323     		movs	r3, #211
 2595              	.LBE429:
 2596              	.LBE427:
 2597              	.LBB430:
 2598              	.LBB431:
 124:/Users/amc/git/libDaisy/src/dev/oled_ssd130x.h ****         spi_.BlockingTransmit(&cmd, 1);
 2599              		.loc 9 124 23 view .LVU714
 2600 0300 2946     		mov	r1, r5
 2601 0302 4046     		mov	r0, r8
 2602 0304 8DF80F30 		strb	r3, [sp, #15]
 2603              	.LVL213:
 124:/Users/amc/git/libDaisy/src/dev/oled_ssd130x.h ****         spi_.BlockingTransmit(&cmd, 1);
 2604              		.loc 9 124 23 view .LVU715
 2605              	.LBE431:
 2606              	.LBI430:
 122:/Users/amc/git/libDaisy/src/dev/oled_ssd130x.h ****     {
 2607              		.loc 9 122 10 is_stmt 1 view .LVU716
 2608              	.LBB432:
 124:/Users/amc/git/libDaisy/src/dev/oled_ssd130x.h ****         spi_.BlockingTransmit(&cmd, 1);
 2609              		.loc 9 124 9 view .LVU717
 124:/Users/amc/git/libDaisy/src/dev/oled_ssd130x.h ****         spi_.BlockingTransmit(&cmd, 1);
 2610              		.loc 9 124 23 is_stmt 0 view .LVU718
 2611 0308 FFF7FEFF 		bl	dsy_gpio_write
 2612              	.LVL214:
 125:/Users/amc/git/libDaisy/src/dev/oled_ssd130x.h ****     };
 2613              		.loc 9 125 9 is_stmt 1 view .LVU719
 125:/Users/amc/git/libDaisy/src/dev/oled_ssd130x.h ****     };
 2614              		.loc 9 125 30 is_stmt 0 view .LVU720
 2615 030c 3246     		mov	r2, r6
 2616 030e 6423     		movs	r3, #100
ARM GAS  /var/folders/83/vwtnzcdn1v99b_lf0k0gsjzr0000gn/T//cc93oyUL.s 			page 91


 2617 0310 0DF10F01 		add	r1, sp, #15
 2618 0314 3846     		mov	r0, r7
 2619 0316 FFF7FEFF 		bl	_ZN5daisy9SpiHandle16BlockingTransmitEPhjm
 2620              	.LVL215:
 125:/Users/amc/git/libDaisy/src/dev/oled_ssd130x.h ****     };
 2621              		.loc 9 125 30 view .LVU721
 2622              	.LBE432:
 2623              	.LBE430:
 2624              	.LBB433:
 2625              	.LBB434:
 124:/Users/amc/git/libDaisy/src/dev/oled_ssd130x.h ****         spi_.BlockingTransmit(&cmd, 1);
 2626              		.loc 9 124 23 view .LVU722
 2627 031a 2946     		mov	r1, r5
 2628 031c 4046     		mov	r0, r8
 2629 031e 8DF80F50 		strb	r5, [sp, #15]
 2630              	.LVL216:
 124:/Users/amc/git/libDaisy/src/dev/oled_ssd130x.h ****         spi_.BlockingTransmit(&cmd, 1);
 2631              		.loc 9 124 23 view .LVU723
 2632              	.LBE434:
 2633              	.LBI433:
 122:/Users/amc/git/libDaisy/src/dev/oled_ssd130x.h ****     {
 2634              		.loc 9 122 10 is_stmt 1 view .LVU724
 2635              	.LBB435:
 124:/Users/amc/git/libDaisy/src/dev/oled_ssd130x.h ****         spi_.BlockingTransmit(&cmd, 1);
 2636              		.loc 9 124 9 view .LVU725
 124:/Users/amc/git/libDaisy/src/dev/oled_ssd130x.h ****         spi_.BlockingTransmit(&cmd, 1);
 2637              		.loc 9 124 23 is_stmt 0 view .LVU726
 2638 0322 FFF7FEFF 		bl	dsy_gpio_write
 2639              	.LVL217:
 125:/Users/amc/git/libDaisy/src/dev/oled_ssd130x.h ****     };
 2640              		.loc 9 125 9 is_stmt 1 view .LVU727
 125:/Users/amc/git/libDaisy/src/dev/oled_ssd130x.h ****     };
 2641              		.loc 9 125 30 is_stmt 0 view .LVU728
 2642 0326 3246     		mov	r2, r6
 2643 0328 0DF10F01 		add	r1, sp, #15
 2644 032c 6423     		movs	r3, #100
 2645 032e 3846     		mov	r0, r7
 2646 0330 FFF7FEFF 		bl	_ZN5daisy9SpiHandle16BlockingTransmitEPhjm
 2647              	.LVL218:
 125:/Users/amc/git/libDaisy/src/dev/oled_ssd130x.h ****     };
 2648              		.loc 9 125 30 view .LVU729
 2649 0334 4023     		movs	r3, #64
 2650              	.LBE435:
 2651              	.LBE433:
 2652              	.LBB436:
 2653              	.LBB437:
 124:/Users/amc/git/libDaisy/src/dev/oled_ssd130x.h ****         spi_.BlockingTransmit(&cmd, 1);
 2654              		.loc 9 124 23 view .LVU730
 2655 0336 2946     		mov	r1, r5
 2656 0338 4046     		mov	r0, r8
 2657 033a 8DF80F30 		strb	r3, [sp, #15]
 2658              	.LVL219:
 124:/Users/amc/git/libDaisy/src/dev/oled_ssd130x.h ****         spi_.BlockingTransmit(&cmd, 1);
 2659              		.loc 9 124 23 view .LVU731
 2660              	.LBE437:
 2661              	.LBI436:
 122:/Users/amc/git/libDaisy/src/dev/oled_ssd130x.h ****     {
ARM GAS  /var/folders/83/vwtnzcdn1v99b_lf0k0gsjzr0000gn/T//cc93oyUL.s 			page 92


 2662              		.loc 9 122 10 is_stmt 1 view .LVU732
 2663              	.LBB438:
 124:/Users/amc/git/libDaisy/src/dev/oled_ssd130x.h ****         spi_.BlockingTransmit(&cmd, 1);
 2664              		.loc 9 124 9 view .LVU733
 124:/Users/amc/git/libDaisy/src/dev/oled_ssd130x.h ****         spi_.BlockingTransmit(&cmd, 1);
 2665              		.loc 9 124 23 is_stmt 0 view .LVU734
 2666 033e FFF7FEFF 		bl	dsy_gpio_write
 2667              	.LVL220:
 125:/Users/amc/git/libDaisy/src/dev/oled_ssd130x.h ****     };
 2668              		.loc 9 125 9 is_stmt 1 view .LVU735
 125:/Users/amc/git/libDaisy/src/dev/oled_ssd130x.h ****     };
 2669              		.loc 9 125 30 is_stmt 0 view .LVU736
 2670 0342 3246     		mov	r2, r6
 2671 0344 0DF10F01 		add	r1, sp, #15
 2672 0348 6423     		movs	r3, #100
 2673 034a 3846     		mov	r0, r7
 2674 034c FFF7FEFF 		bl	_ZN5daisy9SpiHandle16BlockingTransmitEPhjm
 2675              	.LVL221:
 125:/Users/amc/git/libDaisy/src/dev/oled_ssd130x.h ****     };
 2676              		.loc 9 125 30 view .LVU737
 2677 0350 A623     		movs	r3, #166
 2678              	.LBE438:
 2679              	.LBE436:
 2680              	.LBB439:
 2681              	.LBB440:
 124:/Users/amc/git/libDaisy/src/dev/oled_ssd130x.h ****         spi_.BlockingTransmit(&cmd, 1);
 2682              		.loc 9 124 23 view .LVU738
 2683 0352 2946     		mov	r1, r5
 2684 0354 4046     		mov	r0, r8
 2685 0356 8DF80F30 		strb	r3, [sp, #15]
 2686              	.LVL222:
 124:/Users/amc/git/libDaisy/src/dev/oled_ssd130x.h ****         spi_.BlockingTransmit(&cmd, 1);
 2687              		.loc 9 124 23 view .LVU739
 2688              	.LBE440:
 2689              	.LBI439:
 122:/Users/amc/git/libDaisy/src/dev/oled_ssd130x.h ****     {
 2690              		.loc 9 122 10 is_stmt 1 view .LVU740
 2691              	.LBB441:
 124:/Users/amc/git/libDaisy/src/dev/oled_ssd130x.h ****         spi_.BlockingTransmit(&cmd, 1);
 2692              		.loc 9 124 9 view .LVU741
 124:/Users/amc/git/libDaisy/src/dev/oled_ssd130x.h ****         spi_.BlockingTransmit(&cmd, 1);
 2693              		.loc 9 124 23 is_stmt 0 view .LVU742
 2694 035a FFF7FEFF 		bl	dsy_gpio_write
 2695              	.LVL223:
 125:/Users/amc/git/libDaisy/src/dev/oled_ssd130x.h ****     };
 2696              		.loc 9 125 9 is_stmt 1 view .LVU743
 125:/Users/amc/git/libDaisy/src/dev/oled_ssd130x.h ****     };
 2697              		.loc 9 125 30 is_stmt 0 view .LVU744
 2698 035e 3246     		mov	r2, r6
 2699 0360 0DF10F01 		add	r1, sp, #15
 2700 0364 6423     		movs	r3, #100
 2701 0366 3846     		mov	r0, r7
 2702 0368 FFF7FEFF 		bl	_ZN5daisy9SpiHandle16BlockingTransmitEPhjm
 2703              	.LVL224:
 125:/Users/amc/git/libDaisy/src/dev/oled_ssd130x.h ****     };
 2704              		.loc 9 125 30 view .LVU745
 2705 036c A423     		movs	r3, #164
ARM GAS  /var/folders/83/vwtnzcdn1v99b_lf0k0gsjzr0000gn/T//cc93oyUL.s 			page 93


 2706              	.LBE441:
 2707              	.LBE439:
 2708              	.LBB442:
 2709              	.LBB443:
 124:/Users/amc/git/libDaisy/src/dev/oled_ssd130x.h ****         spi_.BlockingTransmit(&cmd, 1);
 2710              		.loc 9 124 23 view .LVU746
 2711 036e 2946     		mov	r1, r5
 2712 0370 4046     		mov	r0, r8
 2713 0372 8DF80F30 		strb	r3, [sp, #15]
 2714              	.LVL225:
 124:/Users/amc/git/libDaisy/src/dev/oled_ssd130x.h ****         spi_.BlockingTransmit(&cmd, 1);
 2715              		.loc 9 124 23 view .LVU747
 2716              	.LBE443:
 2717              	.LBI442:
 122:/Users/amc/git/libDaisy/src/dev/oled_ssd130x.h ****     {
 2718              		.loc 9 122 10 is_stmt 1 view .LVU748
 2719              	.LBB444:
 124:/Users/amc/git/libDaisy/src/dev/oled_ssd130x.h ****         spi_.BlockingTransmit(&cmd, 1);
 2720              		.loc 9 124 9 view .LVU749
 124:/Users/amc/git/libDaisy/src/dev/oled_ssd130x.h ****         spi_.BlockingTransmit(&cmd, 1);
 2721              		.loc 9 124 23 is_stmt 0 view .LVU750
 2722 0376 FFF7FEFF 		bl	dsy_gpio_write
 2723              	.LVL226:
 125:/Users/amc/git/libDaisy/src/dev/oled_ssd130x.h ****     };
 2724              		.loc 9 125 9 is_stmt 1 view .LVU751
 125:/Users/amc/git/libDaisy/src/dev/oled_ssd130x.h ****     };
 2725              		.loc 9 125 30 is_stmt 0 view .LVU752
 2726 037a 3246     		mov	r2, r6
 2727 037c 0DF10F01 		add	r1, sp, #15
 2728 0380 6423     		movs	r3, #100
 2729 0382 3846     		mov	r0, r7
 2730 0384 FFF7FEFF 		bl	_ZN5daisy9SpiHandle16BlockingTransmitEPhjm
 2731              	.LVL227:
 125:/Users/amc/git/libDaisy/src/dev/oled_ssd130x.h ****     };
 2732              		.loc 9 125 30 view .LVU753
 2733 0388 8D23     		movs	r3, #141
 2734              	.LBE444:
 2735              	.LBE442:
 2736              	.LBB445:
 2737              	.LBB446:
 124:/Users/amc/git/libDaisy/src/dev/oled_ssd130x.h ****         spi_.BlockingTransmit(&cmd, 1);
 2738              		.loc 9 124 23 view .LVU754
 2739 038a 2946     		mov	r1, r5
 2740 038c 4046     		mov	r0, r8
 2741 038e 8DF80F30 		strb	r3, [sp, #15]
 2742              	.LVL228:
 124:/Users/amc/git/libDaisy/src/dev/oled_ssd130x.h ****         spi_.BlockingTransmit(&cmd, 1);
 2743              		.loc 9 124 23 view .LVU755
 2744              	.LBE446:
 2745              	.LBI445:
 122:/Users/amc/git/libDaisy/src/dev/oled_ssd130x.h ****     {
 2746              		.loc 9 122 10 is_stmt 1 view .LVU756
 2747              	.LBB447:
 124:/Users/amc/git/libDaisy/src/dev/oled_ssd130x.h ****         spi_.BlockingTransmit(&cmd, 1);
 2748              		.loc 9 124 9 view .LVU757
 124:/Users/amc/git/libDaisy/src/dev/oled_ssd130x.h ****         spi_.BlockingTransmit(&cmd, 1);
 2749              		.loc 9 124 23 is_stmt 0 view .LVU758
ARM GAS  /var/folders/83/vwtnzcdn1v99b_lf0k0gsjzr0000gn/T//cc93oyUL.s 			page 94


 2750 0392 FFF7FEFF 		bl	dsy_gpio_write
 2751              	.LVL229:
 125:/Users/amc/git/libDaisy/src/dev/oled_ssd130x.h ****     };
 2752              		.loc 9 125 9 is_stmt 1 view .LVU759
 125:/Users/amc/git/libDaisy/src/dev/oled_ssd130x.h ****     };
 2753              		.loc 9 125 30 is_stmt 0 view .LVU760
 2754 0396 3246     		mov	r2, r6
 2755 0398 0DF10F01 		add	r1, sp, #15
 2756 039c 6423     		movs	r3, #100
 2757 039e 3846     		mov	r0, r7
 2758 03a0 FFF7FEFF 		bl	_ZN5daisy9SpiHandle16BlockingTransmitEPhjm
 2759              	.LVL230:
 125:/Users/amc/git/libDaisy/src/dev/oled_ssd130x.h ****     };
 2760              		.loc 9 125 30 view .LVU761
 2761 03a4 1423     		movs	r3, #20
 2762              	.LBE447:
 2763              	.LBE445:
 2764              	.LBB448:
 2765              	.LBB449:
 124:/Users/amc/git/libDaisy/src/dev/oled_ssd130x.h ****         spi_.BlockingTransmit(&cmd, 1);
 2766              		.loc 9 124 23 view .LVU762
 2767 03a6 2946     		mov	r1, r5
 2768 03a8 4046     		mov	r0, r8
 2769 03aa 8DF80F30 		strb	r3, [sp, #15]
 2770              	.LVL231:
 124:/Users/amc/git/libDaisy/src/dev/oled_ssd130x.h ****         spi_.BlockingTransmit(&cmd, 1);
 2771              		.loc 9 124 23 view .LVU763
 2772              	.LBE449:
 2773              	.LBI448:
 122:/Users/amc/git/libDaisy/src/dev/oled_ssd130x.h ****     {
 2774              		.loc 9 122 10 is_stmt 1 view .LVU764
 2775              	.LBB450:
 124:/Users/amc/git/libDaisy/src/dev/oled_ssd130x.h ****         spi_.BlockingTransmit(&cmd, 1);
 2776              		.loc 9 124 9 view .LVU765
 124:/Users/amc/git/libDaisy/src/dev/oled_ssd130x.h ****         spi_.BlockingTransmit(&cmd, 1);
 2777              		.loc 9 124 23 is_stmt 0 view .LVU766
 2778 03ae FFF7FEFF 		bl	dsy_gpio_write
 2779              	.LVL232:
 125:/Users/amc/git/libDaisy/src/dev/oled_ssd130x.h ****     };
 2780              		.loc 9 125 9 is_stmt 1 view .LVU767
 125:/Users/amc/git/libDaisy/src/dev/oled_ssd130x.h ****     };
 2781              		.loc 9 125 30 is_stmt 0 view .LVU768
 2782 03b2 3246     		mov	r2, r6
 2783 03b4 0DF10F01 		add	r1, sp, #15
 2784 03b8 6423     		movs	r3, #100
 2785 03ba 3846     		mov	r0, r7
 2786 03bc FFF7FEFF 		bl	_ZN5daisy9SpiHandle16BlockingTransmitEPhjm
 2787              	.LVL233:
 125:/Users/amc/git/libDaisy/src/dev/oled_ssd130x.h ****     };
 2788              		.loc 9 125 30 view .LVU769
 2789 03c0 A123     		movs	r3, #161
 2790              	.LBE450:
 2791              	.LBE448:
 2792              	.LBB451:
 2793              	.LBB452:
 124:/Users/amc/git/libDaisy/src/dev/oled_ssd130x.h ****         spi_.BlockingTransmit(&cmd, 1);
 2794              		.loc 9 124 23 view .LVU770
ARM GAS  /var/folders/83/vwtnzcdn1v99b_lf0k0gsjzr0000gn/T//cc93oyUL.s 			page 95


 2795 03c2 2946     		mov	r1, r5
 2796 03c4 4046     		mov	r0, r8
 2797 03c6 8DF80F30 		strb	r3, [sp, #15]
 2798              	.LVL234:
 124:/Users/amc/git/libDaisy/src/dev/oled_ssd130x.h ****         spi_.BlockingTransmit(&cmd, 1);
 2799              		.loc 9 124 23 view .LVU771
 2800              	.LBE452:
 2801              	.LBI451:
 122:/Users/amc/git/libDaisy/src/dev/oled_ssd130x.h ****     {
 2802              		.loc 9 122 10 is_stmt 1 view .LVU772
 2803              	.LBB453:
 124:/Users/amc/git/libDaisy/src/dev/oled_ssd130x.h ****         spi_.BlockingTransmit(&cmd, 1);
 2804              		.loc 9 124 9 view .LVU773
 124:/Users/amc/git/libDaisy/src/dev/oled_ssd130x.h ****         spi_.BlockingTransmit(&cmd, 1);
 2805              		.loc 9 124 23 is_stmt 0 view .LVU774
 2806 03ca FFF7FEFF 		bl	dsy_gpio_write
 2807              	.LVL235:
 125:/Users/amc/git/libDaisy/src/dev/oled_ssd130x.h ****     };
 2808              		.loc 9 125 9 is_stmt 1 view .LVU775
 125:/Users/amc/git/libDaisy/src/dev/oled_ssd130x.h ****     };
 2809              		.loc 9 125 30 is_stmt 0 view .LVU776
 2810 03ce 3246     		mov	r2, r6
 2811 03d0 0DF10F01 		add	r1, sp, #15
 2812 03d4 6423     		movs	r3, #100
 2813 03d6 3846     		mov	r0, r7
 2814 03d8 FFF7FEFF 		bl	_ZN5daisy9SpiHandle16BlockingTransmitEPhjm
 2815              	.LVL236:
 125:/Users/amc/git/libDaisy/src/dev/oled_ssd130x.h ****     };
 2816              		.loc 9 125 30 view .LVU777
 2817 03dc C823     		movs	r3, #200
 2818              	.LBE453:
 2819              	.LBE451:
 2820              	.LBB454:
 2821              	.LBB455:
 124:/Users/amc/git/libDaisy/src/dev/oled_ssd130x.h ****         spi_.BlockingTransmit(&cmd, 1);
 2822              		.loc 9 124 23 view .LVU778
 2823 03de 2946     		mov	r1, r5
 2824 03e0 4046     		mov	r0, r8
 2825 03e2 8DF80F30 		strb	r3, [sp, #15]
 2826              	.LVL237:
 124:/Users/amc/git/libDaisy/src/dev/oled_ssd130x.h ****         spi_.BlockingTransmit(&cmd, 1);
 2827              		.loc 9 124 23 view .LVU779
 2828              	.LBE455:
 2829              	.LBI454:
 122:/Users/amc/git/libDaisy/src/dev/oled_ssd130x.h ****     {
 2830              		.loc 9 122 10 is_stmt 1 view .LVU780
 2831              	.LBB456:
 124:/Users/amc/git/libDaisy/src/dev/oled_ssd130x.h ****         spi_.BlockingTransmit(&cmd, 1);
 2832              		.loc 9 124 9 view .LVU781
 124:/Users/amc/git/libDaisy/src/dev/oled_ssd130x.h ****         spi_.BlockingTransmit(&cmd, 1);
 2833              		.loc 9 124 23 is_stmt 0 view .LVU782
 2834 03e6 FFF7FEFF 		bl	dsy_gpio_write
 2835              	.LVL238:
 125:/Users/amc/git/libDaisy/src/dev/oled_ssd130x.h ****     };
 2836              		.loc 9 125 9 is_stmt 1 view .LVU783
 125:/Users/amc/git/libDaisy/src/dev/oled_ssd130x.h ****     };
 2837              		.loc 9 125 30 is_stmt 0 view .LVU784
ARM GAS  /var/folders/83/vwtnzcdn1v99b_lf0k0gsjzr0000gn/T//cc93oyUL.s 			page 96


 2838 03ea 3246     		mov	r2, r6
 2839 03ec 0DF10F01 		add	r1, sp, #15
 2840 03f0 6423     		movs	r3, #100
 2841 03f2 3846     		mov	r0, r7
 2842 03f4 FFF7FEFF 		bl	_ZN5daisy9SpiHandle16BlockingTransmitEPhjm
 2843              	.LVL239:
 125:/Users/amc/git/libDaisy/src/dev/oled_ssd130x.h ****     };
 2844              		.loc 9 125 30 view .LVU785
 2845 03f8 8123     		movs	r3, #129
 2846              	.LBE456:
 2847              	.LBE454:
 2848              	.LBB457:
 2849              	.LBB458:
 124:/Users/amc/git/libDaisy/src/dev/oled_ssd130x.h ****         spi_.BlockingTransmit(&cmd, 1);
 2850              		.loc 9 124 23 view .LVU786
 2851 03fa 2946     		mov	r1, r5
 2852 03fc 4046     		mov	r0, r8
 2853 03fe 8DF80F30 		strb	r3, [sp, #15]
 2854              	.LVL240:
 124:/Users/amc/git/libDaisy/src/dev/oled_ssd130x.h ****         spi_.BlockingTransmit(&cmd, 1);
 2855              		.loc 9 124 23 view .LVU787
 2856              	.LBE458:
 2857              	.LBI457:
 122:/Users/amc/git/libDaisy/src/dev/oled_ssd130x.h ****     {
 2858              		.loc 9 122 10 is_stmt 1 view .LVU788
 2859              	.LBB459:
 124:/Users/amc/git/libDaisy/src/dev/oled_ssd130x.h ****         spi_.BlockingTransmit(&cmd, 1);
 2860              		.loc 9 124 9 view .LVU789
 124:/Users/amc/git/libDaisy/src/dev/oled_ssd130x.h ****         spi_.BlockingTransmit(&cmd, 1);
 2861              		.loc 9 124 23 is_stmt 0 view .LVU790
 2862 0402 FFF7FEFF 		bl	dsy_gpio_write
 2863              	.LVL241:
 125:/Users/amc/git/libDaisy/src/dev/oled_ssd130x.h ****     };
 2864              		.loc 9 125 9 is_stmt 1 view .LVU791
 125:/Users/amc/git/libDaisy/src/dev/oled_ssd130x.h ****     };
 2865              		.loc 9 125 30 is_stmt 0 view .LVU792
 2866 0406 3246     		mov	r2, r6
 2867 0408 0DF10F01 		add	r1, sp, #15
 2868 040c 6423     		movs	r3, #100
 2869 040e 3846     		mov	r0, r7
 2870 0410 FFF7FEFF 		bl	_ZN5daisy9SpiHandle16BlockingTransmitEPhjm
 2871              	.LVL242:
 125:/Users/amc/git/libDaisy/src/dev/oled_ssd130x.h ****     };
 2872              		.loc 9 125 30 view .LVU793
 2873 0414 8F23     		movs	r3, #143
 2874              	.LBE459:
 2875              	.LBE457:
 2876              	.LBB460:
 2877              	.LBB461:
 124:/Users/amc/git/libDaisy/src/dev/oled_ssd130x.h ****         spi_.BlockingTransmit(&cmd, 1);
 2878              		.loc 9 124 23 view .LVU794
 2879 0416 2946     		mov	r1, r5
 2880 0418 08E0     		b	.L72
 2881              	.L73:
 2882 041a 00BF     		.align	2
 2883              	.L71:
 2884 041c 00000000 		.word	0
ARM GAS  /var/folders/83/vwtnzcdn1v99b_lf0k0gsjzr0000gn/T//cc93oyUL.s 			page 97


 2885 0420 00007A44 		.word	1148846080
 2886 0424 060B0B00 		.word	723718
 2887 0428 0105060A 		.word	168166657
 2888              	.L72:
 2889 042c 4046     		mov	r0, r8
 2890 042e 8DF80F30 		strb	r3, [sp, #15]
 2891              	.LVL243:
 124:/Users/amc/git/libDaisy/src/dev/oled_ssd130x.h ****         spi_.BlockingTransmit(&cmd, 1);
 2892              		.loc 9 124 23 view .LVU795
 2893              	.LBE461:
 2894              	.LBI460:
 122:/Users/amc/git/libDaisy/src/dev/oled_ssd130x.h ****     {
 2895              		.loc 9 122 10 is_stmt 1 view .LVU796
 2896              	.LBB462:
 124:/Users/amc/git/libDaisy/src/dev/oled_ssd130x.h ****         spi_.BlockingTransmit(&cmd, 1);
 2897              		.loc 9 124 9 view .LVU797
 124:/Users/amc/git/libDaisy/src/dev/oled_ssd130x.h ****         spi_.BlockingTransmit(&cmd, 1);
 2898              		.loc 9 124 23 is_stmt 0 view .LVU798
 2899 0432 FFF7FEFF 		bl	dsy_gpio_write
 2900              	.LVL244:
 125:/Users/amc/git/libDaisy/src/dev/oled_ssd130x.h ****     };
 2901              		.loc 9 125 9 is_stmt 1 view .LVU799
 125:/Users/amc/git/libDaisy/src/dev/oled_ssd130x.h ****     };
 2902              		.loc 9 125 30 is_stmt 0 view .LVU800
 2903 0436 3246     		mov	r2, r6
 2904 0438 0DF10F01 		add	r1, sp, #15
 2905 043c 6423     		movs	r3, #100
 2906 043e 3846     		mov	r0, r7
 2907 0440 FFF7FEFF 		bl	_ZN5daisy9SpiHandle16BlockingTransmitEPhjm
 2908              	.LVL245:
 125:/Users/amc/git/libDaisy/src/dev/oled_ssd130x.h ****     };
 2909              		.loc 9 125 30 view .LVU801
 2910 0444 D923     		movs	r3, #217
 2911              	.LBE462:
 2912              	.LBE460:
 2913              	.LBB463:
 2914              	.LBB464:
 124:/Users/amc/git/libDaisy/src/dev/oled_ssd130x.h ****         spi_.BlockingTransmit(&cmd, 1);
 2915              		.loc 9 124 23 view .LVU802
 2916 0446 2946     		mov	r1, r5
 2917 0448 4046     		mov	r0, r8
 2918 044a 8DF80F30 		strb	r3, [sp, #15]
 2919              	.LVL246:
 124:/Users/amc/git/libDaisy/src/dev/oled_ssd130x.h ****         spi_.BlockingTransmit(&cmd, 1);
 2920              		.loc 9 124 23 view .LVU803
 2921              	.LBE464:
 2922              	.LBI463:
 122:/Users/amc/git/libDaisy/src/dev/oled_ssd130x.h ****     {
 2923              		.loc 9 122 10 is_stmt 1 view .LVU804
 2924              	.LBB465:
 124:/Users/amc/git/libDaisy/src/dev/oled_ssd130x.h ****         spi_.BlockingTransmit(&cmd, 1);
 2925              		.loc 9 124 9 view .LVU805
 124:/Users/amc/git/libDaisy/src/dev/oled_ssd130x.h ****         spi_.BlockingTransmit(&cmd, 1);
 2926              		.loc 9 124 23 is_stmt 0 view .LVU806
 2927 044e FFF7FEFF 		bl	dsy_gpio_write
 2928              	.LVL247:
 125:/Users/amc/git/libDaisy/src/dev/oled_ssd130x.h ****     };
ARM GAS  /var/folders/83/vwtnzcdn1v99b_lf0k0gsjzr0000gn/T//cc93oyUL.s 			page 98


 2929              		.loc 9 125 9 is_stmt 1 view .LVU807
 125:/Users/amc/git/libDaisy/src/dev/oled_ssd130x.h ****     };
 2930              		.loc 9 125 30 is_stmt 0 view .LVU808
 2931 0452 3246     		mov	r2, r6
 2932 0454 0DF10F01 		add	r1, sp, #15
 2933 0458 6423     		movs	r3, #100
 2934 045a 3846     		mov	r0, r7
 2935 045c FFF7FEFF 		bl	_ZN5daisy9SpiHandle16BlockingTransmitEPhjm
 2936              	.LVL248:
 125:/Users/amc/git/libDaisy/src/dev/oled_ssd130x.h ****     };
 2937              		.loc 9 125 30 view .LVU809
 2938 0460 2523     		movs	r3, #37
 2939              	.LBE465:
 2940              	.LBE463:
 2941              	.LBB466:
 2942              	.LBB467:
 124:/Users/amc/git/libDaisy/src/dev/oled_ssd130x.h ****         spi_.BlockingTransmit(&cmd, 1);
 2943              		.loc 9 124 23 view .LVU810
 2944 0462 2946     		mov	r1, r5
 2945 0464 4046     		mov	r0, r8
 2946 0466 8DF80F30 		strb	r3, [sp, #15]
 2947              	.LVL249:
 124:/Users/amc/git/libDaisy/src/dev/oled_ssd130x.h ****         spi_.BlockingTransmit(&cmd, 1);
 2948              		.loc 9 124 23 view .LVU811
 2949              	.LBE467:
 2950              	.LBI466:
 122:/Users/amc/git/libDaisy/src/dev/oled_ssd130x.h ****     {
 2951              		.loc 9 122 10 is_stmt 1 view .LVU812
 2952              	.LBB468:
 124:/Users/amc/git/libDaisy/src/dev/oled_ssd130x.h ****         spi_.BlockingTransmit(&cmd, 1);
 2953              		.loc 9 124 9 view .LVU813
 124:/Users/amc/git/libDaisy/src/dev/oled_ssd130x.h ****         spi_.BlockingTransmit(&cmd, 1);
 2954              		.loc 9 124 23 is_stmt 0 view .LVU814
 2955 046a FFF7FEFF 		bl	dsy_gpio_write
 2956              	.LVL250:
 125:/Users/amc/git/libDaisy/src/dev/oled_ssd130x.h ****     };
 2957              		.loc 9 125 9 is_stmt 1 view .LVU815
 125:/Users/amc/git/libDaisy/src/dev/oled_ssd130x.h ****     };
 2958              		.loc 9 125 30 is_stmt 0 view .LVU816
 2959 046e 3246     		mov	r2, r6
 2960 0470 0DF10F01 		add	r1, sp, #15
 2961 0474 6423     		movs	r3, #100
 2962 0476 3846     		mov	r0, r7
 2963 0478 FFF7FEFF 		bl	_ZN5daisy9SpiHandle16BlockingTransmitEPhjm
 2964              	.LVL251:
 125:/Users/amc/git/libDaisy/src/dev/oled_ssd130x.h ****     };
 2965              		.loc 9 125 30 view .LVU817
 2966 047c DB23     		movs	r3, #219
 2967              	.LBE468:
 2968              	.LBE466:
 2969              	.LBB469:
 2970              	.LBB470:
 124:/Users/amc/git/libDaisy/src/dev/oled_ssd130x.h ****         spi_.BlockingTransmit(&cmd, 1);
 2971              		.loc 9 124 23 view .LVU818
 2972 047e 2946     		mov	r1, r5
 2973 0480 4046     		mov	r0, r8
 2974 0482 8DF80F30 		strb	r3, [sp, #15]
ARM GAS  /var/folders/83/vwtnzcdn1v99b_lf0k0gsjzr0000gn/T//cc93oyUL.s 			page 99


 2975              	.LVL252:
 124:/Users/amc/git/libDaisy/src/dev/oled_ssd130x.h ****         spi_.BlockingTransmit(&cmd, 1);
 2976              		.loc 9 124 23 view .LVU819
 2977              	.LBE470:
 2978              	.LBI469:
 122:/Users/amc/git/libDaisy/src/dev/oled_ssd130x.h ****     {
 2979              		.loc 9 122 10 is_stmt 1 view .LVU820
 2980              	.LBB471:
 124:/Users/amc/git/libDaisy/src/dev/oled_ssd130x.h ****         spi_.BlockingTransmit(&cmd, 1);
 2981              		.loc 9 124 9 view .LVU821
 124:/Users/amc/git/libDaisy/src/dev/oled_ssd130x.h ****         spi_.BlockingTransmit(&cmd, 1);
 2982              		.loc 9 124 23 is_stmt 0 view .LVU822
 2983 0486 FFF7FEFF 		bl	dsy_gpio_write
 2984              	.LVL253:
 125:/Users/amc/git/libDaisy/src/dev/oled_ssd130x.h ****     };
 2985              		.loc 9 125 9 is_stmt 1 view .LVU823
 125:/Users/amc/git/libDaisy/src/dev/oled_ssd130x.h ****     };
 2986              		.loc 9 125 30 is_stmt 0 view .LVU824
 2987 048a 3246     		mov	r2, r6
 2988 048c 0DF10F01 		add	r1, sp, #15
 2989 0490 6423     		movs	r3, #100
 2990 0492 3846     		mov	r0, r7
 2991 0494 FFF7FEFF 		bl	_ZN5daisy9SpiHandle16BlockingTransmitEPhjm
 2992              	.LVL254:
 125:/Users/amc/git/libDaisy/src/dev/oled_ssd130x.h ****     };
 2993              		.loc 9 125 30 view .LVU825
 2994 0498 3423     		movs	r3, #52
 2995              	.LBE471:
 2996              	.LBE469:
 2997              	.LBB472:
 2998              	.LBB473:
 124:/Users/amc/git/libDaisy/src/dev/oled_ssd130x.h ****         spi_.BlockingTransmit(&cmd, 1);
 2999              		.loc 9 124 23 view .LVU826
 3000 049a 2946     		mov	r1, r5
 3001 049c 4046     		mov	r0, r8
 3002 049e 8DF80F30 		strb	r3, [sp, #15]
 3003              	.LVL255:
 124:/Users/amc/git/libDaisy/src/dev/oled_ssd130x.h ****         spi_.BlockingTransmit(&cmd, 1);
 3004              		.loc 9 124 23 view .LVU827
 3005              	.LBE473:
 3006              	.LBI472:
 122:/Users/amc/git/libDaisy/src/dev/oled_ssd130x.h ****     {
 3007              		.loc 9 122 10 is_stmt 1 view .LVU828
 3008              	.LBB474:
 124:/Users/amc/git/libDaisy/src/dev/oled_ssd130x.h ****         spi_.BlockingTransmit(&cmd, 1);
 3009              		.loc 9 124 9 view .LVU829
 124:/Users/amc/git/libDaisy/src/dev/oled_ssd130x.h ****         spi_.BlockingTransmit(&cmd, 1);
 3010              		.loc 9 124 23 is_stmt 0 view .LVU830
 3011 04a2 FFF7FEFF 		bl	dsy_gpio_write
 3012              	.LVL256:
 125:/Users/amc/git/libDaisy/src/dev/oled_ssd130x.h ****     };
 3013              		.loc 9 125 9 is_stmt 1 view .LVU831
 125:/Users/amc/git/libDaisy/src/dev/oled_ssd130x.h ****     };
 3014              		.loc 9 125 30 is_stmt 0 view .LVU832
 3015 04a6 3246     		mov	r2, r6
 3016 04a8 0DF10F01 		add	r1, sp, #15
 3017 04ac 6423     		movs	r3, #100
ARM GAS  /var/folders/83/vwtnzcdn1v99b_lf0k0gsjzr0000gn/T//cc93oyUL.s 			page 100


 3018 04ae 3846     		mov	r0, r7
 3019 04b0 FFF7FEFF 		bl	_ZN5daisy9SpiHandle16BlockingTransmitEPhjm
 3020              	.LVL257:
 125:/Users/amc/git/libDaisy/src/dev/oled_ssd130x.h ****     };
 3021              		.loc 9 125 30 view .LVU833
 3022 04b4 AF23     		movs	r3, #175
 3023              	.LBE474:
 3024              	.LBE472:
 3025              	.LBB475:
 3026              	.LBB476:
 124:/Users/amc/git/libDaisy/src/dev/oled_ssd130x.h ****         spi_.BlockingTransmit(&cmd, 1);
 3027              		.loc 9 124 23 view .LVU834
 3028 04b6 2946     		mov	r1, r5
 3029 04b8 4046     		mov	r0, r8
 3030 04ba 8DF80F30 		strb	r3, [sp, #15]
 3031              	.LVL258:
 124:/Users/amc/git/libDaisy/src/dev/oled_ssd130x.h ****         spi_.BlockingTransmit(&cmd, 1);
 3032              		.loc 9 124 23 view .LVU835
 3033              	.LBE476:
 3034              	.LBI475:
 122:/Users/amc/git/libDaisy/src/dev/oled_ssd130x.h ****     {
 3035              		.loc 9 122 10 is_stmt 1 view .LVU836
 3036              	.LBB477:
 124:/Users/amc/git/libDaisy/src/dev/oled_ssd130x.h ****         spi_.BlockingTransmit(&cmd, 1);
 3037              		.loc 9 124 9 view .LVU837
 124:/Users/amc/git/libDaisy/src/dev/oled_ssd130x.h ****         spi_.BlockingTransmit(&cmd, 1);
 3038              		.loc 9 124 23 is_stmt 0 view .LVU838
 3039 04be FFF7FEFF 		bl	dsy_gpio_write
 3040              	.LVL259:
 125:/Users/amc/git/libDaisy/src/dev/oled_ssd130x.h ****     };
 3041              		.loc 9 125 9 is_stmt 1 view .LVU839
 125:/Users/amc/git/libDaisy/src/dev/oled_ssd130x.h ****     };
 3042              		.loc 9 125 30 is_stmt 0 view .LVU840
 3043 04c2 6423     		movs	r3, #100
 3044 04c4 3246     		mov	r2, r6
 3045 04c6 0DF10F01 		add	r1, sp, #15
 3046 04ca 3846     		mov	r0, r7
 3047 04cc FFF7FEFF 		bl	_ZN5daisy9SpiHandle16BlockingTransmitEPhjm
 3048              	.LVL260:
 125:/Users/amc/git/libDaisy/src/dev/oled_ssd130x.h ****     };
 3049              		.loc 9 125 30 view .LVU841
 3050              	.LBE477:
 3051              	.LBE475:
 3052              	.LBE479:
 3053              	.LBE481:
 3054              	.LBE483:
 3055              	.LBE484:
  48:../src/Pedal.cpp **** 
 3056              		.loc 1 48 1 view .LVU842
 3057 04d0 2DB0     		add	sp, sp, #180
 3058              		.cfi_def_cfa_offset 36
 3059              		@ sp needed
 3060 04d2 BDE8F08F 		pop	{r4, r5, r6, r7, r8, r9, r10, fp, pc}
  48:../src/Pedal.cpp **** 
 3061              		.loc 1 48 1 view .LVU843
 3062              		.cfi_endproc
 3063              	.LFE4656:
ARM GAS  /var/folders/83/vwtnzcdn1v99b_lf0k0gsjzr0000gn/T//cc93oyUL.s 			page 101


 3065 04d6 00BF     		.section	.text._ZN3amc5Pedal17SetHidUpdateRatesEv,"ax",%progbits
 3066              		.align	1
 3067              		.p2align 2,,3
 3068              		.global	_ZN3amc5Pedal17SetHidUpdateRatesEv
 3069              		.syntax unified
 3070              		.thumb
 3071              		.thumb_func
 3073              	_ZN3amc5Pedal17SetHidUpdateRatesEv:
 3074              	.LVL261:
 3075              	.LFB4692:
 206:../src/Pedal.cpp **** 	for (size_t i = 0; i < KnobI::KN; i++)
 3076              		.loc 1 206 1 is_stmt 1 view -0
 3077              		.cfi_startproc
 3078              		@ args = 0, pretend = 0, frame = 0
 3079              		@ frame_needed = 0, uses_anonymous_args = 0
 207:../src/Pedal.cpp **** 		knobs[i].SetSampleRate(CallbackRate());
 3080              		.loc 1 207 2 view .LVU845
 3081              	.LBB485:
 207:../src/Pedal.cpp **** 		knobs[i].SetSampleRate(CallbackRate());
 3082              		.loc 1 207 23 discriminator 1 view .LVU846
 3083              	.LBE485:
 206:../src/Pedal.cpp **** 	for (size_t i = 0; i < KnobI::KN; i++)
 3084              		.loc 1 206 1 is_stmt 0 view .LVU847
 3085 0000 70B5     		push	{r4, r5, r6, lr}
 3086              		.cfi_def_cfa_offset 16
 3087              		.cfi_offset 4, -16
 3088              		.cfi_offset 5, -12
 3089              		.cfi_offset 6, -8
 3090              		.cfi_offset 14, -4
 206:../src/Pedal.cpp **** 	for (size_t i = 0; i < KnobI::KN; i++)
 3091              		.loc 1 206 1 view .LVU848
 3092 0002 0546     		mov	r5, r0
 3093 0004 00F25444 		addw	r4, r0, #1108
 3094 0008 00F21456 		addw	r6, r0, #1300
 3095              	.LVL262:
 3096              	.L75:
 3097              	.LBB488:
 208:../src/Pedal.cpp **** 
 3098              		.loc 1 208 3 is_stmt 1 view .LVU849
 3099              	.LBB486:
 3100              	.LBI486:
 102:../src/Pedal.cpp **** {
 3101              		.loc 1 102 7 view .LVU850
 3102              	.LBB487:
 104:../src/Pedal.cpp **** }
 3103              		.loc 1 104 2 view .LVU851
 104:../src/Pedal.cpp **** }
 3104              		.loc 1 104 31 is_stmt 0 view .LVU852
 3105 000c 2846     		mov	r0, r5
 3106 000e FFF7FEFF 		bl	_ZNK5daisy9DaisySeed17AudioCallbackRateEv
 3107              	.LVL263:
 104:../src/Pedal.cpp **** }
 3108              		.loc 1 104 31 view .LVU853
 3109              	.LBE487:
 3110              	.LBE486:
 208:../src/Pedal.cpp **** 
 3111              		.loc 1 208 25 discriminator 1 view .LVU854
ARM GAS  /var/folders/83/vwtnzcdn1v99b_lf0k0gsjzr0000gn/T//cc93oyUL.s 			page 102


 3112 0012 2046     		mov	r0, r4
 207:../src/Pedal.cpp **** 		knobs[i].SetSampleRate(CallbackRate());
 3113              		.loc 1 207 23 discriminator 1 view .LVU855
 3114 0014 2034     		adds	r4, r4, #32
 208:../src/Pedal.cpp **** 
 3115              		.loc 1 208 25 discriminator 1 view .LVU856
 3116 0016 FFF7FEFF 		bl	_ZN5daisy13AnalogControl13SetSampleRateEf
 3117              	.LVL264:
 207:../src/Pedal.cpp **** 		knobs[i].SetSampleRate(CallbackRate());
 3118              		.loc 1 207 2 is_stmt 1 discriminator 3 view .LVU857
 207:../src/Pedal.cpp **** 		knobs[i].SetSampleRate(CallbackRate());
 3119              		.loc 1 207 23 discriminator 1 view .LVU858
 3120 001a B442     		cmp	r4, r6
 3121 001c F6D1     		bne	.L75
 3122              	.LVL265:
 207:../src/Pedal.cpp **** 		knobs[i].SetSampleRate(CallbackRate());
 3123              		.loc 1 207 23 is_stmt 0 discriminator 1 view .LVU859
 3124              	.LBE488:
 3125              	.LBB489:
 210:../src/Pedal.cpp **** 		leds[i].SetSampleRate(CallbackRate());
 3126              		.loc 1 210 23 is_stmt 1 discriminator 1 view .LVU860
 3127              		.loc 1 211 3 view .LVU861
 3128              	.LBB490:
 3129              	.LBI490:
 102:../src/Pedal.cpp **** {
 3130              		.loc 1 102 7 view .LVU862
 3131              	.LBB491:
 104:../src/Pedal.cpp **** }
 3132              		.loc 1 104 2 view .LVU863
 104:../src/Pedal.cpp **** }
 3133              		.loc 1 104 31 is_stmt 0 view .LVU864
 3134 001e 2846     		mov	r0, r5
 3135 0020 FFF7FEFF 		bl	_ZNK5daisy9DaisySeed17AudioCallbackRateEv
 3136              	.LVL266:
 104:../src/Pedal.cpp **** }
 3137              		.loc 1 104 31 view .LVU865
 3138              	.LBE491:
 3139              	.LBE490:
 3140              	.LBB494:
 3141              	.LBI494:
 3142              		.loc 2 51 17 is_stmt 1 view .LVU866
 3143              	.LBB495:
 3144              		.loc 2 51 52 view .LVU867
 3145              		.loc 2 51 64 is_stmt 0 view .LVU868
 3146 0024 05F26C53 		addw	r3, r5, #1388
 3147              	.LBE495:
 3148              	.LBE494:
 3149              	.LBB498:
 3150              	.LBB492:
 104:../src/Pedal.cpp **** }
 3151              		.loc 1 104 31 view .LVU869
 3152 0028 2846     		mov	r0, r5
 3153              	.LBE492:
 3154              	.LBE498:
 3155              	.LBB499:
 3156              	.LBB496:
 3157              		.loc 2 51 64 view .LVU870
ARM GAS  /var/folders/83/vwtnzcdn1v99b_lf0k0gsjzr0000gn/T//cc93oyUL.s 			page 103


 3158 002a 05F5B165 		add	r5, r5, #1416
 3159              	.LVL267:
 3160              		.loc 2 51 64 view .LVU871
 3161 002e 83ED000A 		vstr.32	s0, [r3]
 3162              	.LVL268:
 3163              		.loc 2 51 64 view .LVU872
 3164              	.LBE496:
 3165              	.LBE499:
 210:../src/Pedal.cpp **** 		leds[i].SetSampleRate(CallbackRate());
 3166              		.loc 1 210 2 is_stmt 1 discriminator 3 view .LVU873
 210:../src/Pedal.cpp **** 		leds[i].SetSampleRate(CallbackRate());
 3167              		.loc 1 210 23 discriminator 1 view .LVU874
 3168              		.loc 1 211 3 view .LVU875
 3169              	.LBB500:
 102:../src/Pedal.cpp **** {
 3170              		.loc 1 102 7 view .LVU876
 3171              	.LBB493:
 104:../src/Pedal.cpp **** }
 3172              		.loc 1 104 2 view .LVU877
 104:../src/Pedal.cpp **** }
 3173              		.loc 1 104 31 is_stmt 0 view .LVU878
 3174 0032 FFF7FEFF 		bl	_ZNK5daisy9DaisySeed17AudioCallbackRateEv
 3175              	.LVL269:
 104:../src/Pedal.cpp **** }
 3176              		.loc 1 104 31 view .LVU879
 3177              	.LBE493:
 3178              	.LBE500:
 3179              	.LBB501:
 3180              		.loc 2 51 17 is_stmt 1 view .LVU880
 3181              	.LBB497:
 3182              		.loc 2 51 52 view .LVU881
 3183              		.loc 2 51 64 is_stmt 0 view .LVU882
 3184 0036 85ED000A 		vstr.32	s0, [r5]
 3185              	.LVL270:
 3186              		.loc 2 51 64 view .LVU883
 3187              	.LBE497:
 3188              	.LBE501:
 210:../src/Pedal.cpp **** 		leds[i].SetSampleRate(CallbackRate());
 3189              		.loc 1 210 2 is_stmt 1 discriminator 3 view .LVU884
 210:../src/Pedal.cpp **** 		leds[i].SetSampleRate(CallbackRate());
 3190              		.loc 1 210 23 discriminator 1 view .LVU885
 3191              	.LBE489:
 212:../src/Pedal.cpp **** }...
 3192              		.loc 1 212 1 is_stmt 0 view .LVU886
 3193 003a 70BD     		pop	{r4, r5, r6, pc}
 3194              		.loc 1 212 1 view .LVU887
 3195              		.cfi_endproc
 3196              	.LFE4692:
 3198              		.section	.rodata._ZN5daisy4seedL3D12E,"a"
 3199              		.align	2
 3202              	_ZN5daisy4seedL3D12E:
 3203 0000 01       		.byte	1
 3204 0001 09       		.byte	9
 3205              		.section	.rodata._ZN5daisy4seedL2D1E,"a"
 3206              		.align	2
 3209              	_ZN5daisy4seedL2D1E:
 3210 0000 02       		.byte	2
ARM GAS  /var/folders/83/vwtnzcdn1v99b_lf0k0gsjzr0000gn/T//cc93oyUL.s 			page 104


 3211 0001 0B       		.byte	11
 3212              		.text
 3213              	.Letext0:
 3214              		.file 11 "/Applications/ArmGNUToolchain/13.2.Rel1/arm-none-eabi/arm-none-eabi/include/machine/_def
 3215              		.file 12 "/Applications/ArmGNUToolchain/13.2.Rel1/arm-none-eabi/arm-none-eabi/include/sys/_stdint.
 3216              		.file 13 "/Applications/ArmGNUToolchain/13.2.Rel1/arm-none-eabi/arm-none-eabi/include/stdint.h"
 3217              		.file 14 "/Applications/ArmGNUToolchain/13.2.Rel1/arm-none-eabi/lib/gcc/arm-none-eabi/13.2.1/inclu
 3218              		.file 15 "/Applications/ArmGNUToolchain/13.2.Rel1/arm-none-eabi/arm-none-eabi/include/c++/13.2.1/c
 3219              		.file 16 "/Applications/ArmGNUToolchain/13.2.Rel1/arm-none-eabi/arm-none-eabi/include/c++/13.2.1/a
 3220              		.file 17 "/Applications/ArmGNUToolchain/13.2.Rel1/arm-none-eabi/arm-none-eabi/include/c++/13.2.1/t
 3221              		.file 18 "/Applications/ArmGNUToolchain/13.2.Rel1/arm-none-eabi/arm-none-eabi/include/c++/13.2.1/d
 3222              		.file 19 "/Applications/ArmGNUToolchain/13.2.Rel1/arm-none-eabi/arm-none-eabi/include/c++/13.2.1/b
 3223              		.file 20 "/Applications/ArmGNUToolchain/13.2.Rel1/arm-none-eabi/arm-none-eabi/include/c++/13.2.1/c
 3224              		.file 21 "/Applications/ArmGNUToolchain/13.2.Rel1/arm-none-eabi/arm-none-eabi/include/c++/13.2.1/c
 3225              		.file 22 "/Applications/ArmGNUToolchain/13.2.Rel1/arm-none-eabi/arm-none-eabi/include/c++/13.2.1/i
 3226              		.file 23 "/Applications/ArmGNUToolchain/13.2.Rel1/arm-none-eabi/arm-none-eabi/include/c++/13.2.1/c
 3227              		.file 24 "/Applications/ArmGNUToolchain/13.2.Rel1/arm-none-eabi/arm-none-eabi/include/c++/13.2.1/c
 3228              		.file 25 "/Applications/ArmGNUToolchain/13.2.Rel1/arm-none-eabi/arm-none-eabi/include/c++/13.2.1/c
 3229              		.file 26 "/Applications/ArmGNUToolchain/13.2.Rel1/arm-none-eabi/arm-none-eabi/include/c++/13.2.1/c
 3230              		.file 27 "/Applications/ArmGNUToolchain/13.2.Rel1/arm-none-eabi/arm-none-eabi/include/c++/13.2.1/b
 3231              		.file 28 "/Applications/ArmGNUToolchain/13.2.Rel1/arm-none-eabi/arm-none-eabi/include/c++/13.2.1/c
 3232              		.file 29 "/Applications/ArmGNUToolchain/13.2.Rel1/arm-none-eabi/arm-none-eabi/include/c++/13.2.1/c
 3233              		.file 30 "/Applications/ArmGNUToolchain/13.2.Rel1/arm-none-eabi/arm-none-eabi/include/c++/13.2.1/c
 3234              		.file 31 "/Applications/ArmGNUToolchain/13.2.Rel1/arm-none-eabi/arm-none-eabi/include/c++/13.2.1/b
 3235              		.file 32 "/Applications/ArmGNUToolchain/13.2.Rel1/arm-none-eabi/arm-none-eabi/include/c++/13.2.1/b
 3236              		.file 33 "/Applications/ArmGNUToolchain/13.2.Rel1/arm-none-eabi/arm-none-eabi/include/sys/_types.h
 3237              		.file 34 "/Applications/ArmGNUToolchain/13.2.Rel1/arm-none-eabi/arm-none-eabi/include/sys/reent.h"
 3238              		.file 35 "/Applications/ArmGNUToolchain/13.2.Rel1/arm-none-eabi/arm-none-eabi/include/sys/lock.h"
 3239              		.file 36 "/Applications/ArmGNUToolchain/13.2.Rel1/arm-none-eabi/arm-none-eabi/include/math.h"
 3240              		.file 37 "/Applications/ArmGNUToolchain/13.2.Rel1/arm-none-eabi/arm-none-eabi/include/stdlib.h"
 3241              		.file 38 "/Applications/ArmGNUToolchain/13.2.Rel1/arm-none-eabi/arm-none-eabi/include/c++/13.2.1/m
 3242              		.file 39 "/Applications/ArmGNUToolchain/13.2.Rel1/arm-none-eabi/arm-none-eabi/include/c++/13.2.1/s
 3243              		.file 40 "/Users/amc/git/libDaisy/src/daisy_core.h"
 3244              		.file 41 "/Users/amc/git/libDaisy/src/sys/system.h"
 3245              		.file 42 "/Users/amc/git/libDaisy/src/per/qspi.h"
 3246              		.file 43 "/Users/amc/git/libDaisy/src/per/dac.h"
 3247              		.file 44 "/Users/amc/git/libDaisy/src/per/gpio.h"
 3248              		.file 45 "/Users/amc/git/libDaisy/src/per/sai.h"
 3249              		.file 46 "/Users/amc/git/libDaisy/src/hid/audio.h"
 3250              		.file 47 "/Users/amc/git/libDaisy/src/per/adc.h"
 3251              		.file 48 "/Users/amc/git/libDaisy/src/hid/MidiEvent.h"
 3252              		.file 49 "/Users/amc/git/libDaisy/src/hid/usb.h"
 3253              		.file 50 "/Users/amc/git/libDaisy/src/util/FIFO.h"
 3254              		.file 51 "/Users/amc/git/libDaisy/src/hid/switch.h"
 3255              		.file 52 "/Users/amc/git/libDaisy/src/hid/encoder.h"
 3256              		.file 53 "/Users/amc/git/libDaisy/src/hid/disp/graphics_common.h"
 3257              		.file 54 "/Users/amc/git/libDaisy/src/util/wav_format.h"
 3258              		.file 55 "/Users/amc/git/libDaisy/src/dev/max11300.h"
 3259              		.file 56 "/Users/amc/git/libDaisy/src/daisy_seed.h"
 3260              		.file 57 "/Users/amc/git/libDaisy/src/hid/disp/display.h"
 3261              		.file 58 "/Users/amc/git/libDaisy/src/dev/sdram.h"
 3262              		.file 59 "/Applications/ArmGNUToolchain/13.2.Rel1/arm-none-eabi/arm-none-eabi/include/c++/13.2.1/p
 3263              		.file 60 "/Applications/ArmGNUToolchain/13.2.Rel1/arm-none-eabi/arm-none-eabi/include/c++/13.2.1/b
 3264              		.file 61 "/Applications/ArmGNUToolchain/13.2.Rel1/arm-none-eabi/lib/gcc/arm-none-eabi/13.2.1/inclu
 3265              		.file 62 "/Applications/ArmGNUToolchain/13.2.Rel1/arm-none-eabi/arm-none-eabi/include/stdio.h"
 3266              		.file 63 "/Users/amc/git/libDaisy/src/util/oled_fonts.h"
 3267              		.file 64 "/Applications/ArmGNUToolchain/13.2.Rel1/arm-none-eabi/arm-none-eabi/include/string.h"
ARM GAS  /var/folders/83/vwtnzcdn1v99b_lf0k0gsjzr0000gn/T//cc93oyUL.s 			page 105


 3268              		.file 65 "/Applications/ArmGNUToolchain/13.2.Rel1/arm-none-eabi/arm-none-eabi/include/wchar.h"
 3269              		.file 66 "/Applications/ArmGNUToolchain/13.2.Rel1/arm-none-eabi/arm-none-eabi/include/locale.h"
 3270              		.file 67 "/Applications/ArmGNUToolchain/13.2.Rel1/arm-none-eabi/arm-none-eabi/include/wctype.h"
 3271              		.file 68 "../src/Pedal.h"
 3272              		.file 69 "/Users/amc/git/libDaisy/src/dev/sr_595.h"
 3273              		.file 70 "/Applications/ArmGNUToolchain/13.2.Rel1/arm-none-eabi/arm-none-eabi/include/c++/13.2.1/b
 3274              		.file 71 "<built-in>"
ARM GAS  /var/folders/83/vwtnzcdn1v99b_lf0k0gsjzr0000gn/T//cc93oyUL.s 			page 106


DEFINED SYMBOLS
                            *ABS*:00000000 Pedal.cpp
/var/folders/83/vwtnzcdn1v99b_lf0k0gsjzr0000gn/T//cc93oyUL.s:20     .text._ZN3amc5Pedal5DelayEj:00000000 $t
/var/folders/83/vwtnzcdn1v99b_lf0k0gsjzr0000gn/T//cc93oyUL.s:27     .text._ZN3amc5Pedal5DelayEj:00000000 _ZN3amc5Pedal5DelayEj
/var/folders/83/vwtnzcdn1v99b_lf0k0gsjzr0000gn/T//cc93oyUL.s:44     .text._ZN3amc5Pedal10StartAudioEPFvPKfPfjE:00000000 $t
/var/folders/83/vwtnzcdn1v99b_lf0k0gsjzr0000gn/T//cc93oyUL.s:51     .text._ZN3amc5Pedal10StartAudioEPFvPKfPfjE:00000000 _ZN3amc5Pedal10StartAudioEPFvPKfPfjE
/var/folders/83/vwtnzcdn1v99b_lf0k0gsjzr0000gn/T//cc93oyUL.s:68     .text._ZN3amc5Pedal10StartAudioEPFvPKPKfPPfjE:00000000 $t
/var/folders/83/vwtnzcdn1v99b_lf0k0gsjzr0000gn/T//cc93oyUL.s:75     .text._ZN3amc5Pedal10StartAudioEPFvPKPKfPPfjE:00000000 _ZN3amc5Pedal10StartAudioEPFvPKPKfPPfjE
/var/folders/83/vwtnzcdn1v99b_lf0k0gsjzr0000gn/T//cc93oyUL.s:92     .text._ZN3amc5Pedal11ChangeAudioEPFvPKfPfjE:00000000 $t
/var/folders/83/vwtnzcdn1v99b_lf0k0gsjzr0000gn/T//cc93oyUL.s:99     .text._ZN3amc5Pedal11ChangeAudioEPFvPKfPfjE:00000000 _ZN3amc5Pedal11ChangeAudioEPFvPKfPfjE
/var/folders/83/vwtnzcdn1v99b_lf0k0gsjzr0000gn/T//cc93oyUL.s:116    .text._ZN3amc5Pedal11ChangeAudioEPFvPKPKfPPfjE:00000000 $t
/var/folders/83/vwtnzcdn1v99b_lf0k0gsjzr0000gn/T//cc93oyUL.s:123    .text._ZN3amc5Pedal11ChangeAudioEPFvPKPKfPPfjE:00000000 _ZN3amc5Pedal11ChangeAudioEPFvPKPKfPPfjE
/var/folders/83/vwtnzcdn1v99b_lf0k0gsjzr0000gn/T//cc93oyUL.s:140    .text._ZN3amc5Pedal9StopAudioEv:00000000 $t
/var/folders/83/vwtnzcdn1v99b_lf0k0gsjzr0000gn/T//cc93oyUL.s:147    .text._ZN3amc5Pedal9StopAudioEv:00000000 _ZN3amc5Pedal9StopAudioEv
/var/folders/83/vwtnzcdn1v99b_lf0k0gsjzr0000gn/T//cc93oyUL.s:164    .text._ZN3amc5Pedal12SetAudioRateEN5daisy9SaiHandle6Config10SampleRateE:00000000 $t
/var/folders/83/vwtnzcdn1v99b_lf0k0gsjzr0000gn/T//cc93oyUL.s:171    .text._ZN3amc5Pedal12SetAudioRateEN5daisy9SaiHandle6Config10SampleRateE:00000000 _ZN3amc5Pedal12SetAudioRateEN5daisy9SaiHandle6Config10SampleRateE
/var/folders/83/vwtnzcdn1v99b_lf0k0gsjzr0000gn/T//cc93oyUL.s:306    .text._ZN3amc5Pedal9AudioRateEv:00000000 $t
/var/folders/83/vwtnzcdn1v99b_lf0k0gsjzr0000gn/T//cc93oyUL.s:313    .text._ZN3amc5Pedal9AudioRateEv:00000000 _ZN3amc5Pedal9AudioRateEv
/var/folders/83/vwtnzcdn1v99b_lf0k0gsjzr0000gn/T//cc93oyUL.s:330    .text._ZN3amc5Pedal12SetBlockSizeEj:00000000 $t
/var/folders/83/vwtnzcdn1v99b_lf0k0gsjzr0000gn/T//cc93oyUL.s:337    .text._ZN3amc5Pedal12SetBlockSizeEj:00000000 _ZN3amc5Pedal12SetBlockSizeEj
/var/folders/83/vwtnzcdn1v99b_lf0k0gsjzr0000gn/T//cc93oyUL.s:471    .text._ZN3amc5Pedal9BlockSizeEv:00000000 $t
/var/folders/83/vwtnzcdn1v99b_lf0k0gsjzr0000gn/T//cc93oyUL.s:478    .text._ZN3amc5Pedal9BlockSizeEv:00000000 _ZN3amc5Pedal9BlockSizeEv
/var/folders/83/vwtnzcdn1v99b_lf0k0gsjzr0000gn/T//cc93oyUL.s:495    .text._ZN3amc5Pedal12CallbackRateEv:00000000 $t
/var/folders/83/vwtnzcdn1v99b_lf0k0gsjzr0000gn/T//cc93oyUL.s:502    .text._ZN3amc5Pedal12CallbackRateEv:00000000 _ZN3amc5Pedal12CallbackRateEv
/var/folders/83/vwtnzcdn1v99b_lf0k0gsjzr0000gn/T//cc93oyUL.s:519    .text._ZN3amc5Pedal8StartAdcEv:00000000 $t
/var/folders/83/vwtnzcdn1v99b_lf0k0gsjzr0000gn/T//cc93oyUL.s:526    .text._ZN3amc5Pedal8StartAdcEv:00000000 _ZN3amc5Pedal8StartAdcEv
/var/folders/83/vwtnzcdn1v99b_lf0k0gsjzr0000gn/T//cc93oyUL.s:546    .text._ZN3amc5Pedal7StopAdcEv:00000000 $t
/var/folders/83/vwtnzcdn1v99b_lf0k0gsjzr0000gn/T//cc93oyUL.s:553    .text._ZN3amc5Pedal7StopAdcEv:00000000 _ZN3amc5Pedal7StopAdcEv
/var/folders/83/vwtnzcdn1v99b_lf0k0gsjzr0000gn/T//cc93oyUL.s:573    .text._ZN3amc5Pedal13ProcessAnalogEv:00000000 $t
/var/folders/83/vwtnzcdn1v99b_lf0k0gsjzr0000gn/T//cc93oyUL.s:580    .text._ZN3amc5Pedal13ProcessAnalogEv:00000000 _ZN3amc5Pedal13ProcessAnalogEv
/var/folders/83/vwtnzcdn1v99b_lf0k0gsjzr0000gn/T//cc93oyUL.s:623    .text._ZN3amc5Pedal14ProcessDigitalEv:00000000 $t
/var/folders/83/vwtnzcdn1v99b_lf0k0gsjzr0000gn/T//cc93oyUL.s:630    .text._ZN3amc5Pedal14ProcessDigitalEv:00000000 _ZN3amc5Pedal14ProcessDigitalEv
/var/folders/83/vwtnzcdn1v99b_lf0k0gsjzr0000gn/T//cc93oyUL.s:689    .text._ZN3amc5Pedal7GetKnobENS0_5KnobIE:00000000 $t
/var/folders/83/vwtnzcdn1v99b_lf0k0gsjzr0000gn/T//cc93oyUL.s:696    .text._ZN3amc5Pedal7GetKnobENS0_5KnobIE:00000000 _ZN3amc5Pedal7GetKnobENS0_5KnobIE
/var/folders/83/vwtnzcdn1v99b_lf0k0gsjzr0000gn/T//cc93oyUL.s:731    .text._ZN3amc5Pedal9SetBypassEb:00000000 $t
/var/folders/83/vwtnzcdn1v99b_lf0k0gsjzr0000gn/T//cc93oyUL.s:738    .text._ZN3amc5Pedal9SetBypassEb:00000000 _ZN3amc5Pedal9SetBypassEb
/var/folders/83/vwtnzcdn1v99b_lf0k0gsjzr0000gn/T//cc93oyUL.s:771    .text._ZN3amc5Pedal7SetMuteEb:00000000 $t
/var/folders/83/vwtnzcdn1v99b_lf0k0gsjzr0000gn/T//cc93oyUL.s:778    .text._ZN3amc5Pedal7SetMuteEb:00000000 _ZN3amc5Pedal7SetMuteEb
/var/folders/83/vwtnzcdn1v99b_lf0k0gsjzr0000gn/T//cc93oyUL.s:807    .text._ZN3amc5Pedal9ClearLedsEv:00000000 $t
/var/folders/83/vwtnzcdn1v99b_lf0k0gsjzr0000gn/T//cc93oyUL.s:814    .text._ZN3amc5Pedal9ClearLedsEv:00000000 _ZN3amc5Pedal9ClearLedsEv
/var/folders/83/vwtnzcdn1v99b_lf0k0gsjzr0000gn/T//cc93oyUL.s:897    .text._ZN3amc5Pedal9ClearLedsEv:0000002c $d
/var/folders/83/vwtnzcdn1v99b_lf0k0gsjzr0000gn/T//cc93oyUL.s:905    .text._ZN3amc5Pedal6SetLedENS0_4LedIEf:00000000 $t
/var/folders/83/vwtnzcdn1v99b_lf0k0gsjzr0000gn/T//cc93oyUL.s:912    .text._ZN3amc5Pedal6SetLedENS0_4LedIEf:00000000 _ZN3amc5Pedal6SetLedENS0_4LedIEf
/var/folders/83/vwtnzcdn1v99b_lf0k0gsjzr0000gn/T//cc93oyUL.s:952    .text._ZN3amc5Pedal10UpdateLedsEv:00000000 $t
/var/folders/83/vwtnzcdn1v99b_lf0k0gsjzr0000gn/T//cc93oyUL.s:959    .text._ZN3amc5Pedal10UpdateLedsEv:00000000 _ZN3amc5Pedal10UpdateLedsEv
/var/folders/83/vwtnzcdn1v99b_lf0k0gsjzr0000gn/T//cc93oyUL.s:1007   .text._ZN3amc5Pedal18InitAnalogControlsEv:00000000 $t
/var/folders/83/vwtnzcdn1v99b_lf0k0gsjzr0000gn/T//cc93oyUL.s:1014   .text._ZN3amc5Pedal18InitAnalogControlsEv:00000000 _ZN3amc5Pedal18InitAnalogControlsEv
/var/folders/83/vwtnzcdn1v99b_lf0k0gsjzr0000gn/T//cc93oyUL.s:1184   .text._ZN3amc5Pedal18InitAnalogControlsEv:000000cc $d
/var/folders/83/vwtnzcdn1v99b_lf0k0gsjzr0000gn/T//cc93oyUL.s:1189   .text._ZN3amc5Pedal12InitEncodersEv:00000000 $t
/var/folders/83/vwtnzcdn1v99b_lf0k0gsjzr0000gn/T//cc93oyUL.s:1196   .text._ZN3amc5Pedal12InitEncodersEv:00000000 _ZN3amc5Pedal12InitEncodersEv
/var/folders/83/vwtnzcdn1v99b_lf0k0gsjzr0000gn/T//cc93oyUL.s:1256   .text._ZN3amc5Pedal12InitEncodersEv:00000040 $d
/var/folders/83/vwtnzcdn1v99b_lf0k0gsjzr0000gn/T//cc93oyUL.s:1261   .text._ZN3amc5Pedal12InitSwitchesEv:00000000 $t
/var/folders/83/vwtnzcdn1v99b_lf0k0gsjzr0000gn/T//cc93oyUL.s:1268   .text._ZN3amc5Pedal12InitSwitchesEv:00000000 _ZN3amc5Pedal12InitSwitchesEv
/var/folders/83/vwtnzcdn1v99b_lf0k0gsjzr0000gn/T//cc93oyUL.s:1340   .text._ZN3amc5Pedal12InitSwitchesEv:0000004c $d
/var/folders/83/vwtnzcdn1v99b_lf0k0gsjzr0000gn/T//cc93oyUL.s:1345   .text._ZN3amc5Pedal8InitLedsEv:00000000 $t
/var/folders/83/vwtnzcdn1v99b_lf0k0gsjzr0000gn/T//cc93oyUL.s:1352   .text._ZN3amc5Pedal8InitLedsEv:00000000 _ZN3amc5Pedal8InitLedsEv
/var/folders/83/vwtnzcdn1v99b_lf0k0gsjzr0000gn/T//cc93oyUL.s:1425   .text._ZN3amc5Pedal8InitLedsEv:00000050 $d
ARM GAS  /var/folders/83/vwtnzcdn1v99b_lf0k0gsjzr0000gn/T//cc93oyUL.s 			page 107


/var/folders/83/vwtnzcdn1v99b_lf0k0gsjzr0000gn/T//cc93oyUL.s:1430   .text._ZN3amc5Pedal8InitMidiEv:00000000 $t
/var/folders/83/vwtnzcdn1v99b_lf0k0gsjzr0000gn/T//cc93oyUL.s:1437   .text._ZN3amc5Pedal8InitMidiEv:00000000 _ZN3amc5Pedal8InitMidiEv
/var/folders/83/vwtnzcdn1v99b_lf0k0gsjzr0000gn/T//cc93oyUL.s:1674   .text._ZN3amc5Pedal4InitEb:00000000 $t
/var/folders/83/vwtnzcdn1v99b_lf0k0gsjzr0000gn/T//cc93oyUL.s:1681   .text._ZN3amc5Pedal4InitEb:00000000 _ZN3amc5Pedal4InitEb
/var/folders/83/vwtnzcdn1v99b_lf0k0gsjzr0000gn/T//cc93oyUL.s:2884   .text._ZN3amc5Pedal4InitEb:0000041c $d
/var/folders/83/vwtnzcdn1v99b_lf0k0gsjzr0000gn/T//cc93oyUL.s:2889   .text._ZN3amc5Pedal4InitEb:0000042c $t
/var/folders/83/vwtnzcdn1v99b_lf0k0gsjzr0000gn/T//cc93oyUL.s:3066   .text._ZN3amc5Pedal17SetHidUpdateRatesEv:00000000 $t
/var/folders/83/vwtnzcdn1v99b_lf0k0gsjzr0000gn/T//cc93oyUL.s:3073   .text._ZN3amc5Pedal17SetHidUpdateRatesEv:00000000 _ZN3amc5Pedal17SetHidUpdateRatesEv
/var/folders/83/vwtnzcdn1v99b_lf0k0gsjzr0000gn/T//cc93oyUL.s:3199   .rodata._ZN5daisy4seedL3D12E:00000000 $d
/var/folders/83/vwtnzcdn1v99b_lf0k0gsjzr0000gn/T//cc93oyUL.s:3202   .rodata._ZN5daisy4seedL3D12E:00000000 _ZN5daisy4seedL3D12E
/var/folders/83/vwtnzcdn1v99b_lf0k0gsjzr0000gn/T//cc93oyUL.s:3206   .rodata._ZN5daisy4seedL2D1E:00000000 $d
/var/folders/83/vwtnzcdn1v99b_lf0k0gsjzr0000gn/T//cc93oyUL.s:3209   .rodata._ZN5daisy4seedL2D1E:00000000 _ZN5daisy4seedL2D1E

UNDEFINED SYMBOLS
_ZN5daisy9DaisySeed7DelayMsEj
_ZN5daisy9DaisySeed10StartAudioEPFvPKfPfjE
_ZN5daisy9DaisySeed10StartAudioEPFvPKPKfPPfjE
_ZN5daisy9DaisySeed19ChangeAudioCallbackEPFvPKfPfjE
_ZN5daisy9DaisySeed19ChangeAudioCallbackEPFvPKPKfPPfjE
_ZN5daisy9DaisySeed9StopAudioEv
_ZN5daisy9DaisySeed18SetAudioSampleRateENS_9SaiHandle6Config10SampleRateE
_ZNK5daisy9DaisySeed17AudioCallbackRateEv
_ZN5daisy13AnalogControl13SetSampleRateEf
_ZN5daisy9DaisySeed15AudioSampleRateEv
_ZN5daisy9DaisySeed17SetAudioBlockSizeEj
_ZN5daisy9DaisySeed14AudioBlockSizeEv
_ZN5daisy9AdcHandle5StartEv
_ZN5daisy9AdcHandle4StopEv
_ZN5daisy13AnalogControl7ProcessEv
_ZN5daisy6Switch8DebounceEv
_ZN5daisy7Encoder8DebounceEv
_ZN5daisy4GPIO5WriteEb
_ZN5daisy3Led3SetEf
_ZN5daisy3Led6UpdateEv
_ZN5daisy9DaisySeed6GetPinEh
_ZN5daisy16AdcChannelConfig10InitSingleE12dsy_gpio_pinNS0_15ConversionSpeedE
_ZN5daisy9AdcHandle4InitEPNS_16AdcChannelConfigEjNS0_12OverSamplingE
_ZNK5daisy9AdcHandle6GetPtrEh
_ZN5daisy13AnalogControl4InitEPtfbbf
_ZN5daisy7Encoder4InitE12dsy_gpio_pinS1_S1_f
_ZN5daisy6Switch4InitE12dsy_gpio_pinf
_ZN5daisy3Led4InitE12dsy_gpio_pinbf
_ZN5daisy17MidiUartTransport6ConfigC1Ev
memset
_ZN5daisy11UartHandler4InitERKNS0_6ConfigE
_ZN5daisy10MidiParser5ResetEv
_ZN5daisy9DaisySeed4InitEb
_ZN5daisy4GPIO4InitENS_3PinENS0_4ModeENS0_4PullENS0_5SpeedE
dsy_gpio_init
_ZN5daisy9SpiHandle4InitERKNS0_6ConfigE
dsy_gpio_write
_ZN5daisy6System5DelayEm
_ZN5daisy9SpiHandle16BlockingTransmitEPhjm
